ARM Linker, 5.03 [Build 76] [MDK-ARM Lite]

==============================================================================

Section Cross References

    startup_lpc17xx.o(STACK) refers (Special) to heapauxi.o(.text) for __use_two_region_memory
    startup_lpc17xx.o(HEAP) refers (Special) to heapauxi.o(.text) for __use_two_region_memory
    startup_lpc17xx.o(RESET) refers (Special) to heapauxi.o(.text) for __use_two_region_memory
    startup_lpc17xx.o(RESET) refers to startup_lpc17xx.o(STACK) for __initial_sp
    startup_lpc17xx.o(RESET) refers to startup_lpc17xx.o(.text) for Reset_Handler
    startup_lpc17xx.o(RESET) refers to lib.o(i.PendSV_Handler) for PendSV_Handler
    startup_lpc17xx.o(RESET) refers to lib.o(i.SysTick_Handler) for SysTick_Handler
    startup_lpc17xx.o(RESET) refers to lib.o(i.TIMER0_IRQHandler) for TIMER0_IRQHandler
    startup_lpc17xx.o(RESET) refers to lib.o(i.TIMER1_IRQHandler) for TIMER1_IRQHandler
    startup_lpc17xx.o(RESET) refers to lib.o(i.TIMER2_IRQHandler) for TIMER2_IRQHandler
    startup_lpc17xx.o(RESET) refers to lib.o(i.TIMER3_IRQHandler) for TIMER3_IRQHandler
    startup_lpc17xx.o(RESET) refers to lib.o(i.UART0_IRQHandler) for UART0_IRQHandler
    startup_lpc17xx.o(RESET) refers to lib.o(i.UART1_IRQHandler) for UART1_IRQHandler
    startup_lpc17xx.o(RESET) refers to lib.o(i.UART3_IRQHandler) for UART3_IRQHandler
    startup_lpc17xx.o(RESET) refers to lib.o(i.PWM1_IRQHandler) for PWM1_IRQHandler
    startup_lpc17xx.o(RESET) refers to lib.o(i.ADC_IRQHandler) for ADC_IRQHandler
    startup_lpc17xx.o(RESET) refers to lib.o(i.USB_IRQHandler) for USB_IRQHandler
    startup_lpc17xx.o(.ARM.__at_0x02FC) refers (Special) to heapauxi.o(.text) for __use_two_region_memory
    startup_lpc17xx.o(.text) refers (Special) to heapauxi.o(.text) for __use_two_region_memory
    startup_lpc17xx.o(.text) refers to __main.o(!!!main) for __main
    startup_lpc17xx.o(.text) refers to startup_lpc17xx.o(HEAP) for Heap_Mem
    startup_lpc17xx.o(.text) refers to startup_lpc17xx.o(STACK) for Stack_Mem
    lib.o(i.ADC_IRQHandler) refers to lib.o(.data) for cHwADC_0::adcPtr
    lib.o(i.PWM1_IRQHandler) refers to lib.o(i._ZN10cHwTimer_N3isrEv) for cHwTimer_N::isr()
    lib.o(i.PWM1_IRQHandler) refers to lib.o(.data) for cHwTimer_N::timerPtr_PWM
    lib.o(i.PendSV_Handler) refers to rtos_asm.o(.text) for save_context
    lib.o(i.PendSV_Handler) refers to lib.o(.data) for stackPointer
    lib.o(i.SysTick_Handler) refers to rtos_asm.o(.text) for save_context
    lib.o(i.SysTick_Handler) refers to lib.o(.data) for stackPointer
    lib.o(i.SystemInit) refers to lib.o(.data) for SystemFrequency
    lib.o(i.TIMER0_IRQHandler) refers to lib.o(i._ZN10cHwTimer_N3isrEv) for cHwTimer_N::isr()
    lib.o(i.TIMER0_IRQHandler) refers to lib.o(.data) for cHwTimer_N::timerPtr_0
    lib.o(i.TIMER1_IRQHandler) refers to lib.o(i._ZN10cHwTimer_N3isrEv) for cHwTimer_N::isr()
    lib.o(i.TIMER1_IRQHandler) refers to lib.o(.data) for cHwTimer_N::timerPtr_1
    lib.o(i.TIMER2_IRQHandler) refers to lib.o(i._ZN10cHwTimer_N3isrEv) for cHwTimer_N::isr()
    lib.o(i.TIMER2_IRQHandler) refers to lib.o(.data) for cHwTimer_N::timerPtr_2
    lib.o(i.TIMER3_IRQHandler) refers to lib.o(i._ZN10cHwTimer_N3isrEv) for cHwTimer_N::isr()
    lib.o(i.TIMER3_IRQHandler) refers to lib.o(.data) for cHwTimer_N::timerPtr_3
    lib.o(i.UART0_IRQHandler) refers to lib.o(.data) for cHwUART_N::uartPtr_0
    lib.o(i.UART1_IRQHandler) refers to lib.o(.data) for cHwUART_N::uartPtr_1
    lib.o(i.UART3_IRQHandler) refers to lib.o(.data) for cHwUART_N::uartPtr_3
    lib.o(i.USB_IRQHandler) refers to lib.o(i._ZN8cHwUSB_03isrEv) for cHwUSB_0::isr()
    lib.o(i.USB_IRQHandler) refers to lib.o(.data) for cHwUSB_0::usbPtr
    lib.o(i._Z4ntohj) refers to lib.o(i._Z4htonj) for hton(unsigned)
    lib.o(i._Z4ntoht) refers to lib.o(i._Z4htont) for hton(unsigned short)
    lib.o(i._ZN10cDevTextIO6printfEPKcz) refers to c89vsnprintf.o(.text) for __c89vsnprintf
    lib.o(i._ZN10cDevTextIO6printfEPKcz) refers to strlen.o(.text) for strlen
    lib.o(i._ZN10cDevTextIO9getStringEv) refers to strchr.o(.text) for strchr
    lib.o(i._ZN10cDevTextIOC2EhhPKcS1_) refers to lib.o(i._Znaj) for operator new[] (unsigned)
    lib.o(i._ZN10cDevTextIOC2EhhPKcS1_) refers to lib.o(.constdata__ZTV10cDevTextIO) for vtable for cDevTextIO
    lib.o(i._ZN10cHwDisplayC2Ehh) refers to lib.o(.constdata__ZTV10cHwDisplay) for vtable for cHwDisplay
    lib.o(i._ZN10cHwTimer_N9enablePWMEhN8cHwTimer4ModeE) refers to lib.o(i._ZN12cHwPinConfig3setENS_8FunctionEj) for cHwPinConfig::set(cHwPinConfig::Function, unsigned)
    lib.o(i._ZN10cHwTimer_NC1ENS_7TimerIdEj) refers to lib.o(i._ZN5cListC1Ev) for cList::cList()
    lib.o(i._ZN10cHwTimer_NC1ENS_7TimerIdEj) refers to lib.o(i._Z14NVIC_EnableIRQ4IRQn) for NVIC_EnableIRQ(IRQn)
    lib.o(i._ZN10cHwTimer_NC1ENS_7TimerIdEj) refers to fflt_clz.o(x$fpl$ffltu) for __aeabi_ui2f
    lib.o(i._ZN10cHwTimer_NC1ENS_7TimerIdEj) refers to fmul.o(x$fpl$fmul) for __aeabi_fmul
    lib.o(i._ZN10cHwTimer_NC1ENS_7TimerIdEj) refers to fdiv.o(x$fpl$fdiv) for __aeabi_fdiv
    lib.o(i._ZN10cHwTimer_NC1ENS_7TimerIdEj) refers to frleqf.o(x$fpl$frleqf) for __aeabi_cfrcmple
    lib.o(i._ZN10cHwTimer_NC1ENS_7TimerIdEj) refers to ffixu.o(x$fpl$ffixu) for __aeabi_f2uiz
    lib.o(i._ZN10cHwTimer_NC1ENS_7TimerIdEj) refers to dflt_clz.o(x$fpl$dfltu) for __aeabi_ui2d
    lib.o(i._ZN10cHwTimer_NC1ENS_7TimerIdEj) refers to dmul.o(x$fpl$dmul) for __aeabi_dmul
    lib.o(i._ZN10cHwTimer_NC1ENS_7TimerIdEj) refers to ddiv.o(x$fpl$ddiv) for __aeabi_ddiv
    lib.o(i._ZN10cHwTimer_NC1ENS_7TimerIdEj) refers to dfixu.o(x$fpl$dfixu) for __aeabi_d2uiz
    lib.o(i._ZN10cHwTimer_NC1ENS_7TimerIdEj) refers to lib.o(.constdata__ZTV8cHwTimer) for vtable for cHwTimer
    lib.o(i._ZN10cHwTimer_NC1ENS_7TimerIdEj) refers to lib.o(.constdata__ZTV10cHwTimer_N) for vtable for cHwTimer_N
    lib.o(i._ZN10cHwTimer_NC1ENS_7TimerIdEj) refers to lib.o(.data) for cHwTimer_N::timerPtr_0
    lib.o(i._ZN10cHwUSBctrl2inEv) refers to lib.o(i._ZN14cHwUSBendpoint9writeDataEv) for cHwUSBendpoint::writeData()
    lib.o(i._ZN10cHwUSBctrl2inEv) refers to lib.o(i._ZN14cHwUSBendpoint6inCtrlEv) for cHwUSBendpoint::inCtrl()
    lib.o(i._ZN10cHwUSBctrl3outEv) refers to lib.o(i._ZN14cHwUSBendpoint7outCtrlEv) for cHwUSBendpoint::outCtrl()
    lib.o(i._ZN10cHwUSBctrl5setupEv) refers to lib.o(i._ZN10cHwUSBctrl9ReqDeviceEv) for cHwUSBctrl::ReqDevice()
    lib.o(i._ZN10cHwUSBctrl5setupEv) refers to lib.o(i._ZN10cHwUSBctrl12ReqInterfaceEv) for cHwUSBctrl::ReqInterface()
    lib.o(i._ZN10cHwUSBctrl5setupEv) refers to lib.o(i._ZN10cHwUSBctrl11ReqEndpointEv) for cHwUSBctrl::ReqEndpoint()
    lib.o(i._ZN10cHwUSBctrlC1ER6cHwUSB) refers to lib.o(i._ZN14cHwUSBendpointC1ER6cHwUSBht) for cHwUSBendpoint::cHwUSBendpoint(cHwUSB&, unsigned char, unsigned short)
    lib.o(i._ZN10cHwUSBctrlC1ER6cHwUSB) refers to lib.o(.constdata__ZTV10cHwUSBctrl) for vtable for cHwUSBctrl
    lib.o(i._ZN10cHwUSBdesc16getDescriptorHIDEhhh) refers to lib.o(i._ZN10cHwUSBdesc5getIdEhhhh) for cHwUSBdesc::getId(unsigned char, unsigned char, unsigned char, unsigned char)
    lib.o(i._ZN10cHwUSBdesc16getDescriptorHIDEhhh) refers to lib.o(i._ZN12cDataPointerC1EPht) for cDataPointer::cDataPointer(unsigned char*, unsigned short)
    lib.o(i._ZN10cHwUSBdesc16getDescriptorHIDEhhh) refers to lib.o(i._ZN12cDataPointerC1Ev) for cDataPointer::cDataPointer()
    lib.o(i._ZN10cHwUSBdesc17getMaxPacketSize0Ev) refers to lib.o(i._ZN10cHwUSBdesc19getDescriptorDeviceEv) for cHwUSBdesc::getDescriptorDevice()
    lib.o(i._ZN10cHwUSBdesc17getMaxPacketSize0Ev) refers to lib.o(i._ZNK12cDataPointer6getPtrEv) for cDataPointer::getPtr() const
    lib.o(i._ZN10cHwUSBdesc19getDescriptorConfigEh) refers to lib.o(i._ZN10cHwUSBdesc5getIdEhhhh) for cHwUSBdesc::getId(unsigned char, unsigned char, unsigned char, unsigned char)
    lib.o(i._ZN10cHwUSBdesc19getDescriptorConfigEh) refers to lib.o(i._ZN12cDataPointerC1EPht) for cDataPointer::cDataPointer(unsigned char*, unsigned short)
    lib.o(i._ZN10cHwUSBdesc19getDescriptorConfigEh) refers to lib.o(i._ZN12cDataPointerC1Ev) for cDataPointer::cDataPointer()
    lib.o(i._ZN10cHwUSBdesc19getDescriptorDeviceEv) refers to lib.o(i._ZN10cHwUSBdesc5getIdEhhhh) for cHwUSBdesc::getId(unsigned char, unsigned char, unsigned char, unsigned char)
    lib.o(i._ZN10cHwUSBdesc19getDescriptorDeviceEv) refers to lib.o(i._ZN12cDataPointerC1EPht) for cDataPointer::cDataPointer(unsigned char*, unsigned short)
    lib.o(i._ZN10cHwUSBdesc19getDescriptorDeviceEv) refers to lib.o(i._ZN12cDataPointerC1Ev) for cDataPointer::cDataPointer()
    lib.o(i._ZN10cHwUSBdesc19getDescriptorStringEh) refers to lib.o(i._ZN10cHwUSBdesc5getIdEhhhh) for cHwUSBdesc::getId(unsigned char, unsigned char, unsigned char, unsigned char)
    lib.o(i._ZN10cHwUSBdesc19getDescriptorStringEh) refers to lib.o(i._ZN12cDataPointerC1EPht) for cDataPointer::cDataPointer(unsigned char*, unsigned short)
    lib.o(i._ZN10cHwUSBdesc19getDescriptorStringEh) refers to lib.o(i._ZN12cDataPointerC1Ev) for cDataPointer::cDataPointer()
    lib.o(i._ZN10cHwUSBdesc21getConfigDeviceStatusEh) refers to lib.o(i._ZN10cHwUSBdesc19getDescriptorConfigEh) for cHwUSBdesc::getDescriptorConfig(unsigned char)
    lib.o(i._ZN10cHwUSBdesc21getConfigDeviceStatusEh) refers to lib.o(i._ZNK12cDataPointer6getPtrEv) for cDataPointer::getPtr() const
    lib.o(i._ZN10cHwUSBdesc21getDescriptorEndpointEhhh) refers to lib.o(i._ZN10cHwUSBdesc5getIdEhhhh) for cHwUSBdesc::getId(unsigned char, unsigned char, unsigned char, unsigned char)
    lib.o(i._ZN10cHwUSBdesc21getDescriptorEndpointEhhh) refers to lib.o(i._ZN12cDataPointerC1EPht) for cDataPointer::cDataPointer(unsigned char*, unsigned short)
    lib.o(i._ZN10cHwUSBdesc21getDescriptorEndpointEhhh) refers to lib.o(i._ZN12cDataPointerC1Ev) for cDataPointer::cDataPointer()
    lib.o(i._ZN10cHwUSBdesc22getDescriptorHIDreportEhhh) refers to lib.o(i._ZN10cHwUSBdesc5getIdEhhhh) for cHwUSBdesc::getId(unsigned char, unsigned char, unsigned char, unsigned char)
    lib.o(i._ZN10cHwUSBdesc22getDescriptorHIDreportEhhh) refers to lib.o(i._ZN12cDataPointerC1EPht) for cDataPointer::cDataPointer(unsigned char*, unsigned short)
    lib.o(i._ZN10cHwUSBdesc22getDescriptorHIDreportEhhh) refers to lib.o(i._ZN12cDataPointerC1Ev) for cDataPointer::cDataPointer()
    lib.o(i._ZN10cHwUSBdesc22getDescriptorInterfaceEhh) refers to lib.o(i._ZN10cHwUSBdesc5getIdEhhhh) for cHwUSBdesc::getId(unsigned char, unsigned char, unsigned char, unsigned char)
    lib.o(i._ZN10cHwUSBdesc22getDescriptorInterfaceEhh) refers to lib.o(i._ZN12cDataPointerC1EPht) for cDataPointer::cDataPointer(unsigned char*, unsigned short)
    lib.o(i._ZN10cHwUSBdesc22getDescriptorInterfaceEhh) refers to lib.o(i._ZN12cDataPointerC1Ev) for cDataPointer::cDataPointer()
    lib.o(i._ZN11cDevDigital3getEv) refers to lib.o(i._ZN7cHwPort3Pin3getEv) for cHwPort::Pin::get()
    lib.o(i._ZN11cDevDigital3setEb) refers to lib.o(i._ZN7cHwPort3Pin3setEb) for cHwPort::Pin::set(bool)
    lib.o(i._ZN11cDevDigital7setModeENS_4ModeE) refers to lib.o(i._ZN7cHwPort3Pin7setModeENS_4ModeE) for cHwPort::Pin::setMode(cHwPort::Mode)
    lib.o(i._ZN11cDevDigitalC1ER7cHwPorthNS_4ModeEb) refers to lib.o(i._ZN7cHwPort3PinC1ERS_h) for cHwPort::Pin::Pin(cHwPort&, unsigned char)
    lib.o(i._ZN11cDevDigitalC1ER7cHwPorthNS_4ModeEb) refers to lib.o(i._ZN7cHwPort3Pin3setEb) for cHwPort::Pin::set(bool)
    lib.o(i._ZN11cDevDigitalC1ER7cHwPorthNS_4ModeEb) refers to lib.o(i._ZN7cHwPort3Pin7setModeENS_4ModeE) for cHwPort::Pin::setMode(cHwPort::Mode)
    lib.o(i._ZN11cDevDigitalC1ER7cHwPorthNS_4ModeEb) refers to lib.o(.constdata__ZTV11cDevDigital) for vtable for cDevDigital
    lib.o(i._ZN11cDevDisplayC2Ev) refers to lib.o(.constdata__ZTV11cDevDisplay) for vtable for cDevDisplay
    lib.o(i._ZN11cHwEthernet5getIPEv) refers to lib.o(.constdata) for zeroAddr
    lib.o(i._ZN11cHwEthernet6updateEv) refers to lib.o(i._ZN7cNetARP7processEv) for cNetARP::process()
    lib.o(i._ZN11cHwEthernet6updateEv) refers to lib.o(i._ZN6cNetIP7processEv) for cNetIP::process()
    lib.o(i._ZN11cHwEthernet6updateEv) refers to lib.o(i._ZN6cNetIP6updateEv) for cNetIP::update()
    lib.o(i._ZN11cHwEthernetC2ERK8cNetAddrILh6EE) refers to lib.o(.constdata__ZTV11cHwEthernet) for vtable for cHwEthernet
    lib.o(i._ZN12cDevAnalogIn9calibrateEffff) refers to feqf.o(x$fpl$feqf) for __aeabi_cfcmpeq
    lib.o(i._ZN12cDevAnalogIn9calibrateEffff) refers to faddsub_clz.o(x$fpl$fsub) for __aeabi_fsub
    lib.o(i._ZN12cDevAnalogIn9calibrateEffff) refers to fdiv.o(x$fpl$fdiv) for __aeabi_fdiv
    lib.o(i._ZN12cDevAnalogIn9calibrateEffff) refers to fmul.o(x$fpl$fmul) for __aeabi_fmul
    lib.o(i._ZN12cDevAnalogIn9calibrateEffff) refers to faddsub_clz.o(x$fpl$frsb) for __aeabi_frsub
    lib.o(i._ZN12cDevAnalogInC2Ehff) refers to faddsub_clz.o(x$fpl$fsub) for __aeabi_fsub
    lib.o(i._ZN12cDevAnalogInC2Ehff) refers to fdiv.o(x$fpl$fdiv) for __aeabi_fdiv
    lib.o(i._ZN12cDevAnalogInC2Ehff) refers to lib.o(i._ZN10cDevAnalogC1Ehff) for cDevAnalog::cDevAnalog(unsigned char, float, float)
    lib.o(i._ZN12cDevAnalogInC2Ehff) refers to lib.o(.constdata__ZTV12cDevAnalogIn) for vtable for cDevAnalogIn
    lib.o(i._ZN12cHwI2Cmaster4readEhPhhS0_h) refers to lib.o(i._ZN7cSystem16disableInterruptEv) for cSystem::disableInterrupt()
    lib.o(i._ZN12cHwI2Cmaster4readEhPhhS0_h) refers to lib.o(i._ZN7cSystem15enableInterruptEv) for cSystem::enableInterrupt()
    lib.o(i._ZN12cHwI2Cmaster5writeEhPhhS0_h) refers to lib.o(i._ZN7cSystem16disableInterruptEv) for cSystem::disableInterrupt()
    lib.o(i._ZN12cHwI2Cmaster5writeEhPhhS0_h) refers to lib.o(i._ZN7cSystem15enableInterruptEv) for cSystem::enableInterrupt()
    lib.o(i._ZN12cHwI2CmasterC2Eh) refers to lib.o(.constdata__ZTV12cHwI2Cmaster) for vtable for cHwI2Cmaster
    lib.o(i._ZN12cHwPinConfig3setENS_8FunctionEj) refers to main.o(.data) for cHwPinConfig::table
    lib.o(i._ZN12cHwSPImaster6Device10transceiveEPht) refers to lib.o(i._ZN7cSystem16disableInterruptEv) for cSystem::disableInterrupt()
    lib.o(i._ZN12cHwSPImaster6Device10transceiveEPht) refers to lib.o(i._ZN12cHwSPImaster6Device5startEv) for cHwSPImaster::Device::start()
    lib.o(i._ZN12cHwSPImaster6Device10transceiveEPht) refers to lib.o(i._ZN12cHwSPImaster6Device4stopEv) for cHwSPImaster::Device::stop()
    lib.o(i._ZN12cHwSPImaster6Device10transceiveEPht) refers to lib.o(i._ZN7cSystem15enableInterruptEv) for cSystem::enableInterrupt()
    lib.o(i._ZN12cHwSPImaster6Device10transceiveEh) refers to lib.o(i._ZN7cSystem16disableInterruptEv) for cSystem::disableInterrupt()
    lib.o(i._ZN12cHwSPImaster6Device10transceiveEh) refers to lib.o(i._ZN12cHwSPImaster6Device5startEv) for cHwSPImaster::Device::start()
    lib.o(i._ZN12cHwSPImaster6Device10transceiveEh) refers to lib.o(i._ZN12cHwSPImaster6Device4stopEv) for cHwSPImaster::Device::stop()
    lib.o(i._ZN12cHwSPImaster6Device10transceiveEh) refers to lib.o(i._ZN7cSystem15enableInterruptEv) for cSystem::enableInterrupt()
    lib.o(i._ZN12cHwSPImasterC2Ev) refers to lib.o(.constdata__ZTV12cHwSPImaster) for vtable for cHwSPImaster
    lib.o(i._ZN12cHwUSBinterfC2ER6cHwUSBhh) refers to h1_alloc.o(.text) for malloc
    lib.o(i._ZN12cHwUSBinterfC2ER6cHwUSBhh) refers to lib.o(i._ZN14cHwUSBendpointC1ER6cHwUSBP12cHwUSBinterfhth) for cHwUSBendpoint::cHwUSBendpoint(cHwUSB&, cHwUSBinterf*, unsigned char, unsigned short, unsigned char)
    lib.o(i._ZN12cHwUSBinterfC2ER6cHwUSBhh) refers to lib.o(t._ZN12cDataPointercvPT_IN10cHwUSBdesc9cEndpointEEEv) for cDataPointer::operator T1<cHwUSBdesc::cEndpoint>*()
    lib.o(i._ZN12cHwUSBinterfC2ER6cHwUSBhh) refers to lib.o(.constdata__ZTV12cHwUSBinterf) for vtable for cHwUSBinterf
    lib.o(i._ZN12cTaskHandler4TaskC2ERS_) refers to lib.o(i._ZN5cList4ItemC1EPS_) for cList::Item::Item(cList*)
    lib.o(i._ZN12cTaskHandler4TaskC2ERS_) refers to lib.o(.constdata__ZTVN12cTaskHandler4TaskE) for vtable for cTaskHandler::Task
    lib.o(i._ZN12cTaskHandler5TimerC1ERS_tt) refers to lib.o(i._ZN6cTimerC2Ev) for cTimer::cTimer__sub_object()
    lib.o(i._ZN12cTaskHandler5TimerC1ERS_tt) refers to lib.o(i._ZN6cTimer3setEtt) for cTimer::set(unsigned short, unsigned short)
    lib.o(i._ZN12cTaskHandler5TimerC1ERS_tt) refers to lib.o(.constdata__ZTVN12cTaskHandler5TimerE) for vtable for cTaskHandler::Timer
    lib.o(i._ZN12cTaskHandler7addTaskEPNS_4TaskE) refers to lib.o(i._ZN5cList3addEPNS_4ItemE) for cList::add(cList::Item*)
    lib.o(i._ZN12cTaskHandlerC1EP8cHwTimer) refers to lib.o(i._ZN5cList4ItemC1EPS_) for cList::Item::Item(cList*)
    lib.o(i._ZN12cTaskHandlerC1EP8cHwTimer) refers to lib.o(i._ZN5cListC1Ev) for cList::cList()
    lib.o(i._ZN12cTaskHandlerC1EP8cHwTimer) refers to lib.o(.constdata__ZTV12cTaskHandler) for vtable for cTaskHandler
    lib.o(i._ZN12cTaskHandlerC1EPS_) refers to lib.o(i._ZN5cList4ItemC1EPS_) for cList::Item::Item(cList*)
    lib.o(i._ZN12cTaskHandlerC1EPS_) refers to lib.o(i._ZN5cListC1Ev) for cList::cList()
    lib.o(i._ZN12cTaskHandlerC1EPS_) refers to lib.o(.constdata__ZTV12cTaskHandler) for vtable for cTaskHandler
    lib.o(i._ZN13cDevAnalogOut3setEf) refers to faddsub_clz.o(x$fpl$fsub) for __aeabi_fsub
    lib.o(i._ZN13cDevAnalogOut3setEf) refers to fmul.o(x$fpl$fmul) for __aeabi_fmul
    lib.o(i._ZN13cDevAnalogOut3setEf) refers to frleqf.o(x$fpl$frleqf) for __aeabi_cfrcmple
    lib.o(i._ZN13cDevAnalogOut3setEf) refers to fleqf.o(x$fpl$fleqf) for __aeabi_cfcmple
    lib.o(i._ZN13cDevAnalogOut3setEf) refers to ffixu.o(x$fpl$ffixu) for __aeabi_f2uiz
    lib.o(i._ZN13cDevAnalogOutC2Ehff) refers to feqf.o(x$fpl$feqf) for __aeabi_cfcmpeq
    lib.o(i._ZN13cDevAnalogOutC2Ehff) refers to faddsub_clz.o(x$fpl$fsub) for __aeabi_fsub
    lib.o(i._ZN13cDevAnalogOutC2Ehff) refers to fdiv.o(x$fpl$fdiv) for __aeabi_fdiv
    lib.o(i._ZN13cDevAnalogOutC2Ehff) refers to fmul.o(x$fpl$fmul) for __aeabi_fmul
    lib.o(i._ZN13cDevAnalogOutC2Ehff) refers to lib.o(i._ZN10cDevAnalogC1Ehff) for cDevAnalog::cDevAnalog(unsigned char, float, float)
    lib.o(i._ZN13cDevAnalogOutC2Ehff) refers to lib.o(.constdata__ZTV13cDevAnalogOut) for vtable for cDevAnalogOut
    lib.o(i._ZN13cHwDAC_MAX521C1ER12cHwI2Cmasterh) refers to lib.o(i._ZN6cHwDACC2Eh) for cHwDAC::cHwDAC__sub_object(unsigned char)
    lib.o(i._ZN13cHwDAC_MAX521C1ER12cHwI2Cmasterh) refers to lib.o(i._ZN12cHwI2Cmaster6DeviceC1ERS_h) for cHwI2Cmaster::Device::Device(cHwI2Cmaster&, unsigned char)
    lib.o(i._ZN13cHwDAC_MAX521C1ER12cHwI2Cmasterh) refers to lib.o(.constdata__ZTV13cHwDAC_MAX521) for vtable for cHwDAC_MAX521
    lib.o(i._ZN13cHwMemory_RAMC1Ev) refers to lib.o(i._ZN9cHwMemoryC2Ejh) for cHwMemory::cHwMemory__sub_object(unsigned, unsigned char)
    lib.o(i._ZN13cHwMemory_RAMC1Ev) refers to lib.o(.constdata__ZTV13cHwMemory_RAM) for vtable for cHwMemory_RAM
    lib.o(i._ZN13cNetTransport6SocketC2ERS_R15cNetApplication8cNetAddrILh4EEtt) refers to lib.o(i._ZN5cList4ItemC1EPS_) for cList::Item::Item(cList*)
    lib.o(i._ZN13cNetTransport6SocketC2ERS_R15cNetApplication8cNetAddrILh4EEtt) refers to lib.o(t._ZN8cNetTYPEItEaSEt) for cNetTYPE<unsigned short>::operator =(unsigned short)
    lib.o(i._ZN13cNetTransport6SocketC2ERS_R15cNetApplication8cNetAddrILh4EEtt) refers to lib.o(i._ZN5cList3addEPNS_4ItemE) for cList::add(cList::Item*)
    lib.o(i._ZN13cNetTransport6SocketC2ERS_R15cNetApplication8cNetAddrILh4EEtt) refers to lib.o(.constdata__ZTVN13cNetTransport6SocketE) for vtable for cNetTransport::Socket
    lib.o(i._ZN13cNetTransport6SocketC2ERS_R15cNetApplication8cNetAddrILh4EEtt) refers to lib.o(.constdata) for zeroAddrPhy
    lib.o(i._ZN13cNetTransport6updateEv) refers to lib.o(i._ZN5cList8getFirstEv) for cList::getFirst()
    lib.o(i._ZN13cNetTransport6updateEv) refers to lib.o(i._ZN5cList4Item7getNextEv) for cList::Item::getNext()
    lib.o(i._ZN13cNetTransport7processEv) refers to lib.o(i._ZN5cList8getFirstEv) for cList::getFirst()
    lib.o(i._ZN13cNetTransport7processEv) refers to lib.o(i._ZN5cList4Item7getNextEv) for cList::Item::getNext()
    lib.o(i._ZN13cNetTransport7timeoutEv) refers to lib.o(i._ZN5cList8getFirstEv) for cList::getFirst()
    lib.o(i._ZN13cNetTransport7timeoutEv) refers to lib.o(i._ZN5cList4Item7getNextEv) for cList::Item::getNext()
    lib.o(i._ZN13cNetTransportC2Ev) refers to lib.o(i._ZN5cListC1Ev) for cList::cList()
    lib.o(i._ZN13cNetTransportC2Ev) refers to lib.o(.constdata__ZTV13cNetTransport) for vtable for cNetTransport
    lib.o(i._ZN14cHwDAC_MAX53083setEth) refers to lib.o(i._ZN12cHwSPImaster6Device5writeEt) for cHwSPImaster::Device::write(unsigned short)
    lib.o(i._ZN14cHwDAC_MAX5308C1ERN12cHwSPImaster6DeviceE) refers to lib.o(i._ZN6cHwDACC2Eh) for cHwDAC::cHwDAC__sub_object(unsigned char)
    lib.o(i._ZN14cHwDAC_MAX5308C1ERN12cHwSPImaster6DeviceE) refers to lib.o(i._ZN12cHwSPImaster6DeviceC1ERKS0_) for cHwSPImaster::Device::Device(const cHwSPImaster::Device&)
    lib.o(i._ZN14cHwDAC_MAX5308C1ERN12cHwSPImaster6DeviceE) refers to lib.o(i._ZN12cHwSPImaster6Device5writeEt) for cHwSPImaster::Device::write(unsigned short)
    lib.o(i._ZN14cHwDAC_MAX5308C1ERN12cHwSPImaster6DeviceE) refers to lib.o(.constdata__ZTV14cHwDAC_MAX5308) for vtable for cHwDAC_MAX5308
    lib.o(i._ZN14cHwDAC_MCP44413setEth) refers to lib.o(i._ZN12cHwI2Cmaster6Device5writeEhh) for cHwI2Cmaster::Device::write(unsigned char, unsigned char)
    lib.o(i._ZN14cHwDAC_MCP4441C1ER12cHwI2Cmasterh) refers to lib.o(i._ZN6cHwDACC2Eh) for cHwDAC::cHwDAC__sub_object(unsigned char)
    lib.o(i._ZN14cHwDAC_MCP4441C1ER12cHwI2Cmasterh) refers to lib.o(i._ZN12cHwI2Cmaster6DeviceC1ERS_h) for cHwI2Cmaster::Device::Device(cHwI2Cmaster&, unsigned char)
    lib.o(i._ZN14cHwDAC_MCP4441C1ER12cHwI2Cmasterh) refers to lib.o(.constdata__ZTV14cHwDAC_MCP4441) for vtable for cHwDAC_MCP4441
    lib.o(i._ZN14cHwDAC_MCP49223setEth) refers to lib.o(i._ZN12cHwSPImaster6Device5writeEt) for cHwSPImaster::Device::write(unsigned short)
    lib.o(i._ZN14cHwDAC_MCP4922C1ERN12cHwSPImaster6DeviceEh) refers to lib.o(i._ZN6cHwDACC2Eh) for cHwDAC::cHwDAC__sub_object(unsigned char)
    lib.o(i._ZN14cHwDAC_MCP4922C1ERN12cHwSPImaster6DeviceEh) refers to lib.o(i._ZN12cHwSPImaster6DeviceC1ERKS0_) for cHwSPImaster::Device::Device(const cHwSPImaster::Device&)
    lib.o(i._ZN14cHwDAC_MCP4922C1ERN12cHwSPImaster6DeviceEh) refers to lib.o(.constdata__ZTV14cHwDAC_MCP4922) for vtable for cHwDAC_MCP4922
    lib.o(i._ZN14cHwDisp_DIP20411gotoTextPosEhh) refers to lib.o(i._ZN14cHwDisp_DIP2048writeCmdEh) for cHwDisp_DIP204::writeCmd(unsigned char)
    lib.o(i._ZN14cHwDisp_DIP2044initEv) refers to lib.o(i._ZN14cHwDisp_DIP2048waitBusyEv) for cHwDisp_DIP204::waitBusy()
    lib.o(i._ZN14cHwDisp_DIP2044initEv) refers to lib.o(i._ZN14cHwDisp_DIP2048writeCmdEh) for cHwDisp_DIP204::writeCmd(unsigned char)
    lib.o(i._ZN14cHwDisp_DIP2045clearEv) refers to lib.o(i._ZN14cHwDisp_DIP2048writeCmdEh) for cHwDisp_DIP204::writeCmd(unsigned char)
    lib.o(i._ZN14cHwDisp_DIP2047putCharEc) refers to lib.o(i._ZN14cHwDisp_DIP2048writeDatEh) for cHwDisp_DIP204::writeDat(unsigned char)
    lib.o(i._ZN14cHwDisp_DIP2048writeCmdEh) refers to lib.o(i._ZN14cHwDisp_DIP2048waitBusyEv) for cHwDisp_DIP204::waitBusy()
    lib.o(i._ZN14cHwDisp_DIP2048writeDatEh) refers to lib.o(i._ZN14cHwDisp_DIP2048waitBusyEv) for cHwDisp_DIP204::waitBusy()
    lib.o(i._ZN14cHwDisp_DIP204C1ER7cHwPort) refers to lib.o(i._ZN10cHwDisplayC2Ehh) for cHwDisplay::cHwDisplay__sub_object(unsigned char, unsigned char)
    lib.o(i._ZN14cHwDisp_DIP204C1ER7cHwPort) refers to lib.o(i._ZN14cHwDisp_DIP2044initEv) for cHwDisp_DIP204::init()
    lib.o(i._ZN14cHwDisp_DIP204C1ER7cHwPort) refers to lib.o(.constdata__ZTV14cHwDisp_DIP204) for vtable for cHwDisp_DIP204
    lib.o(i._ZN14cHwDisplayFont8getPixelEhh) refers to lib.o(i._ZNK14cHwDisplayFont12getCharWidthEv) for cHwDisplayFont::getCharWidth() const
    lib.o(i._ZN14cHwI2Cmaster_NC1ENS_6I2C_IDEN12cHwI2Cmaster4MODEEh) refers to lib.o(i._ZN12cHwI2CmasterC2Eh) for cHwI2Cmaster::cHwI2Cmaster__sub_object(unsigned char)
    lib.o(i._ZN14cHwI2Cmaster_NC1ENS_6I2C_IDEN12cHwI2Cmaster4MODEEh) refers to lib.o(i._ZN12cHwPinConfig3setENS_8FunctionEj) for cHwPinConfig::set(cHwPinConfig::Function, unsigned)
    lib.o(i._ZN14cHwI2Cmaster_NC1ENS_6I2C_IDEN12cHwI2Cmaster4MODEEh) refers to lib.o(.constdata__ZTV14cHwI2Cmaster_N) for vtable for cHwI2Cmaster_N
    lib.o(i._ZN14cHwRAM_PCF85838readByteEj) refers to lib.o(i._ZN12cHwI2Cmaster6Device4readEh) for cHwI2Cmaster::Device::read(unsigned char)
    lib.o(i._ZN14cHwRAM_PCF85839writeByteEjh) refers to lib.o(i._ZN12cHwI2Cmaster6Device5writeEhh) for cHwI2Cmaster::Device::write(unsigned char, unsigned char)
    lib.o(i._ZN14cHwRAM_PCF8583C2ER12cHwI2Cmasterh) refers to lib.o(i._ZN9cHwMemoryC2Ejh) for cHwMemory::cHwMemory__sub_object(unsigned, unsigned char)
    lib.o(i._ZN14cHwRAM_PCF8583C2ER12cHwI2Cmasterh) refers to lib.o(i._ZN12cHwI2Cmaster6DeviceC1ERS_h) for cHwI2Cmaster::Device::Device(cHwI2Cmaster&, unsigned char)
    lib.o(i._ZN14cHwRAM_PCF8583C2ER12cHwI2Cmasterh) refers to lib.o(.constdata__ZTV14cHwRAM_PCF8583) for vtable for cHwRAM_PCF8583
    lib.o(i._ZN14cHwRTC_PCF85833getERN6cHwRTC10PropertiesE) refers to lib.o(i._ZN12cHwI2Cmaster6Device4readEh) for cHwI2Cmaster::Device::read(unsigned char)
    lib.o(i._ZN14cHwRTC_PCF85833getERN6cHwRTC10PropertiesE) refers to lib.o(i._ZN14cHwRTC_PCF858310BCD_2_DualEh) for cHwRTC_PCF8583::BCD_2_Dual(unsigned char)
    lib.o(i._ZN14cHwRTC_PCF85833setERKN6cHwRTC10PropertiesE) refers to lib.o(i._ZN12cHwI2Cmaster6Device5writeEhh) for cHwI2Cmaster::Device::write(unsigned char, unsigned char)
    lib.o(i._ZN14cHwRTC_PCF85833setERKN6cHwRTC10PropertiesE) refers to lib.o(i._ZN14cHwRTC_PCF858310Dual_2_BCDEh) for cHwRTC_PCF8583::Dual_2_BCD(unsigned char)
    lib.o(i._ZN14cHwRTC_PCF8583C1ER12cHwI2Cmasterh) refers to lib.o(i._ZN6cHwRTCC2Ev) for cHwRTC::cHwRTC__sub_object()
    lib.o(i._ZN14cHwRTC_PCF8583C1ER12cHwI2Cmasterh) refers to lib.o(i._ZN12cHwI2Cmaster6DeviceC1ERS_h) for cHwI2Cmaster::Device::Device(cHwI2Cmaster&, unsigned char)
    lib.o(i._ZN14cHwRTC_PCF8583C1ER12cHwI2Cmasterh) refers to lib.o(.constdata__ZTV14cHwRTC_PCF8583) for vtable for cHwRTC_PCF8583
    lib.o(i._ZN14cHwSPImaster_0C1EN12cHwSPImaster4MODEENS0_11ClockPolPhaE) refers to lib.o(i._ZN12cHwSPImasterC2Ev) for cHwSPImaster::cHwSPImaster__sub_object()
    lib.o(i._ZN14cHwSPImaster_0C1EN12cHwSPImaster4MODEENS0_11ClockPolPhaE) refers to lib.o(i._ZN12cHwPinConfig3setENS_8FunctionEj) for cHwPinConfig::set(cHwPinConfig::Function, unsigned)
    lib.o(i._ZN14cHwSPImaster_0C1EN12cHwSPImaster4MODEENS0_11ClockPolPhaE) refers to lib.o(.constdata__ZTV14cHwSPImaster_0) for vtable for cHwSPImaster_0
    lib.o(i._ZN14cHwSPImaster_1C1EN12cHwSPImaster4MODEENS0_11ClockPolPhaE) refers to lib.o(i._ZN12cHwSPImasterC2Ev) for cHwSPImaster::cHwSPImaster__sub_object()
    lib.o(i._ZN14cHwSPImaster_1C1EN12cHwSPImaster4MODEENS0_11ClockPolPhaE) refers to lib.o(i._ZN12cHwPinConfig3setENS_8FunctionEj) for cHwPinConfig::set(cHwPinConfig::Function, unsigned)
    lib.o(i._ZN14cHwSPImaster_1C1EN12cHwSPImaster4MODEENS0_11ClockPolPhaE) refers to lib.o(.constdata__ZTV14cHwSPImaster_1) for vtable for cHwSPImaster_1
    lib.o(i._ZN14cHwUSBendpoint12writeDataLenERK12cDataPointert) refers to lib.o(i._ZNK12cDataPointer6getPtrEv) for cDataPointer::getPtr() const
    lib.o(i._ZN14cHwUSBendpoint12writeDataLenERK12cDataPointert) refers to lib.o(i._ZN12cDataPointer7getSizeEv) for cDataPointer::getSize()
    lib.o(i._ZN14cHwUSBendpoint12writeDataLenERK12cDataPointert) refers to lib.o(t._Z3MINItET_S0_S0_) for MIN<unsigned short>(T1, T1)
    lib.o(i._ZN14cHwUSBendpoint12writeDataLenERK12cDataPointert) refers to lib.o(i._ZN14cHwUSBendpoint9writeDataEv) for cHwUSBendpoint::writeData()
    lib.o(i._ZN14cHwUSBendpoint2inEv) refers to lib.o(i._ZN12cDataPointer7isEmptyEv) for cDataPointer::isEmpty()
    lib.o(i._ZN14cHwUSBendpoint2inEv) refers to lib.o(i._ZN14cHwUSBendpoint9writeDataEv) for cHwUSBendpoint::writeData()
    lib.o(i._ZN14cHwUSBendpoint3outEv) refers to lib.o(i._ZN14cHwUSBendpoint8readDataEv) for cHwUSBendpoint::readData()
    lib.o(i._ZN14cHwUSBendpoint3outEv) refers to lib.o(i._ZN14cHwUSBendpoint5stallEv) for cHwUSBendpoint::stall()
    lib.o(i._ZN14cHwUSBendpoint6inCtrlEv) refers to lib.o(i._ZN14cHwUSBendpoint9writeDataEv) for cHwUSBendpoint::writeData()
    lib.o(i._ZN14cHwUSBendpoint6inCtrlEv) refers to lib.o(i._ZN12cDataPointer7getSizeEv) for cDataPointer::getSize()
    lib.o(i._ZN14cHwUSBendpoint7outCtrlEv) refers to lib.o(i._ZN14cHwUSBendpoint8readDataEv) for cHwUSBendpoint::readData()
    lib.o(i._ZN14cHwUSBendpoint7outCtrlEv) refers to lib.o(i._ZN14cHwUSBendpoint16writeAcknowledgeEv) for cHwUSBendpoint::writeAcknowledge()
    lib.o(i._ZN14cHwUSBendpoint7outCtrlEv) refers to lib.o(i._ZN14cHwUSBendpoint5stallEv) for cHwUSBendpoint::stall()
    lib.o(i._ZN14cHwUSBendpoint8readDataEv) refers to lib.o(i._ZN12cDataPointer7getSizeEv) for cDataPointer::getSize()
    lib.o(i._ZN14cHwUSBendpoint8readDataEv) refers to lib.o(i._ZNK12cDataPointer6getPtrEv) for cDataPointer::getPtr() const
    lib.o(i._ZN14cHwUSBendpoint8readDataEv) refers to lib.o(i._ZN12cDataPointer5shiftEt) for cDataPointer::shift(unsigned short)
    lib.o(i._ZN14cHwUSBendpoint9writeDataERK12cDataPointer) refers to lib.o(i._ZN14cHwUSBendpoint9writeDataEv) for cHwUSBendpoint::writeData()
    lib.o(i._ZN14cHwUSBendpoint9writeDataEv) refers to lib.o(i._ZN12cDataPointer7getSizeEv) for cDataPointer::getSize()
    lib.o(i._ZN14cHwUSBendpoint9writeDataEv) refers to lib.o(t._Z3MINItET_S0_S0_) for MIN<unsigned short>(T1, T1)
    lib.o(i._ZN14cHwUSBendpoint9writeDataEv) refers to lib.o(i._ZNK12cDataPointer6getPtrEv) for cDataPointer::getPtr() const
    lib.o(i._ZN14cHwUSBendpoint9writeDataEv) refers to lib.o(i._ZN12cDataPointer5shiftEt) for cDataPointer::shift(unsigned short)
    lib.o(i._ZN14cHwUSBendpointC1ER6cHwUSBP12cHwUSBinterfhth) refers to lib.o(i._ZN12cDataPointerC1Ev) for cDataPointer::cDataPointer()
    lib.o(i._ZN14cHwUSBendpointC1ER6cHwUSBht) refers to lib.o(i._ZN12cDataPointerC1Ev) for cDataPointer::cDataPointer()
    lib.o(i._ZN15cDevAnalogInADCC1ER6cHwADChff) refers to lib.o(i._ZN12cDevAnalogInC2Ehff) for cDevAnalogIn::cDevAnalogIn__sub_object(unsigned char, float, float)
    lib.o(i._ZN15cDevAnalogInADCC1ER6cHwADChff) refers to lib.o(.constdata__ZTV15cDevAnalogInADC) for vtable for cDevAnalogInADC
    lib.o(i._ZN15cDevDisplayChar6printfEhhhPKcz) refers to c89vsnprintf.o(.text) for __c89vsnprintf
    lib.o(i._ZN15cDevDisplayCharC1ER10cHwDisplay) refers to lib.o(i._ZN11cDevDisplayC2Ev) for cDevDisplay::cDevDisplay__sub_object()
    lib.o(i._ZN15cDevDisplayCharC1ER10cHwDisplay) refers to lib.o(.constdata__ZTV15cDevDisplayChar) for vtable for cDevDisplayChar
    lib.o(i._ZN15cDevTextIO_UARTC1ER7cHwUARThhPKcS3_) refers to lib.o(i._ZN10cDevTextIOC2EhhPKcS1_) for cDevTextIO::cDevTextIO__sub_object(unsigned char, unsigned char, const char*, const char*)
    lib.o(i._ZN15cDevTextIO_UARTC1ER7cHwUARThhPKcS3_) refers to lib.o(.constdata__ZTV15cDevTextIO_UART) for vtable for cDevTextIO_UART
    lib.o(i._ZN15cHwMemory_FlashC1EPhj) refers to lib.o(i._ZN9cHwMemoryC2Ejh) for cHwMemory::cHwMemory__sub_object(unsigned, unsigned char)
    lib.o(i._ZN15cHwMemory_FlashC1EPhj) refers to lib.o(.constdata__ZTV15cHwMemory_Flash) for vtable for cHwMemory_Flash
    lib.o(i._ZN15cHwPort_PCF85743clrEj) refers to lib.o(i._ZN12cHwI2Cmaster6Device5writeEh) for cHwI2Cmaster::Device::write(unsigned char)
    lib.o(i._ZN15cHwPort_PCF85743getEv) refers to lib.o(i._ZN12cHwI2Cmaster6Device4readEv) for cHwI2Cmaster::Device::read()
    lib.o(i._ZN15cHwPort_PCF85743setEj) refers to lib.o(i._ZN12cHwI2Cmaster6Device5writeEh) for cHwI2Cmaster::Device::write(unsigned char)
    lib.o(i._ZN15cHwPort_PCF85743setEjj) refers to lib.o(i._ZN12cHwI2Cmaster6Device5writeEh) for cHwI2Cmaster::Device::write(unsigned char)
    lib.o(i._ZN15cHwPort_PCF85746clrDirEj) refers to lib.o(i._ZN12cHwI2Cmaster6Device5writeEh) for cHwI2Cmaster::Device::write(unsigned char)
    lib.o(i._ZN15cHwPort_PCF85746setDirEj) refers to lib.o(i._ZN12cHwI2Cmaster6Device5writeEh) for cHwI2Cmaster::Device::write(unsigned char)
    lib.o(i._ZN15cHwPort_PCF85746updateEv) refers to lib.o(i._ZN12cHwI2Cmaster6Device4readEv) for cHwI2Cmaster::Device::read()
    lib.o(i._ZN15cHwPort_PCF85746updateEv) refers to lib.o(i._ZN12cHwI2Cmaster6Device5writeEh) for cHwI2Cmaster::Device::write(unsigned char)
    lib.o(i._ZN15cHwPort_PCF8574C2ER12cHwI2CmasterhP8cHwTimer) refers to lib.o(i._ZN7cHwPortC2Ev) for cHwPort::cHwPort__sub_object()
    lib.o(i._ZN15cHwPort_PCF8574C2ER12cHwI2CmasterhP8cHwTimer) refers to lib.o(i._ZN5cList4ItemC1EPS_) for cList::Item::Item(cList*)
    lib.o(i._ZN15cHwPort_PCF8574C2ER12cHwI2CmasterhP8cHwTimer) refers to lib.o(i._ZN12cHwI2Cmaster6DeviceC1ERS_h) for cHwI2Cmaster::Device::Device(cHwI2Cmaster&, unsigned char)
    lib.o(i._ZN15cHwPort_PCF8574C2ER12cHwI2CmasterhP8cHwTimer) refers to lib.o(.constdata__ZTV15cHwPort_PCF8574) for vtable for cHwPort_PCF8574
    lib.o(i._ZN16cDevAnalogOutDACC1ER6cHwDAChff) refers to lib.o(i._ZN13cDevAnalogOutC2Ehff) for cDevAnalogOut::cDevAnalogOut__sub_object(unsigned char, float, float)
    lib.o(i._ZN16cDevAnalogOutDACC1ER6cHwDAChff) refers to lib.o(.constdata__ZTV16cDevAnalogOutDAC) for vtable for cDevAnalogOutDAC
    lib.o(i._ZN16cDevAnalogOutPWMC1ER8cHwTimerNS0_4ModeEhff) refers to lib.o(i._ZN13cDevAnalogOutC2Ehff) for cDevAnalogOut::cDevAnalogOut__sub_object(unsigned char, float, float)
    lib.o(i._ZN16cDevAnalogOutPWMC1ER8cHwTimerNS0_4ModeEhff) refers to lib.o(.constdata__ZTV16cDevAnalogOutPWM) for vtable for cDevAnalogOutPWM
    lib.o(i._ZN16cHwDisp_TerminalC1ER7cHwUART) refers to lib.o(i._ZN10cHwDisplayC2Ehh) for cHwDisplay::cHwDisplay__sub_object(unsigned char, unsigned char)
    lib.o(i._ZN16cHwDisp_TerminalC1ER7cHwUART) refers to lib.o(i._ZN16cHwDisp_Terminal5clearEv) for cHwDisp_Terminal::clear()
    lib.o(i._ZN16cHwDisp_TerminalC1ER7cHwUART) refers to lib.o(.constdata__ZTV16cHwDisp_Terminal) for vtable for cHwDisp_Terminal
    lib.o(i._ZN16cHwEEPROM_24C2568readByteEj) refers to lib.o(i._ZN12cHwI2Cmaster6Device4readEtPhh) for cHwI2Cmaster::Device::read(unsigned short, unsigned char*, unsigned char)
    lib.o(i._ZN16cHwEEPROM_24C2569writeByteEjh) refers to lib.o(i._ZN12cHwI2Cmaster6Device5writeEth) for cHwI2Cmaster::Device::write(unsigned short, unsigned char)
    lib.o(i._ZN16cHwEEPROM_24C2569writeByteEjh) refers to lib.o(i._ZN7cSystem13delayMilliSecEt) for cSystem::delayMilliSec(unsigned short)
    lib.o(i._ZN16cHwEEPROM_24C2569writeByteEjh) refers to lib.o(i._ZN12cHwI2Cmaster6Device4readEtPhh) for cHwI2Cmaster::Device::read(unsigned short, unsigned char*, unsigned char)
    lib.o(i._ZN16cHwEEPROM_24C2569writeByteEjh) refers to lib.o(i._ZN12cHwI2Cmaster6Device7isErrorEv) for cHwI2Cmaster::Device::isError()
    lib.o(i._ZN16cHwEEPROM_24C256C1ER12cHwI2Cmasterh) refers to lib.o(i._ZN9cHwMemoryC2Ejh) for cHwMemory::cHwMemory__sub_object(unsigned, unsigned char)
    lib.o(i._ZN16cHwEEPROM_24C256C1ER12cHwI2Cmasterh) refers to lib.o(i._ZN12cHwI2Cmaster6DeviceC1ERS_h) for cHwI2Cmaster::Device::Device(cHwI2Cmaster&, unsigned char)
    lib.o(i._ZN16cHwEEPROM_24C256C1ER12cHwI2Cmasterh) refers to lib.o(.constdata__ZTV16cHwEEPROM_24C256) for vtable for cHwEEPROM_24C256
    lib.o(i._ZN16cHwEthernet_EMAC10PacketSendEPht) refers to lib.o(i._ZN16cHwEthernet_EMAC6Rdy4TxEv) for cHwEthernet_EMAC::Rdy4Tx()
    lib.o(i._ZN16cHwEthernet_EMAC10PacketSendEPht) refers to lib.o(i._ZN16cHwEthernet_EMAC11RequestSendEt) for cHwEthernet_EMAC::RequestSend(unsigned short)
    lib.o(i._ZN16cHwEthernet_EMAC10PacketSendEPht) refers to lib.o(i._ZN16cHwEthernet_EMAC16CopyToFrame_EMACEPvj) for cHwEthernet_EMAC::CopyToFrame_EMAC(void*, unsigned)
    lib.o(i._ZN16cHwEthernet_EMAC10input_MDIOEv) refers to lib.o(i._ZN16cHwEthernet_EMAC5delayEv) for cHwEthernet_EMAC::delay()
    lib.o(i._ZN16cHwEthernet_EMAC11output_MDIOEjj) refers to lib.o(i._ZN16cHwEthernet_EMAC5delayEv) for cHwEthernet_EMAC::delay()
    lib.o(i._ZN16cHwEthernet_EMAC13PacketReceiveEv) refers to lib.o(i._ZN16cHwEthernet_EMAC18CheckFrameReceivedEv) for cHwEthernet_EMAC::CheckFrameReceived()
    lib.o(i._ZN16cHwEthernet_EMAC13PacketReceiveEv) refers to lib.o(i._ZN16cHwEthernet_EMAC14StartReadFrameEv) for cHwEthernet_EMAC::StartReadFrame()
    lib.o(i._ZN16cHwEthernet_EMAC13PacketReceiveEv) refers to lib.o(i._ZN16cHwEthernet_EMAC18CopyFromFrame_EMACEPvt) for cHwEthernet_EMAC::CopyFromFrame_EMAC(void*, unsigned short)
    lib.o(i._ZN16cHwEthernet_EMAC13PacketReceiveEv) refers to lib.o(i._ZN16cHwEthernet_EMAC12EndReadFrameEv) for cHwEthernet_EMAC::EndReadFrame()
    lib.o(i._ZN16cHwEthernet_EMAC15turnaround_MDIOEv) refers to lib.o(i._ZN16cHwEthernet_EMAC5delayEv) for cHwEthernet_EMAC::delay()
    lib.o(i._ZN16cHwEthernet_EMAC16CopyToFrame_EMACEPvj) refers to lib.o(i._ZN16cHwEthernet_EMAC15WriteFrame_EMACEt) for cHwEthernet_EMAC::WriteFrame_EMAC(unsigned short)
    lib.o(i._ZN16cHwEthernet_EMAC18CopyFromFrame_EMACEPvt) refers to lib.o(i._ZN16cHwEthernet_EMAC14ReadFrame_EMACEv) for cHwEthernet_EMAC::ReadFrame_EMAC()
    lib.o(i._ZN16cHwEthernet_EMAC19DummyReadFrame_EMACEt) refers to lib.o(i._ZN16cHwEthernet_EMAC14ReadFrame_EMACEv) for cHwEthernet_EMAC::ReadFrame_EMAC()
    lib.o(i._ZN16cHwEthernet_EMAC6createE8cNetAddrILh6EEt) refers to lib.o(t._ZN8cNetTYPEItEaSEt) for cNetTYPE<unsigned short>::operator =(unsigned short)
    lib.o(i._ZN16cHwEthernet_EMAC7getTypeEv) refers to lib.o(t._ZN8cNetTYPEItEcvtEv) for cNetTYPE<unsigned short>::operator unsigned short()
    lib.o(i._ZN16cHwEthernet_EMAC8read_PHYEj) refers to lib.o(i._ZN16cHwEthernet_EMAC11output_MDIOEjj) for cHwEthernet_EMAC::output_MDIO(unsigned, unsigned)
    lib.o(i._ZN16cHwEthernet_EMAC8read_PHYEj) refers to lib.o(i._ZN16cHwEthernet_EMAC15turnaround_MDIOEv) for cHwEthernet_EMAC::turnaround_MDIO()
    lib.o(i._ZN16cHwEthernet_EMAC8read_PHYEj) refers to lib.o(i._ZN16cHwEthernet_EMAC10input_MDIOEv) for cHwEthernet_EMAC::input_MDIO()
    lib.o(i._ZN16cHwEthernet_EMAC9Init_EMACEv) refers to lib.o(i._ZN16cHwEthernet_EMAC9write_PHYEjt) for cHwEthernet_EMAC::write_PHY(unsigned, unsigned short)
    lib.o(i._ZN16cHwEthernet_EMAC9Init_EMACEv) refers to lib.o(i._ZN16cHwEthernet_EMAC8read_PHYEj) for cHwEthernet_EMAC::read_PHY(unsigned)
    lib.o(i._ZN16cHwEthernet_EMAC9Init_EMACEv) refers to lib.o(i._ZN16cHwEthernet_EMAC13rx_descr_initEv) for cHwEthernet_EMAC::rx_descr_init()
    lib.o(i._ZN16cHwEthernet_EMAC9Init_EMACEv) refers to lib.o(i._ZN16cHwEthernet_EMAC13tx_descr_initEv) for cHwEthernet_EMAC::tx_descr_init()
    lib.o(i._ZN16cHwEthernet_EMAC9write_PHYEjt) refers to lib.o(i._ZN16cHwEthernet_EMAC11output_MDIOEjj) for cHwEthernet_EMAC::output_MDIO(unsigned, unsigned)
    lib.o(i._ZN16cHwEthernet_EMAC9write_PHYEjt) refers to lib.o(i._ZN16cHwEthernet_EMAC15turnaround_MDIOEv) for cHwEthernet_EMAC::turnaround_MDIO()
    lib.o(i._ZN16cHwEthernet_EMACC1ERK8cNetAddrILh6EE) refers to lib.o(i._ZN11cHwEthernetC2ERK8cNetAddrILh6EE) for cHwEthernet::cHwEthernet__sub_object(const cNetAddr<(unsigned char)6>&)
    lib.o(i._ZN16cHwEthernet_EMACC1ERK8cNetAddrILh6EE) refers to lib.o(i._ZN16cHwEthernet_EMAC9Init_EMACEv) for cHwEthernet_EMAC::Init_EMAC()
    lib.o(i._ZN16cHwEthernet_EMACC1ERK8cNetAddrILh6EE) refers to lib.o(.constdata__ZTV16cHwEthernet_EMAC) for vtable for cHwEthernet_EMAC
    lib.o(i._ZN16cHwPort_Terminal6updateEv) refers to lib.o(i._ZN7cSystem16disableInterruptEv) for cSystem::disableInterrupt()
    lib.o(i._ZN16cHwPort_Terminal6updateEv) refers to lib.o(i._ZN7cSystem15enableInterruptEv) for cSystem::enableInterrupt()
    lib.o(i._ZN16cHwPort_TerminalC1ER7cHwUARTjP8cHwTimer) refers to lib.o(i._ZN7cHwPortC2Ev) for cHwPort::cHwPort__sub_object()
    lib.o(i._ZN16cHwPort_TerminalC1ER7cHwUARTjP8cHwTimer) refers to lib.o(i._ZN5cList4ItemC1EPS_) for cList::Item::Item(cList*)
    lib.o(i._ZN16cHwPort_TerminalC1ER7cHwUARTjP8cHwTimer) refers to lib.o(.constdata__ZTV16cHwPort_Terminal) for vtable for cHwPort_Terminal
    lib.o(i._ZN16cHwTouch_ADS78466updateEv) refers to lib.o(i._ZN16cHwTouch_ADS78468readDataEh) for cHwTouch_ADS7846::readData(unsigned char)
    lib.o(i._ZN16cHwTouch_ADS78468readDataEh) refers to lib.o(i._ZN12cHwSPImaster6Device10transceiveEPht) for cHwSPImaster::Device::transceive(unsigned char*, unsigned short)
    lib.o(i._ZN16cHwTouch_ADS7846C1ERN12cHwSPImaster6DeviceEtt) refers to lib.o(i._ZN8cHwTouchC2Ett) for cHwTouch::cHwTouch__sub_object(unsigned short, unsigned short)
    lib.o(i._ZN16cHwTouch_ADS7846C1ERN12cHwSPImaster6DeviceEtt) refers to lib.o(i._ZN12cHwSPImaster6DeviceC1ERKS0_) for cHwSPImaster::Device::Device(const cHwSPImaster::Device&)
    lib.o(i._ZN16cHwTouch_ADS7846C1ERN12cHwSPImaster6DeviceEtt) refers to lib.o(.constdata__ZTV16cHwTouch_ADS7846) for vtable for cHwTouch_ADS7846
    lib.o(i._ZN17cHwDisp_DIP204spi11gotoTextPosEhh) refers to lib.o(i._ZN17cHwDisp_DIP204spi8writeCmdEh) for cHwDisp_DIP204spi::writeCmd(unsigned char)
    lib.o(i._ZN17cHwDisp_DIP204spi4initEv) refers to lib.o(i._ZN17cHwDisp_DIP204spi8writeCmdEh) for cHwDisp_DIP204spi::writeCmd(unsigned char)
    lib.o(i._ZN17cHwDisp_DIP204spi5clearEv) refers to lib.o(i._ZN17cHwDisp_DIP204spi8writeCmdEh) for cHwDisp_DIP204spi::writeCmd(unsigned char)
    lib.o(i._ZN17cHwDisp_DIP204spi7putCharEc) refers to lib.o(i._ZN17cHwDisp_DIP204spi8writeDatEh) for cHwDisp_DIP204spi::writeDat(unsigned char)
    lib.o(i._ZN17cHwDisp_DIP204spi8writeCmdEh) refers to lib.o(i._ZN17cHwDisp_DIP204spi8waitBusyEv) for cHwDisp_DIP204spi::waitBusy()
    lib.o(i._ZN17cHwDisp_DIP204spi8writeDatEh) refers to lib.o(i._ZN17cHwDisp_DIP204spi8waitBusyEv) for cHwDisp_DIP204spi::waitBusy()
    lib.o(i._ZN17cHwDisp_DIP204spiC1ERN12cHwSPImaster6DeviceE) refers to lib.o(i._ZN10cHwDisplayC2Ehh) for cHwDisplay::cHwDisplay__sub_object(unsigned char, unsigned char)
    lib.o(i._ZN17cHwDisp_DIP204spiC1ERN12cHwSPImaster6DeviceE) refers to lib.o(i._ZN17cHwDisp_DIP204spi4initEv) for cHwDisp_DIP204spi::init()
    lib.o(i._ZN17cHwDisp_DIP204spiC1ERN12cHwSPImaster6DeviceE) refers to lib.o(.constdata__ZTV17cHwDisp_DIP204spi) for vtable for cHwDisp_DIP204spi
    lib.o(i._ZN17cHwDisplayGraphic11gotoTextPosEhh) refers to lib.o(i._ZNK14cHwDisplayFont12getCharWidthEv) for cHwDisplayFont::getCharWidth() const
    lib.o(i._ZN17cHwDisplayGraphic11gotoTextPosEhh) refers to lib.o(i._ZNK14cHwDisplayFont13getCharHeightEv) for cHwDisplayFont::getCharHeight() const
    lib.o(i._ZN17cHwDisplayGraphic7putCharEc) refers to lib.o(i._ZN14cHwDisplayFont7setCharEh) for cHwDisplayFont::setChar(unsigned char)
    lib.o(i._ZN17cHwDisplayGraphic7putCharEc) refers to lib.o(i._ZNK14cHwDisplayFont13getCharHeightEv) for cHwDisplayFont::getCharHeight() const
    lib.o(i._ZN17cHwDisplayGraphic7putCharEc) refers to lib.o(i._ZNK14cHwDisplayFont12getCharWidthEv) for cHwDisplayFont::getCharWidth() const
    lib.o(i._ZN17cHwDisplayGraphic7putCharEc) refers to lib.o(i._ZN14cHwDisplayFont8getPixelEhh) for cHwDisplayFont::getPixel(unsigned char, unsigned char)
    lib.o(i._ZN17cHwDisplayGraphicC2E14cHwDisplayFonth) refers to lib.o(i._ZN10cHwDisplayC2Ehh) for cHwDisplay::cHwDisplay__sub_object(unsigned char, unsigned char)
    lib.o(i._ZN17cHwDisplayGraphicC2E14cHwDisplayFonth) refers to lib.o(.constdata__ZTV17cHwDisplayGraphic) for vtable for cHwDisplayGraphic
    lib.o(i._ZN17cHwI2Cmaster_Emul4waitEv) refers to lib.o(i._ZN7cSystem13delayMicroSecEt) for cSystem::delayMicroSec(unsigned short)
    lib.o(i._ZN17cHwI2Cmaster_EmulC1ERN7cHwPort3PinES2_N12cHwI2Cmaster4MODEE) refers to lib.o(i._ZN12cHwI2CmasterC2Eh) for cHwI2Cmaster::cHwI2Cmaster__sub_object(unsigned char)
    lib.o(i._ZN17cHwI2Cmaster_EmulC1ERN7cHwPort3PinES2_N12cHwI2Cmaster4MODEE) refers to lib.o(.constdata__ZTV17cHwI2Cmaster_Emul) for vtable for cHwI2Cmaster_Emul
    lib.o(i._ZN17cHwSensAcc_LSM303C1ER12cHwI2Cmaster) refers to lib.o(i._ZN12cHwI2Cmaster6DeviceC1ERS_h) for cHwI2Cmaster::Device::Device(cHwI2Cmaster&, unsigned char)
    lib.o(i._ZN17cHwSensAcc_LSM303C1ER12cHwI2Cmaster) refers to lib.o(i._ZN12cHwI2Cmaster6Device5writeEhh) for cHwI2Cmaster::Device::write(unsigned char, unsigned char)
    lib.o(i._ZN17cHwSensAcc_LSM303C1ER12cHwI2Cmaster) refers to lib.o(.constdata__ZTV17cHwSensAcc_LSM303) for vtable for cHwSensAcc_LSM303
    lib.o(i._ZN17cHwSensMag_LSM303C1ER12cHwI2Cmaster) refers to lib.o(i._ZN12cHwI2Cmaster6DeviceC1ERS_h) for cHwI2Cmaster::Device::Device(cHwI2Cmaster&, unsigned char)
    lib.o(i._ZN17cHwSensMag_LSM303C1ER12cHwI2Cmaster) refers to lib.o(i._ZN12cHwI2Cmaster6Device5writeEhh) for cHwI2Cmaster::Device::write(unsigned char, unsigned char)
    lib.o(i._ZN17cHwSensMag_LSM303C1ER12cHwI2Cmaster) refers to lib.o(.constdata__ZTV17cHwSensMag_LSM303) for vtable for cHwSensMag_LSM303
    lib.o(i._ZN18cDevControlEncoder3getEv) refers to lib.o(i._ZN7cSystem16disableInterruptEv) for cSystem::disableInterrupt()
    lib.o(i._ZN18cDevControlEncoder3getEv) refers to lib.o(i._ZN7cSystem15enableInterruptEv) for cSystem::enableInterrupt()
    lib.o(i._ZN18cDevControlEncoder6updateEv) refers to lib.o(t._ZN5cFifoIN18cDevControlEncoder6tEventEE6isFullEv) for cFifo<cDevControlEncoder::tEvent>::isFull()
    lib.o(i._ZN18cDevControlEncoder6updateEv) refers to lib.o(t._ZN5cFifoIN18cDevControlEncoder6tEventEElsERKS1_) for cFifo<cDevControlEncoder::tEvent>::operator <<(const cDevControlEncoder::tEvent&)
    lib.o(i._ZN18cDevControlEncoderC2EP11cDevDigitalP8cHwTimer) refers to lib.o(i._ZN5cList4ItemC1EPS_) for cList::Item::Item(cList*)
    lib.o(i._ZN18cDevControlEncoderC2EP11cDevDigitalP8cHwTimer) refers to lib.o(i._Znaj) for operator new[] (unsigned)
    lib.o(i._ZN18cDevControlEncoderC2EP11cDevDigitalP8cHwTimer) refers to lib.o(.constdata__ZTV18cDevControlEncoder) for vtable for cDevControlEncoder
    lib.o(i._ZN18cDevControlPointerC1ER8cHwTouch) refers to lib.o(.constdata__ZTV18cDevControlPointer) for vtable for cDevControlPointer
    lib.o(i._ZN18cDevDisplayGraphic10drawCircleEtttt) refers to fflt_clz.o(x$fpl$ffltu) for __aeabi_ui2f
    lib.o(i._ZN18cDevDisplayGraphic10drawCircleEtttt) refers to fmul.o(x$fpl$fmul) for __aeabi_fmul
    lib.o(i._ZN18cDevDisplayGraphic10drawCircleEtttt) refers to faddsub_clz.o(x$fpl$fsub) for __aeabi_fsub
    lib.o(i._ZN18cDevDisplayGraphic10drawCircleEtttt) refers to sqrtf.o(i.sqrtf) for sqrtf
    lib.o(i._ZN18cDevDisplayGraphic10drawCircleEtttt) refers to ffix.o(x$fpl$ffix) for __aeabi_f2iz
    lib.o(i._ZN18cDevDisplayGraphic6printfEhhhPKcz) refers to c89vsprintf.o(.text) for __c89vsprintf
    lib.o(i._ZN18cDevDisplayGraphic8drawTextEtthPKcz) refers to c89vsprintf.o(.text) for __c89vsprintf
    lib.o(i._ZN18cDevDisplayGraphicC1ER17cHwDisplayGraphic) refers to lib.o(i._ZN11cDevDisplayC2Ev) for cDevDisplay::cDevDisplay__sub_object()
    lib.o(i._ZN18cDevDisplayGraphicC1ER17cHwDisplayGraphic) refers to lib.o(i._ZN18cDevDisplayGraphic5clearEv) for cDevDisplayGraphic::clear()
    lib.o(i._ZN18cDevDisplayGraphicC1ER17cHwDisplayGraphic) refers to lib.o(.constdata__ZTV18cDevDisplayGraphic) for vtable for cDevDisplayGraphic
    lib.o(i._ZN18cHwDisp_ILI9341spi4initEv) refers to lib.o(i._ZN7cSystem13delayMilliSecEt) for cSystem::delayMilliSec(unsigned short)
    lib.o(i._ZN18cHwDisp_ILI9341spi4initEv) refers to lib.o(i._ZN18cHwDisp_ILI9341spi8writeCmdEh) for cHwDisp_ILI9341spi::writeCmd(unsigned char)
    lib.o(i._ZN18cHwDisp_ILI9341spi4initEv) refers to lib.o(i._ZN18cHwDisp_ILI9341spi8writeDatEh) for cHwDisp_ILI9341spi::writeDat(unsigned char)
    lib.o(i._ZN18cHwDisp_ILI9341spi7setAreaEtttt) refers to lib.o(i._ZN18cHwDisp_ILI9341spi8writeCmdEh) for cHwDisp_ILI9341spi::writeCmd(unsigned char)
    lib.o(i._ZN18cHwDisp_ILI9341spi7setAreaEtttt) refers to lib.o(i._ZN18cHwDisp_ILI9341spi12writeDatWordEt) for cHwDisp_ILI9341spi::writeDatWord(unsigned short)
    lib.o(i._ZN18cHwDisp_ILI9341spi8setPixelEt) refers to lib.o(i._ZN18cHwDisp_ILI9341spi12writeDatWordEt) for cHwDisp_ILI9341spi::writeDatWord(unsigned short)
    lib.o(i._ZN18cHwDisp_ILI9341spi8setPixelEttt) refers to lib.o(i._ZN18cHwDisp_ILI9341spi8writeCmdEh) for cHwDisp_ILI9341spi::writeCmd(unsigned char)
    lib.o(i._ZN18cHwDisp_ILI9341spi8setPixelEttt) refers to lib.o(i._ZN18cHwDisp_ILI9341spi12writeDatWordEt) for cHwDisp_ILI9341spi::writeDatWord(unsigned short)
    lib.o(i._ZN18cHwDisp_ILI9341spiC1ERN12cHwSPImaster6DeviceERN7cHwPort3PinE14cHwDisplayFonth) refers to lib.o(i._ZN17cHwDisplayGraphicC2E14cHwDisplayFonth) for cHwDisplayGraphic::cHwDisplayGraphic__sub_object(cHwDisplayFont, unsigned char)
    lib.o(i._ZN18cHwDisp_ILI9341spiC1ERN12cHwSPImaster6DeviceERN7cHwPort3PinE14cHwDisplayFonth) refers to lib.o(i._ZN12cHwSPImaster6DeviceC1ERKS0_) for cHwSPImaster::Device::Device(const cHwSPImaster::Device&)
    lib.o(i._ZN18cHwDisp_ILI9341spiC1ERN12cHwSPImaster6DeviceERN7cHwPort3PinE14cHwDisplayFonth) refers to lib.o(i._ZN18cHwDisp_ILI9341spi4initEv) for cHwDisp_ILI9341spi::init()
    lib.o(i._ZN18cHwDisp_ILI9341spiC1ERN12cHwSPImaster6DeviceERN7cHwPort3PinE14cHwDisplayFonth) refers to lib.o(.constdata__ZTV18cHwDisp_ILI9341spi) for vtable for cHwDisp_ILI9341spi
    lib.o(i._ZN18cHwSensGyro_L3GD20C1ER12cHwI2Cmasterh) refers to lib.o(i._ZN12cHwI2Cmaster6DeviceC1ERS_h) for cHwI2Cmaster::Device::Device(cHwI2Cmaster&, unsigned char)
    lib.o(i._ZN18cHwSensGyro_L3GD20C1ER12cHwI2Cmasterh) refers to lib.o(i._ZN12cHwI2Cmaster6Device5writeEhh) for cHwI2Cmaster::Device::write(unsigned char, unsigned char)
    lib.o(i._ZN18cHwSensGyro_L3GD20C1ER12cHwI2Cmasterh) refers to lib.o(.constdata__ZTV18cHwSensGyro_L3GD20) for vtable for cHwSensGyro_L3GD20
    lib.o(i._ZN20cDevAnalogOutPWMemul6setRawEt) refers to lib.o(i._ZN7cSystem16disableInterruptEv) for cSystem::disableInterrupt()
    lib.o(i._ZN20cDevAnalogOutPWMemul6setRawEt) refers to lib.o(i._ZN7cSystem15enableInterruptEv) for cSystem::enableInterrupt()
    lib.o(i._ZN20cDevAnalogOutPWMemul6updateEv) refers to lib.o(i._ZN7cSystem16disableInterruptEv) for cSystem::disableInterrupt()
    lib.o(i._ZN20cDevAnalogOutPWMemul6updateEv) refers to lib.o(i._ZN7cSystem15enableInterruptEv) for cSystem::enableInterrupt()
    lib.o(i._ZN20cDevAnalogOutPWMemulC1ER8cHwTimerR11cDevDigitalhff) refers to lib.o(i._ZN13cDevAnalogOutC2Ehff) for cDevAnalogOut::cDevAnalogOut__sub_object(unsigned char, float, float)
    lib.o(i._ZN20cDevAnalogOutPWMemulC1ER8cHwTimerR11cDevDigitalhff) refers to lib.o(i._ZN5cList4ItemC1EPS_) for cList::Item::Item(cList*)
    lib.o(i._ZN20cDevAnalogOutPWMemulC1ER8cHwTimerR11cDevDigitalhff) refers to lib.o(.constdata__ZTV20cDevAnalogOutPWMemul) for vtable for cDevAnalogOutPWMemul
    lib.o(i._ZN20cDevDigitalIndicatorC1ER11cDevDigitalR8cHwTimer) refers to lib.o(i._ZN5cList4ItemC1EPS_) for cList::Item::Item(cList*)
    lib.o(i._ZN20cDevDigitalIndicatorC1ER11cDevDigitalR8cHwTimer) refers to lib.o(i._ZN20cDevDigitalIndicator3clrEv) for cDevDigitalIndicator::clr()
    lib.o(i._ZN20cDevDigitalIndicatorC1ER11cDevDigitalR8cHwTimer) refers to lib.o(.constdata__ZTV20cDevDigitalIndicator) for vtable for cDevDigitalIndicator
    lib.o(i._ZN20cHwDisp_SPFD5408Bspi4initEv) refers to lib.o(i._ZN7cSystem13delayMilliSecEt) for cSystem::delayMilliSec(unsigned short)
    lib.o(i._ZN20cHwDisp_SPFD5408Bspi4initEv) refers to lib.o(i._ZN20cHwDisp_SPFD5408Bspi8writeRegEht) for cHwDisp_SPFD5408Bspi::writeReg(unsigned char, unsigned short)
    lib.o(i._ZN20cHwDisp_SPFD5408Bspi4initEv) refers to lib.o(i._ZN20cHwDisp_SPFD5408Bspi9maxWindowEv) for cHwDisp_SPFD5408Bspi::maxWindow()
    lib.o(i._ZN20cHwDisp_SPFD5408BspiC1ERN12cHwSPImaster6DeviceERN7cHwPort3PinE14cHwDisplayFonth) refers to lib.o(i._ZN17cHwDisplayGraphicC2E14cHwDisplayFonth) for cHwDisplayGraphic::cHwDisplayGraphic__sub_object(cHwDisplayFont, unsigned char)
    lib.o(i._ZN20cHwDisp_SPFD5408BspiC1ERN12cHwSPImaster6DeviceERN7cHwPort3PinE14cHwDisplayFonth) refers to lib.o(i._ZN12cHwSPImaster6DeviceC1ERKS0_) for cHwSPImaster::Device::Device(const cHwSPImaster::Device&)
    lib.o(i._ZN20cHwDisp_SPFD5408BspiC1ERN12cHwSPImaster6DeviceERN7cHwPort3PinE14cHwDisplayFonth) refers to lib.o(i._ZN20cHwDisp_SPFD5408Bspi4initEv) for cHwDisp_SPFD5408Bspi::init()
    lib.o(i._ZN20cHwDisp_SPFD5408BspiC1ERN12cHwSPImaster6DeviceERN7cHwPort3PinE14cHwDisplayFonth) refers to lib.o(.constdata__ZTV20cHwDisp_SPFD5408Bspi) for vtable for cHwDisp_SPFD5408Bspi
    lib.o(i._ZN20cHwEthernet_Enc28j6010PacketSendEPht) refers to lib.o(i._ZN20cHwEthernet_Enc28j609WriteWordEht) for cHwEthernet_Enc28j60::WriteWord(unsigned char, unsigned short)
    lib.o(i._ZN20cHwEthernet_Enc28j6010PacketSendEPht) refers to lib.o(i._ZN20cHwEthernet_Enc28j607WriteOpEhhh) for cHwEthernet_Enc28j60::WriteOp(unsigned char, unsigned char, unsigned char)
    lib.o(i._ZN20cHwEthernet_Enc28j6010PacketSendEPht) refers to lib.o(i._ZN20cHwEthernet_Enc28j6011WriteBufferEtPh) for cHwEthernet_Enc28j60::WriteBuffer(unsigned short, unsigned char*)
    lib.o(i._ZN20cHwEthernet_Enc28j6010PacketSendEPht) refers to lib.o(i._ZN20cHwEthernet_Enc28j604ReadEh) for cHwEthernet_Enc28j60::Read(unsigned char)
    lib.o(i._ZN20cHwEthernet_Enc28j6010PacketSendEPht) refers to lib.o(i._ZN20cHwEthernet_Enc28j604InitERK8cNetAddrILh6EE) for cHwEthernet_Enc28j60::Init(const cNetAddr<(unsigned char)6>&)
    lib.o(i._ZN20cHwEthernet_Enc28j6010PacketSendEPht) refers to lib.o(i._ZN7cSystem13delayMilliSecEt) for cSystem::delayMilliSec(unsigned short)
    lib.o(i._ZN20cHwEthernet_Enc28j6010PacketSendEPht) refers to lib.o(i._ZN20cHwEthernet_Enc28j607InitPhyEv) for cHwEthernet_Enc28j60::InitPhy()
    lib.o(i._ZN20cHwEthernet_Enc28j6010ReadBufferEtPh) refers to lib.o(i._ZN12cHwSPImaster6Device5startEv) for cHwSPImaster::Device::start()
    lib.o(i._ZN20cHwEthernet_Enc28j6010ReadBufferEtPh) refers to lib.o(i._ZN12cHwSPImaster6Device4stopEv) for cHwSPImaster::Device::stop()
    lib.o(i._ZN20cHwEthernet_Enc28j6011WriteBufferEtPh) refers to lib.o(i._ZN12cHwSPImaster6Device5startEv) for cHwSPImaster::Device::start()
    lib.o(i._ZN20cHwEthernet_Enc28j6011WriteBufferEtPh) refers to lib.o(i._ZN12cHwSPImaster6Device4stopEv) for cHwSPImaster::Device::stop()
    lib.o(i._ZN20cHwEthernet_Enc28j6013PacketReceiveEv) refers to lib.o(i._ZN20cHwEthernet_Enc28j604ReadEh) for cHwEthernet_Enc28j60::Read(unsigned char)
    lib.o(i._ZN20cHwEthernet_Enc28j6013PacketReceiveEv) refers to lib.o(i._ZN20cHwEthernet_Enc28j609WriteWordEht) for cHwEthernet_Enc28j60::WriteWord(unsigned char, unsigned short)
    lib.o(i._ZN20cHwEthernet_Enc28j6013PacketReceiveEv) refers to lib.o(i._ZN20cHwEthernet_Enc28j606ReadOpEhh) for cHwEthernet_Enc28j60::ReadOp(unsigned char, unsigned char)
    lib.o(i._ZN20cHwEthernet_Enc28j6013PacketReceiveEv) refers to lib.o(i._ZN20cHwEthernet_Enc28j6010ReadBufferEtPh) for cHwEthernet_Enc28j60::ReadBuffer(unsigned short, unsigned char*)
    lib.o(i._ZN20cHwEthernet_Enc28j6013PacketReceiveEv) refers to lib.o(i._ZN20cHwEthernet_Enc28j607WriteOpEhhh) for cHwEthernet_Enc28j60::WriteOp(unsigned char, unsigned char, unsigned char)
    lib.o(i._ZN20cHwEthernet_Enc28j604InitERK8cNetAddrILh6EE) refers to lib.o(i._ZN20cHwEthernet_Enc28j607WriteOpEhhh) for cHwEthernet_Enc28j60::WriteOp(unsigned char, unsigned char, unsigned char)
    lib.o(i._ZN20cHwEthernet_Enc28j604InitERK8cNetAddrILh6EE) refers to lib.o(i._ZN7cSystem13delayMilliSecEt) for cSystem::delayMilliSec(unsigned short)
    lib.o(i._ZN20cHwEthernet_Enc28j604InitERK8cNetAddrILh6EE) refers to lib.o(i._ZN20cHwEthernet_Enc28j609WriteWordEht) for cHwEthernet_Enc28j60::WriteWord(unsigned char, unsigned short)
    lib.o(i._ZN20cHwEthernet_Enc28j604InitERK8cNetAddrILh6EE) refers to lib.o(i._ZN20cHwEthernet_Enc28j609WriteByteEhh) for cHwEthernet_Enc28j60::WriteByte(unsigned char, unsigned char)
    lib.o(i._ZN20cHwEthernet_Enc28j604InitERK8cNetAddrILh6EE) refers to lib.o(i._ZN20cHwEthernet_Enc28j608PhyWriteEht) for cHwEthernet_Enc28j60::PhyWrite(unsigned char, unsigned short)
    lib.o(i._ZN20cHwEthernet_Enc28j604InitERK8cNetAddrILh6EE) refers to lib.o(i._ZN20cHwEthernet_Enc28j607SetBankEh) for cHwEthernet_Enc28j60::SetBank(unsigned char)
    lib.o(i._ZN20cHwEthernet_Enc28j604ReadEh) refers to lib.o(i._ZN20cHwEthernet_Enc28j607SetBankEh) for cHwEthernet_Enc28j60::SetBank(unsigned char)
    lib.o(i._ZN20cHwEthernet_Enc28j604ReadEh) refers to lib.o(i._ZN20cHwEthernet_Enc28j606ReadOpEhh) for cHwEthernet_Enc28j60::ReadOp(unsigned char, unsigned char)
    lib.o(i._ZN20cHwEthernet_Enc28j606createE8cNetAddrILh6EEt) refers to lib.o(t._ZN8cNetTYPEItEaSEt) for cNetTYPE<unsigned short>::operator =(unsigned short)
    lib.o(i._ZN20cHwEthernet_Enc28j606getrevEv) refers to lib.o(i._ZN20cHwEthernet_Enc28j604ReadEh) for cHwEthernet_Enc28j60::Read(unsigned char)
    lib.o(i._ZN20cHwEthernet_Enc28j607InitPhyEv) refers to lib.o(i._ZN20cHwEthernet_Enc28j608PhyWriteEht) for cHwEthernet_Enc28j60::PhyWrite(unsigned char, unsigned short)
    lib.o(i._ZN20cHwEthernet_Enc28j607InitPhyEv) refers to lib.o(i._ZN7cSystem13delayMilliSecEt) for cSystem::delayMilliSec(unsigned short)
    lib.o(i._ZN20cHwEthernet_Enc28j607SetBankEh) refers to lib.o(i._ZN20cHwEthernet_Enc28j607WriteOpEhhh) for cHwEthernet_Enc28j60::WriteOp(unsigned char, unsigned char, unsigned char)
    lib.o(i._ZN20cHwEthernet_Enc28j607getTypeEv) refers to lib.o(t._ZN8cNetTYPEItEcvtEv) for cNetTYPE<unsigned short>::operator unsigned short()
    lib.o(i._ZN20cHwEthernet_Enc28j608PhyWriteEht) refers to lib.o(i._ZN20cHwEthernet_Enc28j609WriteByteEhh) for cHwEthernet_Enc28j60::WriteByte(unsigned char, unsigned char)
    lib.o(i._ZN20cHwEthernet_Enc28j608PhyWriteEht) refers to lib.o(i._ZN20cHwEthernet_Enc28j609WriteWordEht) for cHwEthernet_Enc28j60::WriteWord(unsigned char, unsigned short)
    lib.o(i._ZN20cHwEthernet_Enc28j608PhyWriteEht) refers to lib.o(i._ZN7cSystem13delayMicroSecEt) for cSystem::delayMicroSec(unsigned short)
    lib.o(i._ZN20cHwEthernet_Enc28j608PhyWriteEht) refers to lib.o(i._ZN20cHwEthernet_Enc28j604ReadEh) for cHwEthernet_Enc28j60::Read(unsigned char)
    lib.o(i._ZN20cHwEthernet_Enc28j609WriteByteEhh) refers to lib.o(i._ZN20cHwEthernet_Enc28j607SetBankEh) for cHwEthernet_Enc28j60::SetBank(unsigned char)
    lib.o(i._ZN20cHwEthernet_Enc28j609WriteByteEhh) refers to lib.o(i._ZN20cHwEthernet_Enc28j607WriteOpEhhh) for cHwEthernet_Enc28j60::WriteOp(unsigned char, unsigned char, unsigned char)
    lib.o(i._ZN20cHwEthernet_Enc28j609WriteWordEht) refers to lib.o(i._ZN20cHwEthernet_Enc28j607SetBankEh) for cHwEthernet_Enc28j60::SetBank(unsigned char)
    lib.o(i._ZN20cHwEthernet_Enc28j609WriteWordEht) refers to lib.o(i._ZN20cHwEthernet_Enc28j607WriteOpEhhh) for cHwEthernet_Enc28j60::WriteOp(unsigned char, unsigned char, unsigned char)
    lib.o(i._ZN20cHwEthernet_Enc28j60C1ERK8cNetAddrILh6EERN12cHwSPImaster6DeviceE) refers to lib.o(i._ZN11cHwEthernetC2ERK8cNetAddrILh6EE) for cHwEthernet::cHwEthernet__sub_object(const cNetAddr<(unsigned char)6>&)
    lib.o(i._ZN20cHwEthernet_Enc28j60C1ERK8cNetAddrILh6EERN12cHwSPImaster6DeviceE) refers to lib.o(i._ZN20cHwEthernet_Enc28j604InitERK8cNetAddrILh6EE) for cHwEthernet_Enc28j60::Init(const cNetAddr<(unsigned char)6>&)
    lib.o(i._ZN20cHwEthernet_Enc28j60C1ERK8cNetAddrILh6EERN12cHwSPImaster6DeviceE) refers to lib.o(i._ZN7cSystem13delayMilliSecEt) for cSystem::delayMilliSec(unsigned short)
    lib.o(i._ZN20cHwEthernet_Enc28j60C1ERK8cNetAddrILh6EERN12cHwSPImaster6DeviceE) refers to lib.o(i._ZN20cHwEthernet_Enc28j607InitPhyEv) for cHwEthernet_Enc28j60::InitPhy()
    lib.o(i._ZN20cHwEthernet_Enc28j60C1ERK8cNetAddrILh6EERN12cHwSPImaster6DeviceE) refers to lib.o(.constdata__ZTV20cHwEthernet_Enc28j60) for vtable for cHwEthernet_Enc28j60
    lib.o(i._ZN20cHwTouch_STMPE811i2c6updateEv) refers to lib.o(i._ZN12cHwI2Cmaster6Device4readEh) for cHwI2Cmaster::Device::read(unsigned char)
    lib.o(i._ZN20cHwTouch_STMPE811i2c6updateEv) refers to lib.o(i._ZN12cHwI2Cmaster6Device4readEhPhh) for cHwI2Cmaster::Device::read(unsigned char, unsigned char*, unsigned char)
    lib.o(i._ZN20cHwTouch_STMPE811i2c6updateEv) refers to lib.o(i._ZN12cHwI2Cmaster6Device5writeEhh) for cHwI2Cmaster::Device::write(unsigned char, unsigned char)
    lib.o(i._ZN20cHwTouch_STMPE811i2c6updateEv) refers to lib.o(i._ZN12cHwI2Cmaster6Device7isErrorEv) for cHwI2Cmaster::Device::isError()
    lib.o(i._ZN20cHwTouch_STMPE811i2c6updateEv) refers to lib.o(t._Z5RANGEIiET_S0_S0_S0_) for RANGE<int>(T1, T1, T1)
    lib.o(i._ZN20cHwTouch_STMPE811i2cC1ER12cHwI2Cmasterhtt) refers to lib.o(i._ZN8cHwTouchC2Ett) for cHwTouch::cHwTouch__sub_object(unsigned short, unsigned short)
    lib.o(i._ZN20cHwTouch_STMPE811i2cC1ER12cHwI2Cmasterhtt) refers to lib.o(i._ZN12cHwI2Cmaster6DeviceC1ERS_h) for cHwI2Cmaster::Device::Device(cHwI2Cmaster&, unsigned char)
    lib.o(i._ZN20cHwTouch_STMPE811i2cC1ER12cHwI2Cmasterhtt) refers to lib.o(i._ZN12cHwI2Cmaster6Device5writeEhh) for cHwI2Cmaster::Device::write(unsigned char, unsigned char)
    lib.o(i._ZN20cHwTouch_STMPE811i2cC1ER12cHwI2Cmasterhtt) refers to lib.o(i._ZN7cSystem13delayMilliSecEt) for cSystem::delayMilliSec(unsigned short)
    lib.o(i._ZN20cHwTouch_STMPE811i2cC1ER12cHwI2Cmasterhtt) refers to lib.o(.constdata__ZTV20cHwTouch_STMPE811i2c) for vtable for cHwTouch_STMPE811i2c
    lib.o(i._ZN26cDevControlEncoderJoystickC1EP11cDevDigitalS1_S1_P8cHwTimert) refers to lib.o(i._ZN18cDevControlEncoderC2EP11cDevDigitalP8cHwTimer) for cDevControlEncoder::cDevControlEncoder__sub_object(cDevDigital*, cHwTimer*)
    lib.o(i._ZN26cDevControlEncoderJoystickC1EP11cDevDigitalS1_S1_P8cHwTimert) refers to lib.o(.constdata__ZTV26cDevControlEncoderJoystick) for vtable for cDevControlEncoderJoystick
    lib.o(i._ZN28cDevControlEncoderRotaryKnobC1EP11cDevDigitalS1_S1_P8cHwTimer) refers to lib.o(i._ZN18cDevControlEncoderC2EP11cDevDigitalP8cHwTimer) for cDevControlEncoder::cDevControlEncoder__sub_object(cDevDigital*, cHwTimer*)
    lib.o(i._ZN28cDevControlEncoderRotaryKnobC1EP11cDevDigitalS1_S1_P8cHwTimer) refers to lib.o(.constdata__ZTV28cDevControlEncoderRotaryKnob) for vtable for cDevControlEncoderRotaryKnob
    lib.o(i._ZN4cCRCC1ENS_4MODEEtt) refers to lib.o(i._Znaj) for operator new[] (unsigned)
    lib.o(i._ZN4cCRCC1ENS_4MODEEtt) refers to lib.o(i._ZN4cCRC9tabMethodEh) for cCRC::tabMethod(unsigned char)
    lib.o(i._ZN4cCRCD1Ev) refers to h1_free.o(.text) for free
    lib.o(i._ZN4cCRCclEPKhj) refers to lib.o(i._ZN4cCRC9tabMethodEh) for cCRC::tabMethod(unsigned char)
    lib.o(i._ZN4cCRCclEh) refers to lib.o(i._ZN4cCRC9tabMethodEh) for cCRC::tabMethod(unsigned char)
    lib.o(i._ZN5cList4Item7getPrevERS_) refers to lib.o(i._ZN5cList8getFirstEv) for cList::getFirst()
    lib.o(i._ZN5cList4Item7getPrevERS_) refers to lib.o(i._ZN5cList4Item7getNextEv) for cList::Item::getNext()
    lib.o(i._ZN5cList4ItemC1EPS_) refers to lib.o(i._ZN5cList3addEPNS_4ItemE) for cList::add(cList::Item*)
    lib.o(i._ZN5cList4ItemC1EPS_) refers to lib.o(.constdata__ZTVN5cList4ItemE) for vtable for cList::Item
    lib.o(i._ZN6cHwADCC2EhP8cHwTimer) refers to lib.o(i._ZN5cList4ItemC1EPS_) for cList::Item::Item(cList*)
    lib.o(i._ZN6cHwADCC2EhP8cHwTimer) refers to lib.o(i._Znaj) for operator new[] (unsigned)
    lib.o(i._ZN6cHwADCC2EhP8cHwTimer) refers to lib.o(.constdata__ZTV6cHwADC) for vtable for cHwADC
    lib.o(i._ZN6cHwDACC2Eh) refers to lib.o(.constdata__ZTV6cHwDAC) for vtable for cHwDAC
    lib.o(i._ZN6cHwRTCC2Ev) refers to lib.o(.constdata__ZTV6cHwRTC) for vtable for cHwRTC
    lib.o(i._ZN6cHwUSB12eventHandlerEhh) refers to lib.o(i._ZN10cHwUSBctrl5setupEv) for cHwUSBctrl::setup()
    lib.o(i._ZN6cHwUSB12eventHandlerEhh) refers to lib.o(i._ZN10cHwUSBctrl3outEv) for cHwUSBctrl::out()
    lib.o(i._ZN6cHwUSB12eventHandlerEhh) refers to lib.o(i._ZN10cHwUSBctrl2inEv) for cHwUSBctrl::in()
    lib.o(i._ZN6cHwUSB12eventHandlerEhh) refers to lib.o(i._ZN14cHwUSBendpoint2inEv) for cHwUSBendpoint::in()
    lib.o(i._ZN6cHwUSB12eventHandlerEhh) refers to lib.o(i._ZN14cHwUSBendpoint3outEv) for cHwUSBendpoint::out()
    lib.o(i._ZN6cHwUSBC2ER10cHwUSBdesc) refers to lib.o(i._ZN10cHwUSBctrlC1ER6cHwUSB) for cHwUSBctrl::cHwUSBctrl(cHwUSB&)
    lib.o(i._ZN6cHwUSBC2ER10cHwUSBdesc) refers to lib.o(.constdata__ZTV6cHwUSB) for vtable for cHwUSB
    lib.o(i._ZN6cNetIP6createE8cNetAddrILh6EES0_ILh4EEtt) refers to lib.o(t._ZN8cNetTYPEItEaSEt) for cNetTYPE<unsigned short>::operator =(unsigned short)
    lib.o(i._ZN6cNetIP6createE8cNetAddrILh6EES0_ILh4EEtt) refers to lib.o(i._Z8ChecksumPhtj) for Checksum(unsigned char*, unsigned short, unsigned)
    lib.o(i._ZN6cNetIP7processEv) refers to lib.o(t._ZNK8cNetAddrILh4EEeqERKS0_) for cNetAddr<(unsigned char)4>::operator ==(const cNetAddr<(unsigned char)4>&) const
    lib.o(i._ZN6cNetIP7processEv) refers to lib.o(i._ZN8cNetICMP7processEv) for cNetICMP::process()
    lib.o(i._ZN6cNetIPC1ER11cHwEthernetRK8cNetAddrILh4EER8cHwTimer) refers to lib.o(i._ZN7cNetARPC1ER11cHwEthernetR8cNetAddrILh4EE) for cNetARP::cNetARP(cHwEthernet&, cNetAddr<(unsigned char)4>&)
    lib.o(i._ZN6cNetIPC1ER11cHwEthernetRK8cNetAddrILh4EER8cHwTimer) refers to lib.o(i._ZN5cList4ItemC1EPS_) for cList::Item::Item(cList*)
    lib.o(i._ZN6cNetIPC1ER11cHwEthernetRK8cNetAddrILh4EER8cHwTimer) refers to lib.o(i._ZN11cHwEthernet5setIPEP6cNetIP) for cHwEthernet::setIP(cNetIP*)
    lib.o(i._ZN6cNetIPC1ER11cHwEthernetRK8cNetAddrILh4EER8cHwTimer) refers to lib.o(.constdata__ZTVN6cNetIP13cTimeOutTimerE) for vtable for cNetIP::cTimeOutTimer
    lib.o(i._ZN6cTimer5startEtt) refers to lib.o(i._ZN6cTimer3setEtt) for cTimer::set(unsigned short, unsigned short)
    lib.o(i._ZN6cTimer5startEtt) refers to lib.o(i._ZN6cTimer5startEv) for cTimer::start()
    lib.o(i._ZN6cTimer7timeoutEtt) refers to lib.o(i._ZN6cTimer3setEtt) for cTimer::set(unsigned short, unsigned short)
    lib.o(i._ZN6cTimer7timeoutEtt) refers to lib.o(i._ZN6cTimer7timeoutEv) for cTimer::timeout()
    lib.o(i._ZN6cTimer7timeoutEv) refers to lib.o(i._ZN6cTimer5startEv) for cTimer::start()
    lib.o(i._ZN6cTimerC2Ev) refers to lib.o(.constdata__ZTV6cTimer) for vtable for cTimer
    lib.o(i._ZN7cHwPort3PinC1ERS_h) refers to lib.o(.constdata__ZTVN7cHwPort3PinE) for vtable for cHwPort::Pin
    lib.o(i._ZN7cHwPort3PinC1ERS_hNS_4ModeE) refers to lib.o(.constdata__ZTVN7cHwPort3PinE) for vtable for cHwPort::Pin
    lib.o(i._ZN7cHwUART12transmitByteEh) refers to lib.o(t._ZN5cFifoIhE6isFullEv) for cFifo<unsigned char>::isFull()
    lib.o(i._ZN7cHwUART12transmitByteEh) refers to lib.o(t._ZN5cFifoIhElsERKh) for cFifo<unsigned char>::operator <<(const unsigned char&)
    lib.o(i._ZN7cHwUART3getEPh) refers to lib.o(t._ZN5cFifoIhErsERh) for cFifo<unsigned char>::operator >>(unsigned char&)
    lib.o(i._ZN7cHwUARTC2Ehh) refers to lib.o(t._ZN5cFifoIhEC1Eh) for cFifo<unsigned char>::cFifo(unsigned char)
    lib.o(i._ZN7cHwUARTC2Ehh) refers to lib.o(.constdata__ZTV7cHwUART) for vtable for cHwUART
    lib.o(i._ZN7cNetARP7processEv) refers to lib.o(t._ZN8cNetTYPEItEcvtEv) for cNetTYPE<unsigned short>::operator unsigned short()
    lib.o(i._ZN7cNetARP7processEv) refers to lib.o(t._ZNK8cNetAddrILh4EEeqERKS0_) for cNetAddr<(unsigned char)4>::operator ==(const cNetAddr<(unsigned char)4>&) const
    lib.o(i._ZN7cNetARP7processEv) refers to lib.o(t._ZN8cNetTYPEItEaSEt) for cNetTYPE<unsigned short>::operator =(unsigned short)
    lib.o(i._ZN7cNetARP7requestER8cNetAddrILh4EE) refers to lib.o(t._ZN8cNetTYPEItEaSEt) for cNetTYPE<unsigned short>::operator =(unsigned short)
    lib.o(i._ZN7cNetARP7requestER8cNetAddrILh4EE) refers to lib.o(.constdata) for broadcastAddrPhy
    lib.o(i._ZN7cNetARPC1ER11cHwEthernetR8cNetAddrILh4EE) refers to lib.o(i._ZN11cHwEthernet6setARPEP7cNetARP) for cHwEthernet::setARP(cNetARP*)
    lib.o(i._ZN7cNetTCP6Socket4openE8cNetAddrILh4EEt) refers to lib.o(t._ZN8cNetTYPEItEaSEt) for cNetTYPE<unsigned short>::operator =(unsigned short)
    lib.o(i._ZN7cNetTCP6Socket4openE8cNetAddrILh4EEt) refers to lib.o(t._ZNK8cNetAddrILh4EEeqERKS0_) for cNetAddr<(unsigned char)4>::operator ==(const cNetAddr<(unsigned char)4>&) const
    lib.o(i._ZN7cNetTCP6Socket4openE8cNetAddrILh4EEt) refers to lib.o(t._ZNK8cNetAddrILh6EEeqERKS0_) for cNetAddr<(unsigned char)6>::operator ==(const cNetAddr<(unsigned char)6>&) const
    lib.o(i._ZN7cNetTCP6Socket4openE8cNetAddrILh4EEt) refers to lib.o(i._ZN7cNetTCP6createERNS_6SocketEt) for cNetTCP::create(cNetTCP::Socket&, unsigned short)
    lib.o(i._ZN7cNetTCP6Socket4openE8cNetAddrILh4EEt) refers to lib.o(i._ZN7cNetARP7requestER8cNetAddrILh4EE) for cNetARP::request(cNetAddr<(unsigned char)4>&)
    lib.o(i._ZN7cNetTCP6Socket4openE8cNetAddrILh4EEt) refers to lib.o(.constdata) for zeroAddrPhy
    lib.o(i._ZN7cNetTCP6Socket4sendEv) refers to lib.o(i._ZN7cNetTCP6createERNS_6SocketEt) for cNetTCP::create(cNetTCP::Socket&, unsigned short)
    lib.o(i._ZN7cNetTCP6Socket5closeEv) refers to lib.o(i._ZN7cNetTCP6createERNS_6SocketEt) for cNetTCP::create(cNetTCP::Socket&, unsigned short)
    lib.o(i._ZN7cNetTCP6Socket6updateEv) refers to lib.o(t._ZNK8cNetAddrILh6EEeqERKS0_) for cNetAddr<(unsigned char)6>::operator ==(const cNetAddr<(unsigned char)6>&) const
    lib.o(i._ZN7cNetTCP6Socket6updateEv) refers to lib.o(i._ZN7cNetTCP6createERNS_6SocketEt) for cNetTCP::create(cNetTCP::Socket&, unsigned short)
    lib.o(i._ZN7cNetTCP6Socket6updateEv) refers to lib.o(.constdata) for zeroAddrPhy
    lib.o(i._ZN7cNetTCP6Socket7isReadyEv) refers to lib.o(t._ZNK8cNetAddrILh4EEeqERKS0_) for cNetAddr<(unsigned char)4>::operator ==(const cNetAddr<(unsigned char)4>&) const
    lib.o(i._ZN7cNetTCP6Socket7isReadyEv) refers to lib.o(.constdata) for zeroAddr
    lib.o(i._ZN7cNetTCP6Socket7processEv) refers to lib.o(t._ZN8cNetTYPEIjEcvjEv) for cNetTYPE<unsigned>::operator unsigned()
    lib.o(i._ZN7cNetTCP6Socket7processEv) refers to lib.o(t._ZN8cNetTYPEItEcvtEv) for cNetTYPE<unsigned short>::operator unsigned short()
    lib.o(i._ZN7cNetTCP6Socket7processEv) refers to lib.o(i._ZN14cNetTCP_Header13getDataOffsetEv) for cNetTCP_Header::getDataOffset()
    lib.o(i._ZN7cNetTCP6Socket7processEv) refers to lib.o(i._ZN7cNetTCP6createERNS_6SocketEt) for cNetTCP::create(cNetTCP::Socket&, unsigned short)
    lib.o(i._ZN7cNetTCP6SocketC1ERS_R15cNetApplication8cNetAddrILh4EEtt) refers to lib.o(i._ZN13cNetTransport6SocketC2ERS_R15cNetApplication8cNetAddrILh4EEtt) for cNetTransport::Socket::Socket__sub_object(cNetTransport&, cNetApplication&, cNetAddr<(unsigned char)4>, unsigned short, unsigned short)
    lib.o(i._ZN7cNetTCP6SocketC1ERS_R15cNetApplication8cNetAddrILh4EEtt) refers to lib.o(.constdata__ZTVN7cNetTCP6SocketE) for vtable for cNetTCP::Socket
    lib.o(i._ZN7cNetTCP6createERNS_6SocketEt) refers to lib.o(t._ZN8cNetTYPEIjEaSEj) for cNetTYPE<unsigned>::operator =(unsigned)
    lib.o(i._ZN7cNetTCP6createERNS_6SocketEt) refers to lib.o(t._ZN8cNetTYPEItEaSEt) for cNetTYPE<unsigned short>::operator =(unsigned short)
    lib.o(i._ZN7cNetTCP6createERNS_6SocketEt) refers to lib.o(i._ZN14cNetTCP_Header13setDataOffsetEh) for cNetTCP_Header::setDataOffset(unsigned char)
    lib.o(i._ZN7cNetTCP6createERNS_6SocketEt) refers to lib.o(i._ZN6cNetIP6createE8cNetAddrILh6EES0_ILh4EEtt) for cNetIP::create(cNetAddr<(unsigned char)6>, cNetAddr<(unsigned char)4>, unsigned short, unsigned short)
    lib.o(i._ZN7cNetTCP6createERNS_6SocketEt) refers to lib.o(i._Z8ChecksumPhtj) for Checksum(unsigned char*, unsigned short, unsigned)
    lib.o(i._ZN7cNetTCP9handleARPE8cNetAddrILh4EES0_ILh6EE) refers to lib.o(i._ZN5cList8getFirstEv) for cList::getFirst()
    lib.o(i._ZN7cNetTCP9handleARPE8cNetAddrILh4EES0_ILh6EE) refers to lib.o(t._ZNK8cNetAddrILh4EEeqERKS0_) for cNetAddr<(unsigned char)4>::operator ==(const cNetAddr<(unsigned char)4>&) const
    lib.o(i._ZN7cNetTCP9handleARPE8cNetAddrILh4EES0_ILh6EE) refers to lib.o(i._ZN5cList4Item7getNextEv) for cList::Item::getNext()
    lib.o(i._ZN7cNetTCPC1ER6cNetIP) refers to lib.o(i._ZN13cNetTransportC2Ev) for cNetTransport::cNetTransport__sub_object()
    lib.o(i._ZN7cNetTCPC1ER6cNetIP) refers to lib.o(i._ZN7cNetARP6setTCPEP7cNetTCP) for cNetARP::setTCP(cNetTCP*)
    lib.o(i._ZN7cNetTCPC1ER6cNetIP) refers to lib.o(.constdata__ZTV7cNetTCP) for vtable for cNetTCP
    lib.o(i._ZN7cNetUDP6Socket4openE8cNetAddrILh4EEt) refers to lib.o(t._ZN8cNetTYPEItEaSEt) for cNetTYPE<unsigned short>::operator =(unsigned short)
    lib.o(i._ZN7cNetUDP6Socket4openE8cNetAddrILh4EEt) refers to lib.o(t._ZNK8cNetAddrILh4EEeqERKS0_) for cNetAddr<(unsigned char)4>::operator ==(const cNetAddr<(unsigned char)4>&) const
    lib.o(i._ZN7cNetUDP6Socket4openE8cNetAddrILh4EEt) refers to lib.o(i._ZN7cNetARP7requestER8cNetAddrILh4EE) for cNetARP::request(cNetAddr<(unsigned char)4>&)
    lib.o(i._ZN7cNetUDP6Socket4openE8cNetAddrILh4EEt) refers to lib.o(.constdata) for broadcastAddr
    lib.o(i._ZN7cNetUDP6Socket4sendEv) refers to lib.o(i._ZN7cNetUDP6createERNS_6SocketEt) for cNetUDP::create(cNetUDP::Socket&, unsigned short)
    lib.o(i._ZN7cNetUDP6Socket6updateEv) refers to lib.o(t._ZNK8cNetAddrILh6EEeqERKS0_) for cNetAddr<(unsigned char)6>::operator ==(const cNetAddr<(unsigned char)6>&) const
    lib.o(i._ZN7cNetUDP6Socket6updateEv) refers to lib.o(.constdata) for zeroAddrPhy
    lib.o(i._ZN7cNetUDP6Socket7isReadyEv) refers to lib.o(t._ZNK8cNetAddrILh4EEeqERKS0_) for cNetAddr<(unsigned char)4>::operator ==(const cNetAddr<(unsigned char)4>&) const
    lib.o(i._ZN7cNetUDP6Socket7isReadyEv) refers to lib.o(.constdata) for zeroAddr
    lib.o(i._ZN7cNetUDP6Socket7processEv) refers to lib.o(t._ZN8cNetTYPEItEcvtEv) for cNetTYPE<unsigned short>::operator unsigned short()
    lib.o(i._ZN7cNetUDP6Socket7processEv) refers to lib.o(t._ZNK8cNetAddrILh4EEeqERKS0_) for cNetAddr<(unsigned char)4>::operator ==(const cNetAddr<(unsigned char)4>&) const
    lib.o(i._ZN7cNetUDP6Socket7processEv) refers to lib.o(.constdata) for broadcastAddr
    lib.o(i._ZN7cNetUDP6SocketC1ERS_R15cNetApplication8cNetAddrILh4EEtt) refers to lib.o(i._ZN13cNetTransport6SocketC2ERS_R15cNetApplication8cNetAddrILh4EEtt) for cNetTransport::Socket::Socket__sub_object(cNetTransport&, cNetApplication&, cNetAddr<(unsigned char)4>, unsigned short, unsigned short)
    lib.o(i._ZN7cNetUDP6SocketC1ERS_R15cNetApplication8cNetAddrILh4EEtt) refers to lib.o(.constdata__ZTVN7cNetUDP6SocketE) for vtable for cNetUDP::Socket
    lib.o(i._ZN7cNetUDP6createERNS_6SocketEt) refers to lib.o(t._ZN8cNetTYPEItEaSEt) for cNetTYPE<unsigned short>::operator =(unsigned short)
    lib.o(i._ZN7cNetUDP6createERNS_6SocketEt) refers to lib.o(i._ZN6cNetIP6createE8cNetAddrILh6EES0_ILh4EEtt) for cNetIP::create(cNetAddr<(unsigned char)6>, cNetAddr<(unsigned char)4>, unsigned short, unsigned short)
    lib.o(i._ZN7cNetUDP6createERNS_6SocketEt) refers to lib.o(i._Z8ChecksumPhtj) for Checksum(unsigned char*, unsigned short, unsigned)
    lib.o(i._ZN7cNetUDP9handleARPE8cNetAddrILh4EES0_ILh6EE) refers to lib.o(i._ZN5cList8getFirstEv) for cList::getFirst()
    lib.o(i._ZN7cNetUDP9handleARPE8cNetAddrILh4EES0_ILh6EE) refers to lib.o(t._ZNK8cNetAddrILh4EEeqERKS0_) for cNetAddr<(unsigned char)4>::operator ==(const cNetAddr<(unsigned char)4>&) const
    lib.o(i._ZN7cNetUDP9handleARPE8cNetAddrILh4EES0_ILh6EE) refers to lib.o(i._ZN5cList4Item7getNextEv) for cList::Item::getNext()
    lib.o(i._ZN7cNetUDPC1ER6cNetIP) refers to lib.o(i._ZN13cNetTransportC2Ev) for cNetTransport::cNetTransport__sub_object()
    lib.o(i._ZN7cNetUDPC1ER6cNetIP) refers to lib.o(i._ZN7cNetARP6setUDPEP7cNetUDP) for cNetARP::setUDP(cNetUDP*)
    lib.o(i._ZN7cNetUDPC1ER6cNetIP) refers to lib.o(.constdata__ZTV7cNetUDP) for vtable for cNetUDP
    lib.o(i._ZN7cSystem13delayMicroSecEt) refers to dflt_clz.o(x$fpl$dfltu) for __aeabi_ui2d
    lib.o(i._ZN7cSystem13delayMicroSecEt) refers to dmul.o(x$fpl$dmul) for __aeabi_dmul
    lib.o(i._ZN7cSystem13delayMicroSecEt) refers to dfixu.o(x$fpl$dfixu) for __aeabi_d2uiz
    lib.o(i._ZN7cSystem13delayMilliSecEt) refers to lib.o(i._ZN7cSystem13delayMicroSecEt) for cSystem::delayMicroSec(unsigned short)
    lib.o(i._ZN7cSystem15enableInterruptEv) refers to lib.o(.data) for cSystem::cntInterrupt
    lib.o(i._ZN7cSystem16disableInterruptEv) refers to lib.o(.data) for cSystem::cntInterrupt
    lib.o(i._ZN7cSystem5resetEv) refers to lib.o(i._ZN7cSystem14enableWatchdogENS_4MODEE) for cSystem::enableWatchdog(cSystem::MODE)
    lib.o(i._ZN7cSystem5startEv) refers to lib.o(i._ZN7cSystem15enableInterruptEv) for cSystem::enableInterrupt()
    lib.o(i._ZN7cSystem8enterISREv) refers to lib.o(.data) for cSystem::cntInterrupt
    lib.o(i._ZN7cSystem8leaveISREv) refers to lib.o(.data) for cSystem::cntInterrupt
    lib.o(i._ZN7cSystemC1Eh) refers to lib.o(i.SystemInit) for SystemInit
    lib.o(i._ZN7cSystemC1Eh) refers to lib.o(i._ZN7cSystem15disableWatchdogEv) for cSystem::disableWatchdog()
    lib.o(i._ZN7cSystemC1Eh) refers to lib.o(i._ZN7cSystem16disableInterruptEv) for cSystem::disableInterrupt()
    lib.o(i._ZN8cHwADC_08configChEh) refers to lib.o(i._ZN12cHwPinConfig3setENS_8FunctionEj) for cHwPinConfig::set(cHwPinConfig::Function, unsigned)
    lib.o(i._ZN8cHwADC_0C1EP8cHwTimer) refers to lib.o(i._ZN6cHwADCC2EhP8cHwTimer) for cHwADC::cHwADC__sub_object(unsigned char, cHwTimer*)
    lib.o(i._ZN8cHwADC_0C1EP8cHwTimer) refers to lib.o(i._Z14NVIC_EnableIRQ4IRQn) for NVIC_EnableIRQ(IRQn)
    lib.o(i._ZN8cHwADC_0C1EP8cHwTimer) refers to lib.o(.constdata__ZTV8cHwADC_0) for vtable for cHwADC_0
    lib.o(i._ZN8cHwADC_0C1EP8cHwTimer) refers to lib.o(.data) for cHwADC_0::adcPtr
    lib.o(i._ZN8cHwDAC_0C1Ev) refers to lib.o(i._ZN6cHwDACC2Eh) for cHwDAC::cHwDAC__sub_object(unsigned char)
    lib.o(i._ZN8cHwDAC_0C1Ev) refers to lib.o(i._ZN12cHwPinConfig3setENS_8FunctionEj) for cHwPinConfig::set(cHwPinConfig::Function, unsigned)
    lib.o(i._ZN8cHwDAC_0C1Ev) refers to lib.o(.constdata__ZTV8cHwDAC_0) for vtable for cHwDAC_0
    lib.o(i._ZN8cHwRTC_0C1Ev) refers to lib.o(i._ZN6cHwRTCC2Ev) for cHwRTC::cHwRTC__sub_object()
    lib.o(i._ZN8cHwRTC_0C1Ev) refers to lib.o(.constdata__ZTV8cHwRTC_0) for vtable for cHwRTC_0
    lib.o(i._ZN8cHwTimer3addEPN5cList4ItemE) refers to lib.o(i._ZN5cList3addEPNS_4ItemE) for cList::add(cList::Item*)
    lib.o(i._ZN8cHwTouchC2Ett) refers to lib.o(.constdata__ZTV8cHwTouch) for vtable for cHwTouch
    lib.o(i._ZN8cHwUSB_010clrStallEPEh) refers to lib.o(i._ZN8cHwUSB_012epAddr2IndexEh) for cHwUSB_0::epAddr2Index(unsigned char)
    lib.o(i._ZN8cHwUSB_010clrStallEPEh) refers to lib.o(i._ZN8cHwUSB_08WrCmdDatEjj) for cHwUSB_0::WrCmdDat(unsigned, unsigned)
    lib.o(i._ZN8cHwUSB_010setAddressEh) refers to lib.o(i._ZN8cHwUSB_08WrCmdDatEjj) for cHwUSB_0::WrCmdDat(unsigned, unsigned)
    lib.o(i._ZN8cHwUSB_010setStallEPEh) refers to lib.o(i._ZN8cHwUSB_012epAddr2IndexEh) for cHwUSB_0::epAddr2Index(unsigned char)
    lib.o(i._ZN8cHwUSB_010setStallEPEh) refers to lib.o(i._ZN8cHwUSB_08WrCmdDatEjj) for cHwUSB_0::WrCmdDat(unsigned, unsigned)
    lib.o(i._ZN8cHwUSB_05resetEv) refers to lib.o(i._ZN8cHwUSB_08WrCmdDatEjj) for cHwUSB_0::WrCmdDat(unsigned, unsigned)
    lib.o(i._ZN8cHwUSB_05startEv) refers to lib.o(i._Z14NVIC_EnableIRQ4IRQn) for NVIC_EnableIRQ(IRQn)
    lib.o(i._ZN8cHwUSB_05startEv) refers to lib.o(i._ZN7cSystem13delayMilliSecEt) for cSystem::delayMilliSec(unsigned short)
    lib.o(i._ZN8cHwUSB_06readEPEhPht) refers to lib.o(i._ZN8cHwUSB_012epAddr2IndexEh) for cHwUSB_0::epAddr2Index(unsigned char)
    lib.o(i._ZN8cHwUSB_06readEPEhPht) refers to lib.o(i._ZN8cHwUSB_08WrCmdDatEjj) for cHwUSB_0::WrCmdDat(unsigned, unsigned)
    lib.o(i._ZN8cHwUSB_07writeEPEhPht) refers to lib.o(i._ZN8cHwUSB_012epAddr2IndexEh) for cHwUSB_0::epAddr2Index(unsigned char)
    lib.o(i._ZN8cHwUSB_07writeEPEhPht) refers to lib.o(i._ZN8cHwUSB_08WrCmdDatEjj) for cHwUSB_0::WrCmdDat(unsigned, unsigned)
    lib.o(i._ZN8cHwUSB_08WrCmdDatEjj) refers to lib.o(i._ZN8cHwUSB_05WrCmdEj) for cHwUSB_0::WrCmd(unsigned)
    lib.o(i._ZN8cHwUSB_08configEPEhth) refers to lib.o(i._ZN8cHwUSB_012epAddr2IndexEh) for cHwUSB_0::epAddr2Index(unsigned char)
    lib.o(i._ZN8cHwUSB_08configEPEhth) refers to lib.o(i._ZN8cHwUSB_08WrCmdDatEjj) for cHwUSB_0::WrCmdDat(unsigned, unsigned)
    lib.o(i._ZN8cHwUSB_09configureEh) refers to lib.o(i._ZN8cHwUSB_08WrCmdDatEjj) for cHwUSB_0::WrCmdDat(unsigned, unsigned)
    lib.o(i._ZN8cHwUSB_0C1ER10cHwUSBdesc) refers to lib.o(i._ZN6cHwUSBC2ER10cHwUSBdesc) for cHwUSB::cHwUSB__sub_object(cHwUSBdesc&)
    lib.o(i._ZN8cHwUSB_0C1ER10cHwUSBdesc) refers to lib.o(i._ZN12cHwPinConfig3setENS_8FunctionEj) for cHwPinConfig::set(cHwPinConfig::Function, unsigned)
    lib.o(i._ZN8cHwUSB_0C1ER10cHwUSBdesc) refers to lib.o(.constdata__ZTV8cHwUSB_0) for vtable for cHwUSB_0
    lib.o(i._ZN8cHwUSB_0C1ER10cHwUSBdesc) refers to lib.o(.data) for cHwUSB_0::usbPtr
    lib.o(i._ZN8cNetDHCP4sendEh) refers to lib.o(i._ZN7cNetUDP6Socket10getDataPtrEv) for cNetUDP::Socket::getDataPtr()
    lib.o(i._ZN8cNetDHCP4sendEh) refers to rt_memclr.o(.text) for __aeabi_memclr
    lib.o(i._ZN8cNetDHCP4sendEh) refers to lib.o(t._ZN8cNetTYPEIjEaSEj) for cNetTYPE<unsigned>::operator =(unsigned)
    lib.o(i._ZN8cNetDHCP4sendEh) refers to lib.o(t._ZN8cNetTYPEItEaSEt) for cNetTYPE<unsigned short>::operator =(unsigned short)
    lib.o(i._ZN8cNetDHCP4sendEh) refers to rt_memcpy_v6.o(.text) for __aeabi_memcpy
    lib.o(i._ZN8cNetDHCP4sendEh) refers to lib.o(i._ZN7cNetUDP6Socket13setDataLengthEt) for cNetUDP::Socket::setDataLength(unsigned short)
    lib.o(i._ZN8cNetDHCP4sendEh) refers to lib.o(i._ZN13cNetTransport6Socket4fillEc) for cNetTransport::Socket::fill(char)
    lib.o(i._ZN8cNetDHCP4sendEh) refers to strlen.o(.text) for strlen
    lib.o(i._ZN8cNetDHCP4sendEh) refers to lib.o(i._ZN13cNetTransport6Socket4fillEPKc) for cNetTransport::Socket::fill(const char*)
    lib.o(i._ZN8cNetDHCP4sendEh) refers to lib.o(i._ZN7cNetUDP6Socket4sendEv) for cNetUDP::Socket::send()
    lib.o(i._ZN8cNetDHCP7processEv) refers to lib.o(i._ZN7cNetUDP6Socket10getDataPtrEv) for cNetUDP::Socket::getDataPtr()
    lib.o(i._ZN8cNetDHCP7processEv) refers to memcmp.o(.text) for memcmp
    lib.o(i._ZN8cNetDHCP7processEv) refers to lib.o(i._ZN8cNetDHCP13parse_optionsEPhi) for cNetDHCP::parse_options(unsigned char*, int)
    lib.o(i._ZN8cNetDHCP7processEv) refers to lib.o(t._ZNK8cNetAddrILh4EEeqERKS0_) for cNetAddr<(unsigned char)4>::operator ==(const cNetAddr<(unsigned char)4>&) const
    lib.o(i._ZN8cNetDHCP7processEv) refers to lib.o(i._ZN7cNetUDP6Socket4openE8cNetAddrILh4EEt) for cNetUDP::Socket::open(cNetAddr<(unsigned char)4>, unsigned short)
    lib.o(i._ZN8cNetDHCP7processEv) refers to lib.o(i._ZN8cNetDHCP4sendEh) for cNetDHCP::send(unsigned char)
    lib.o(i._ZN8cNetDHCP7processEv) refers to lib.o(i._ZN13cNetTransport6Socket10setTimeoutEtt) for cNetTransport::Socket::setTimeout(unsigned short, unsigned short)
    lib.o(i._ZN8cNetDHCP7processEv) refers to lib.o(.constdata) for zeroAddr
    lib.o(i._ZN8cNetDHCP7timeoutEv) refers to lib.o(t._ZNK8cNetAddrILh4EEeqERKS0_) for cNetAddr<(unsigned char)4>::operator ==(const cNetAddr<(unsigned char)4>&) const
    lib.o(i._ZN8cNetDHCP7timeoutEv) refers to lib.o(i._ZN7cNetUDP6Socket4openE8cNetAddrILh4EEt) for cNetUDP::Socket::open(cNetAddr<(unsigned char)4>, unsigned short)
    lib.o(i._ZN8cNetDHCP7timeoutEv) refers to lib.o(i._ZN8cNetDHCP4sendEh) for cNetDHCP::send(unsigned char)
    lib.o(i._ZN8cNetDHCP7timeoutEv) refers to lib.o(i._ZN13cNetTransport6Socket10setTimeoutEtt) for cNetTransport::Socket::setTimeout(unsigned short, unsigned short)
    lib.o(i._ZN8cNetDHCP7timeoutEv) refers to lib.o(.constdata) for zeroAddr
    lib.o(i._ZN8cNetDHCPC1ER7cNetUDPPKc) refers to lib.o(i._ZN5cList4ItemC1EPS_) for cList::Item::Item(cList*)
    lib.o(i._ZN8cNetDHCPC1ER7cNetUDPPKc) refers to lib.o(i._ZN7cNetUDP6SocketC1ERS_R15cNetApplication8cNetAddrILh4EEtt) for cNetUDP::Socket::Socket(cNetUDP&, cNetApplication&, cNetAddr<(unsigned char)4>, unsigned short, unsigned short)
    lib.o(i._ZN8cNetDHCPC1ER7cNetUDPPKc) refers to lib.o(i._ZN13cNetTransport6Socket10setTimeoutEtt) for cNetTransport::Socket::setTimeout(unsigned short, unsigned short)
    lib.o(i._ZN8cNetDHCPC1ER7cNetUDPPKc) refers to lib.o(.constdata__ZTV15cNetApplication) for vtable for cNetApplication
    lib.o(i._ZN8cNetDHCPC1ER7cNetUDPPKc) refers to lib.o(.constdata__ZTV8cNetDHCP) for vtable for cNetDHCP
    lib.o(i._ZN8cNetDHCPC1ER7cNetUDPPKc) refers to lib.o(.constdata) for broadcastAddr
    lib.o(i._ZN8cNetICMP7processEv) refers to lib.o(t._ZN8cNetTYPEItEcvtEv) for cNetTYPE<unsigned short>::operator unsigned short()
    lib.o(i._ZN8cNetICMP7processEv) refers to lib.o(i._ZN6cNetIP6createE8cNetAddrILh6EES0_ILh4EEtt) for cNetIP::create(cNetAddr<(unsigned char)6>, cNetAddr<(unsigned char)4>, unsigned short, unsigned short)
    lib.o(i._ZN8cNetICMP7processEv) refers to lib.o(t._ZN8cNetTYPEItEaSEt) for cNetTYPE<unsigned short>::operator =(unsigned short)
    lib.o(i._ZN8cNetICMP7processEv) refers to lib.o(i._Z8ChecksumPhtj) for Checksum(unsigned char*, unsigned short, unsigned)
    lib.o(i._ZN9cHwMemoryC2Ejh) refers to lib.o(.constdata__ZTV9cHwMemory) for vtable for cHwMemory
    lib.o(i._ZN9cHwPort_NC1ENS_6PortIdE) refers to lib.o(i._ZN7cHwPortC2Ev) for cHwPort::cHwPort__sub_object()
    lib.o(i._ZN9cHwPort_NC1ENS_6PortIdE) refers to lib.o(.constdata__ZTV9cHwPort_N) for vtable for cHwPort_N
    lib.o(i._ZN9cHwUART_NC1ENS_7UART_IDEN7cHwUART4ModeEhh) refers to lib.o(i._ZN7cHwUARTC2Ehh) for cHwUART::cHwUART__sub_object(unsigned char, unsigned char)
    lib.o(i._ZN9cHwUART_NC1ENS_7UART_IDEN7cHwUART4ModeEhh) refers to lib.o(i._ZN12cHwPinConfig3setENS_8FunctionEj) for cHwPinConfig::set(cHwPinConfig::Function, unsigned)
    lib.o(i._ZN9cHwUART_NC1ENS_7UART_IDEN7cHwUART4ModeEhh) refers to lib.o(i._Z14NVIC_EnableIRQ4IRQn) for NVIC_EnableIRQ(IRQn)
    lib.o(i._ZN9cHwUART_NC1ENS_7UART_IDEN7cHwUART4ModeEhh) refers to lib.o(.constdata__ZTV9cHwUART_N) for vtable for cHwUART_N
    lib.o(i._ZN9cHwUART_NC1ENS_7UART_IDEN7cHwUART4ModeEhh) refers to lib.o(.data) for cHwUART_N::uartPtr_0
    lib.o(i._ZThn16_N20cDevAnalogOutPWMemul6updateEv) refers to lib.o(i._ZN20cDevAnalogOutPWMemul6updateEv) for cDevAnalogOutPWMemul::update()
    lib.o(i._ZThn4_N15cHwPort_PCF85746updateEv) refers to lib.o(i._ZN15cHwPort_PCF85746updateEv) for cHwPort_PCF8574::update()
    lib.o(i._ZThn4_N16cHwPort_Terminal6updateEv) refers to lib.o(i._ZN16cHwPort_Terminal6updateEv) for cHwPort_Terminal::update()
    lib.o(i.__cxa_pure_virtual) refers to abort.o(.text) for abort
    lib.o(.ARM.exidx) refers to lib.o(i._Z4htont) for i._Z4htont
    lib.o(.ARM.exidx) refers to lib.o(i._Z4htonj) for i._Z4htonj
    lib.o(.ARM.exidx) refers to lib.o(i._Z4ntoht) for i._Z4ntoht
    lib.o(.ARM.exidx) refers to lib.o(i._Z4ntohj) for i._Z4ntohj
    lib.o(.ARM.exidx) refers to lib.o(i._Z8ChecksumPhtj) for i._Z8ChecksumPhtj
    lib.o(.ARM.exidx) refers to lib.o(i.SystemInit) for i.SystemInit
    lib.o(.ARM.exidx) refers to lib.o(i.SysTick_Handler) for i.SysTick_Handler
    lib.o(.ARM.exidx) refers to lib.o(i.PendSV_Handler) for i.PendSV_Handler
    lib.o(.ARM.exidx) refers to lib.o(i.ADC_IRQHandler) for i.ADC_IRQHandler
    lib.o(.ARM.exidx) refers to lib.o(i._ZN10cHwTimer_N3isrEv) for i._ZN10cHwTimer_N3isrEv
    lib.o(.ARM.exidx) refers to lib.o(i.TIMER0_IRQHandler) for i.TIMER0_IRQHandler
    lib.o(.ARM.exidx) refers to lib.o(i.TIMER1_IRQHandler) for i.TIMER1_IRQHandler
    lib.o(.ARM.exidx) refers to lib.o(i.TIMER2_IRQHandler) for i.TIMER2_IRQHandler
    lib.o(.ARM.exidx) refers to lib.o(i.TIMER3_IRQHandler) for i.TIMER3_IRQHandler
    lib.o(.ARM.exidx) refers to lib.o(i.PWM1_IRQHandler) for i.PWM1_IRQHandler
    lib.o(.ARM.exidx) refers to lib.o(i.UART0_IRQHandler) for i.UART0_IRQHandler
    lib.o(.ARM.exidx) refers to lib.o(i.UART1_IRQHandler) for i.UART1_IRQHandler
    lib.o(.ARM.exidx) refers to lib.o(i.UART3_IRQHandler) for i.UART3_IRQHandler
    lib.o(.ARM.exidx) refers to lib.o(i._ZN8cHwUSB_08RdCmdDatEj) for i._ZN8cHwUSB_08RdCmdDatEj
    lib.o(.ARM.exidx) refers to lib.o(i._ZN8cHwUSB_05WrCmdEj) for i._ZN8cHwUSB_05WrCmdEj
    lib.o(.ARM.exidx) refers to lib.o(i.USB_IRQHandler) for i.USB_IRQHandler
    lib.o(.ARM.exidx) refers to lib.o(i.__cxa_pure_virtual) for i.__cxa_pure_virtual
    lib.o(.ARM.exidx) refers to lib.o(i._ZN7cSystem16disableInterruptEv) for i._ZN7cSystem16disableInterruptEv
    lib.o(.ARM.exidx) refers to lib.o(i._ZN7cSystem15disableWatchdogEv) for i._ZN7cSystem15disableWatchdogEv
    lib.o(.ARM.exidx) refers to lib.o(i._ZN7cSystemC1Eh) for i._ZN7cSystemC1Eh
    lib.o(.ARM.exidx) refers to lib.o(i._ZN7cSystem15enableInterruptEv) for i._ZN7cSystem15enableInterruptEv
    lib.o(.ARM.exidx) refers to lib.o(i._ZN7cSystem5startEv) for i._ZN7cSystem5startEv
    lib.o(.ARM.exidx) refers to lib.o(i._ZN7cSystem8enterISREv) for i._ZN7cSystem8enterISREv
    lib.o(.ARM.exidx) refers to lib.o(i._ZN7cSystem8leaveISREv) for i._ZN7cSystem8leaveISREv
    lib.o(.ARM.exidx) refers to lib.o(i._ZN7cSystem14enableWatchdogENS_4MODEE) for i._ZN7cSystem14enableWatchdogENS_4MODEE
    lib.o(.ARM.exidx) refers to lib.o(i._ZN7cSystem12feedWatchdogEv) for i._ZN7cSystem12feedWatchdogEv
    lib.o(.ARM.exidx) refers to lib.o(i._ZN7cSystem5resetEv) for i._ZN7cSystem5resetEv
    lib.o(.ARM.exidx) refers to lib.o(i._ZN7cSystem13delayMicroSecEt) for i._ZN7cSystem13delayMicroSecEt
    lib.o(.ARM.exidx) refers to lib.o(i._ZN7cSystem13delayMilliSecEt) for i._ZN7cSystem13delayMilliSecEt
    lib.o(.ARM.exidx) refers to lib.o(i._ZN12cHwPinConfig3setENS_8FunctionEj) for i._ZN12cHwPinConfig3setENS_8FunctionEj
    lib.o(.ARM.exidx) refers to lib.o(i._ZN11cHwRTOS_MCUC1Ev) for i._ZN11cHwRTOS_MCUC1Ev
    lib.o(.ARM.exidx) refers to lib.o(i._ZN5cListC1Ev) for i._ZN5cListC1Ev
    lib.o(.ARM.exidx) refers to lib.o(i._ZN5cList3addEPNS_4ItemE) for i._ZN5cList3addEPNS_4ItemE
    lib.o(.ARM.exidx) refers to lib.o(i._ZN5cList9updateAllEv) for i._ZN5cList9updateAllEv
    lib.o(.ARM.exidx) refers to lib.o(i._ZN5cList8getFirstEv) for i._ZN5cList8getFirstEv
    lib.o(.ARM.exidx) refers to lib.o(i._ZN5cListixEt) for i._ZN5cListixEt
    lib.o(.ARM.exidx) refers to lib.o(i._ZN5cList4ItemC1EPS_) for i._ZN5cList4ItemC1EPS_
    lib.o(.ARM.exidx) refers to lib.o(i._ZN5cList4Item7getNextEv) for i._ZN5cList4Item7getNextEv
    lib.o(.ARM.exidx) refers to lib.o(i._ZN5cList4Item7getPrevERS_) for i._ZN5cList4Item7getPrevERS_
    lib.o(.ARM.exidx) refers to lib.o(i._ZN8cHwTimer12getCycleTimeEv) for i._ZN8cHwTimer12getCycleTimeEv
    lib.o(.ARM.exidx) refers to lib.o(i._ZN8cHwTimer3addEPN5cList4ItemE) for i._ZN8cHwTimer3addEPN5cList4ItemE
    lib.o(.ARM.exidx) refers to lib.o(i._ZN6cHwADCC2EhP8cHwTimer) for i._ZN6cHwADCC2EhP8cHwTimer
    lib.o(.ARM.exidx) refers to lib.o(i._ZN6cHwADC6enableEh) for i._ZN6cHwADC6enableEh
    lib.o(.ARM.exidx) refers to lib.o(i._ZN8cHwADC_0C1EP8cHwTimer) for i._ZN8cHwADC_0C1EP8cHwTimer
    lib.o(.ARM.exidx) refers to lib.o(i._ZN8cHwADC_08configChEh) for i._ZN8cHwADC_08configChEh
    lib.o(.ARM.exidx) refers to lib.o(i._ZN6cHwDACC2Eh) for i._ZN6cHwDACC2Eh
    lib.o(.ARM.exidx) refers to lib.o(i._ZN8cHwDAC_0C1Ev) for i._ZN8cHwDAC_0C1Ev
    lib.o(.ARM.exidx) refers to lib.o(i._ZN11cHwEthernetC2ERK8cNetAddrILh6EE) for i._ZN11cHwEthernetC2ERK8cNetAddrILh6EE
    lib.o(.ARM.exidx) refers to lib.o(i._ZN6cNetIP6updateEv) for i._ZN6cNetIP6updateEv
    lib.o(.ARM.exidx) refers to lib.o(i._ZN6cNetIP6createE8cNetAddrILh6EES0_ILh4EEtt) for i._ZN6cNetIP6createE8cNetAddrILh6EES0_ILh4EEtt
    lib.o(.ARM.exidx) refers to lib.o(i._ZN8cNetICMP7processEv) for i._ZN8cNetICMP7processEv
    lib.o(.ARM.exidx) refers to lib.o(i._ZN6cNetIP7processEv) for i._ZN6cNetIP7processEv
    lib.o(.ARM.exidx) refers to lib.o(i._ZN7cNetARP7processEv) for i._ZN7cNetARP7processEv
    lib.o(.ARM.exidx) refers to lib.o(i._ZN11cHwEthernet6updateEv) for i._ZN11cHwEthernet6updateEv
    lib.o(.ARM.exidx) refers to lib.o(i._ZN11cHwEthernet6setARPEP7cNetARP) for i._ZN11cHwEthernet6setARPEP7cNetARP
    lib.o(.ARM.exidx) refers to lib.o(i._ZN11cHwEthernet5setIPEP6cNetIP) for i._ZN11cHwEthernet5setIPEP6cNetIP
    lib.o(.ARM.exidx) refers to lib.o(i._ZN11cHwEthernet5getIPEv) for i._ZN11cHwEthernet5getIPEv
    lib.o(.ARM.exidx) refers to lib.o(i._ZN16cHwEthernet_EMAC13tx_descr_initEv) for i._ZN16cHwEthernet_EMAC13tx_descr_initEv
    lib.o(.ARM.exidx) refers to lib.o(i._ZN16cHwEthernet_EMAC13rx_descr_initEv) for i._ZN16cHwEthernet_EMAC13rx_descr_initEv
    lib.o(.ARM.exidx) refers to lib.o(i._ZN16cHwEthernet_EMAC5delayEv) for i._ZN16cHwEthernet_EMAC5delayEv
    lib.o(.ARM.exidx) refers to lib.o(i._ZN16cHwEthernet_EMAC15turnaround_MDIOEv) for i._ZN16cHwEthernet_EMAC15turnaround_MDIOEv
    lib.o(.ARM.exidx) refers to lib.o(i._ZN16cHwEthernet_EMAC10input_MDIOEv) for i._ZN16cHwEthernet_EMAC10input_MDIOEv
    lib.o(.ARM.exidx) refers to lib.o(i._ZN16cHwEthernet_EMAC11output_MDIOEjj) for i._ZN16cHwEthernet_EMAC11output_MDIOEjj
    lib.o(.ARM.exidx) refers to lib.o(i._ZN16cHwEthernet_EMAC8read_PHYEj) for i._ZN16cHwEthernet_EMAC8read_PHYEj
    lib.o(.ARM.exidx) refers to lib.o(i._ZN16cHwEthernet_EMAC9write_PHYEjt) for i._ZN16cHwEthernet_EMAC9write_PHYEjt
    lib.o(.ARM.exidx) refers to lib.o(i._ZN16cHwEthernet_EMAC9Init_EMACEv) for i._ZN16cHwEthernet_EMAC9Init_EMACEv
    lib.o(.ARM.exidx) refers to lib.o(i._ZN16cHwEthernet_EMACC1ERK8cNetAddrILh6EE) for i._ZN16cHwEthernet_EMACC1ERK8cNetAddrILh6EE
    lib.o(.ARM.exidx) refers to lib.o(i._ZN16cHwEthernet_EMAC6createE8cNetAddrILh6EEt) for i._ZN16cHwEthernet_EMAC6createE8cNetAddrILh6EEt
    lib.o(.ARM.exidx) refers to lib.o(i._ZN16cHwEthernet_EMAC15WriteFrame_EMACEt) for i._ZN16cHwEthernet_EMAC15WriteFrame_EMACEt
    lib.o(.ARM.exidx) refers to lib.o(i._ZN16cHwEthernet_EMAC16CopyToFrame_EMACEPvj) for i._ZN16cHwEthernet_EMAC16CopyToFrame_EMACEPvj
    lib.o(.ARM.exidx) refers to lib.o(i._ZN16cHwEthernet_EMAC11RequestSendEt) for i._ZN16cHwEthernet_EMAC11RequestSendEt
    lib.o(.ARM.exidx) refers to lib.o(i._ZN16cHwEthernet_EMAC6Rdy4TxEv) for i._ZN16cHwEthernet_EMAC6Rdy4TxEv
    lib.o(.ARM.exidx) refers to lib.o(i._ZN16cHwEthernet_EMAC10PacketSendEPht) for i._ZN16cHwEthernet_EMAC10PacketSendEPht
    lib.o(.ARM.exidx) refers to lib.o(i._ZN16cHwEthernet_EMAC12EndReadFrameEv) for i._ZN16cHwEthernet_EMAC12EndReadFrameEv
    lib.o(.ARM.exidx) refers to lib.o(i._ZN16cHwEthernet_EMAC14ReadFrame_EMACEv) for i._ZN16cHwEthernet_EMAC14ReadFrame_EMACEv
    lib.o(.ARM.exidx) refers to lib.o(i._ZN16cHwEthernet_EMAC18CopyFromFrame_EMACEPvt) for i._ZN16cHwEthernet_EMAC18CopyFromFrame_EMACEPvt
    lib.o(.ARM.exidx) refers to lib.o(i._ZN16cHwEthernet_EMAC14StartReadFrameEv) for i._ZN16cHwEthernet_EMAC14StartReadFrameEv
    lib.o(.ARM.exidx) refers to lib.o(i._ZN16cHwEthernet_EMAC18CheckFrameReceivedEv) for i._ZN16cHwEthernet_EMAC18CheckFrameReceivedEv
    lib.o(.ARM.exidx) refers to lib.o(i._ZN16cHwEthernet_EMAC13PacketReceiveEv) for i._ZN16cHwEthernet_EMAC13PacketReceiveEv
    lib.o(.ARM.exidx) refers to lib.o(i._ZN16cHwEthernet_EMAC7getTypeEv) for i._ZN16cHwEthernet_EMAC7getTypeEv
    lib.o(.ARM.exidx) refers to lib.o(i._ZN16cHwEthernet_EMAC19DummyReadFrame_EMACEt) for i._ZN16cHwEthernet_EMAC19DummyReadFrame_EMACEt
    lib.o(.ARM.exidx) refers to lib.o(i._ZN7cHwPort3PinC1ERS_h) for i._ZN7cHwPort3PinC1ERS_h
    lib.o(.ARM.exidx) refers to lib.o(i._ZN7cHwPort3PinC1ERS_hNS_4ModeE) for i._ZN7cHwPort3PinC1ERS_hNS_4ModeE
    lib.o(.ARM.exidx) refers to lib.o(i._ZN12cHwI2CmasterC2Eh) for i._ZN12cHwI2CmasterC2Eh
    lib.o(.ARM.exidx) refers to lib.o(i._ZN12cHwI2Cmaster5writeEhPhhS0_h) for i._ZN12cHwI2Cmaster5writeEhPhhS0_h
    lib.o(.ARM.exidx) refers to lib.o(i._ZN12cHwI2Cmaster4readEhPhhS0_h) for i._ZN12cHwI2Cmaster4readEhPhhS0_h
    lib.o(.ARM.exidx) refers to lib.o(i._ZN12cHwI2Cmaster6Device4readEv) for i._ZN12cHwI2Cmaster6Device4readEv
    lib.o(.ARM.exidx) refers to lib.o(i._ZN12cHwI2Cmaster6Device4readEh) for i._ZN12cHwI2Cmaster6Device4readEh
    lib.o(.ARM.exidx) refers to lib.o(i._ZN12cHwI2Cmaster6Device4readEt) for i._ZN12cHwI2Cmaster6Device4readEt
    lib.o(.ARM.exidx) refers to lib.o(i._ZN12cHwI2Cmaster6Device4readEPhh) for i._ZN12cHwI2Cmaster6Device4readEPhh
    lib.o(.ARM.exidx) refers to lib.o(i._ZN12cHwI2Cmaster6Device4readEhPhh) for i._ZN12cHwI2Cmaster6Device4readEhPhh
    lib.o(.ARM.exidx) refers to lib.o(i._ZN12cHwI2Cmaster6Device4readEtPhh) for i._ZN12cHwI2Cmaster6Device4readEtPhh
    lib.o(.ARM.exidx) refers to lib.o(i._ZN12cHwI2Cmaster6Device5writeEh) for i._ZN12cHwI2Cmaster6Device5writeEh
    lib.o(.ARM.exidx) refers to lib.o(i._ZN12cHwI2Cmaster6Device5writeEhh) for i._ZN12cHwI2Cmaster6Device5writeEhh
    lib.o(.ARM.exidx) refers to lib.o(i._ZN12cHwI2Cmaster6Device5writeEth) for i._ZN12cHwI2Cmaster6Device5writeEth
    lib.o(.ARM.exidx) refers to lib.o(i._ZN12cHwI2Cmaster6Device5writeEPhh) for i._ZN12cHwI2Cmaster6Device5writeEPhh
    lib.o(.ARM.exidx) refers to lib.o(i._ZN12cHwI2Cmaster6Device5writeEhPhh) for i._ZN12cHwI2Cmaster6Device5writeEhPhh
    lib.o(.ARM.exidx) refers to lib.o(i._ZN12cHwI2Cmaster6Device5writeEtPhh) for i._ZN12cHwI2Cmaster6Device5writeEtPhh
    lib.o(.ARM.exidx) refers to lib.o(i._ZN12cHwI2Cmaster6Device7isErrorEv) for i._ZN12cHwI2Cmaster6Device7isErrorEv
    lib.o(.ARM.exidx) refers to lib.o(i._ZN17cHwI2Cmaster_EmulC1ERN7cHwPort3PinES2_N12cHwI2Cmaster4MODEE) for i._ZN17cHwI2Cmaster_EmulC1ERN7cHwPort3PinES2_N12cHwI2Cmaster4MODEE
    lib.o(.ARM.exidx) refers to lib.o(i._ZN17cHwI2Cmaster_Emul5startEv) for i._ZN17cHwI2Cmaster_Emul5startEv
    lib.o(.ARM.exidx) refers to lib.o(i._ZN17cHwI2Cmaster_Emul4stopEv) for i._ZN17cHwI2Cmaster_Emul4stopEv
    lib.o(.ARM.exidx) refers to lib.o(i._ZN17cHwI2Cmaster_Emul8sendAddrEh) for i._ZN17cHwI2Cmaster_Emul8sendAddrEh
    lib.o(.ARM.exidx) refers to lib.o(i._ZN17cHwI2Cmaster_Emul9writeByteEh) for i._ZN17cHwI2Cmaster_Emul9writeByteEh
    lib.o(.ARM.exidx) refers to lib.o(i._ZN17cHwI2Cmaster_Emul11readByteAckEv) for i._ZN17cHwI2Cmaster_Emul11readByteAckEv
    lib.o(.ARM.exidx) refers to lib.o(i._ZN17cHwI2Cmaster_Emul12readByteNackEv) for i._ZN17cHwI2Cmaster_Emul12readByteNackEv
    lib.o(.ARM.exidx) refers to lib.o(i._ZN17cHwI2Cmaster_Emul11waitForAcknEv) for i._ZN17cHwI2Cmaster_Emul11waitForAcknEv
    lib.o(.ARM.exidx) refers to lib.o(i._ZN17cHwI2Cmaster_Emul4waitEv) for i._ZN17cHwI2Cmaster_Emul4waitEv
    lib.o(.ARM.exidx) refers to lib.o(i._ZN14cHwI2Cmaster_NC1ENS_6I2C_IDEN12cHwI2Cmaster4MODEEh) for i._ZN14cHwI2Cmaster_NC1ENS_6I2C_IDEN12cHwI2Cmaster4MODEEh
    lib.o(.ARM.exidx) refers to lib.o(i._ZN9cHwMemoryC2Ejh) for i._ZN9cHwMemoryC2Ejh
    lib.o(.ARM.exidx) refers to lib.o(i._ZN15cHwMemory_FlashC1EPhj) for i._ZN15cHwMemory_FlashC1EPhj
    lib.o(.ARM.exidx) refers to lib.o(i._ZN15cHwMemory_Flash6unlockEv) for i._ZN15cHwMemory_Flash6unlockEv
    lib.o(.ARM.exidx) refers to lib.o(i._ZN15cHwMemory_Flash4lockEv) for i._ZN15cHwMemory_Flash4lockEv
    lib.o(.ARM.exidx) refers to lib.o(i._ZN15cHwMemory_Flash9writeByteEjh) for i._ZN15cHwMemory_Flash9writeByteEjh
    lib.o(.ARM.exidx) refers to lib.o(i._ZN15cHwMemory_Flash8readByteEj) for i._ZN15cHwMemory_Flash8readByteEj
    lib.o(.ARM.exidx) refers to lib.o(i._ZN15cHwMemory_Flash5clearEj) for i._ZN15cHwMemory_Flash5clearEj
    lib.o(.ARM.exidx) refers to lib.o(i._ZN13cHwMemory_RAMC1Ev) for i._ZN13cHwMemory_RAMC1Ev
    lib.o(.ARM.exidx) refers to lib.o(i._ZN13cHwMemory_RAM6unlockEv) for i._ZN13cHwMemory_RAM6unlockEv
    lib.o(.ARM.exidx) refers to lib.o(i._ZN13cHwMemory_RAM4lockEv) for i._ZN13cHwMemory_RAM4lockEv
    lib.o(.ARM.exidx) refers to lib.o(i._ZN9cHwPort_NC1ENS_6PortIdE) for i._ZN9cHwPort_NC1ENS_6PortIdE
    lib.o(.ARM.exidx) refers to lib.o(i._ZN9cHwPort_N7setModeEjN7cHwPort4ModeE) for i._ZN9cHwPort_N7setModeEjN7cHwPort4ModeE
    lib.o(.ARM.exidx) refers to lib.o(i._ZN9cHwPort_N10setPinModeEhN7cHwPort4ModeE) for i._ZN9cHwPort_N10setPinModeEhN7cHwPort4ModeE
    lib.o(.ARM.exidx) refers to lib.o(i._ZN6cHwRTCC2Ev) for i._ZN6cHwRTCC2Ev
    lib.o(.ARM.exidx) refers to lib.o(i._ZN8cHwRTC_0C1Ev) for i._ZN8cHwRTC_0C1Ev
    lib.o(.ARM.exidx) refers to lib.o(i._ZN8cHwRTC_03setERKN6cHwRTC10PropertiesE) for i._ZN8cHwRTC_03setERKN6cHwRTC10PropertiesE
    lib.o(.ARM.exidx) refers to lib.o(i._ZN8cHwRTC_03getERN6cHwRTC10PropertiesE) for i._ZN8cHwRTC_03getERN6cHwRTC10PropertiesE
    lib.o(.ARM.exidx) refers to lib.o(i._ZN12cHwSPImasterC2Ev) for i._ZN12cHwSPImasterC2Ev
    lib.o(.ARM.exidx) refers to lib.o(i._ZN12cHwSPImaster6Device10transceiveEh) for i._ZN12cHwSPImaster6Device10transceiveEh
    lib.o(.ARM.exidx) refers to lib.o(i._ZN12cHwSPImaster6Device10transceiveEPht) for i._ZN12cHwSPImaster6Device10transceiveEPht
    lib.o(.ARM.exidx) refers to lib.o(i._ZN14cHwSPImaster_0C1EN12cHwSPImaster4MODEENS0_11ClockPolPhaE) for i._ZN14cHwSPImaster_0C1EN12cHwSPImaster4MODEENS0_11ClockPolPhaE
    lib.o(.ARM.exidx) refers to lib.o(i._ZN14cHwSPImaster_014transceiveByteEh) for i._ZN14cHwSPImaster_014transceiveByteEh
    lib.o(.ARM.exidx) refers to lib.o(i._ZN14cHwSPImaster_017transceiveByteExtEhh) for i._ZN14cHwSPImaster_017transceiveByteExtEhh
    lib.o(.ARM.exidx) refers to lib.o(i._ZN14cHwSPImaster_1C1EN12cHwSPImaster4MODEENS0_11ClockPolPhaE) for i._ZN14cHwSPImaster_1C1EN12cHwSPImaster4MODEENS0_11ClockPolPhaE
    lib.o(.ARM.exidx) refers to lib.o(i._ZN14cHwSPImaster_114transceiveByteEh) for i._ZN14cHwSPImaster_114transceiveByteEh
    lib.o(.ARM.exidx) refers to lib.o(i._ZN14cHwSPImaster_117transceiveByteExtEhh) for i._ZN14cHwSPImaster_117transceiveByteExtEhh
    lib.o(.ARM.exidx) refers to lib.o(i._ZN10cHwTimer_NC1ENS_7TimerIdEj) for i._ZN10cHwTimer_NC1ENS_7TimerIdEj
    lib.o(.ARM.exidx) refers to lib.o(i._ZN10cHwTimer_N9enablePWMEhN8cHwTimer4ModeE) for i._ZN10cHwTimer_N9enablePWMEhN8cHwTimer4ModeE
    lib.o(.ARM.exidx) refers to lib.o(i._ZN10cHwTimer_N6setPWMEth) for i._ZN10cHwTimer_N6setPWMEth
    lib.o(.ARM.exidx) refers to lib.o(i._ZN7cHwUARTC2Ehh) for i._ZN7cHwUARTC2Ehh
    lib.o(.ARM.exidx) refers to lib.o(i._ZN7cHwUART3setEh) for i._ZN7cHwUART3setEh
    lib.o(.ARM.exidx) refers to lib.o(i._ZN7cHwUART3setEPKhh) for i._ZN7cHwUART3setEPKhh
    lib.o(.ARM.exidx) refers to lib.o(i._ZN7cHwUART3setEPKc) for i._ZN7cHwUART3setEPKc
    lib.o(.ARM.exidx) refers to lib.o(i._ZN7cHwUART3getEPh) for i._ZN7cHwUART3getEPh
    lib.o(.ARM.exidx) refers to lib.o(i._ZN7cHwUART12transmitByteEh) for i._ZN7cHwUART12transmitByteEh
    lib.o(.ARM.exidx) refers to lib.o(i._ZN9cHwUART_NC1ENS_7UART_IDEN7cHwUART4ModeEhh) for i._ZN9cHwUART_NC1ENS_7UART_IDEN7cHwUART4ModeEhh
    lib.o(.ARM.exidx) refers to lib.o(i._ZN9cHwUART_N7handlerEv) for i._ZN9cHwUART_N7handlerEv
    lib.o(.ARM.exidx) refers to lib.o(i._ZN10cHwUSBdesc19getDescriptorDeviceEv) for i._ZN10cHwUSBdesc19getDescriptorDeviceEv
    lib.o(.ARM.exidx) refers to lib.o(i._ZN10cHwUSBdesc19getDescriptorConfigEh) for i._ZN10cHwUSBdesc19getDescriptorConfigEh
    lib.o(.ARM.exidx) refers to lib.o(i._ZN10cHwUSBdesc22getDescriptorInterfaceEhh) for i._ZN10cHwUSBdesc22getDescriptorInterfaceEhh
    lib.o(.ARM.exidx) refers to lib.o(i._ZN10cHwUSBdesc21getDescriptorEndpointEhhh) for i._ZN10cHwUSBdesc21getDescriptorEndpointEhhh
    lib.o(.ARM.exidx) refers to lib.o(i._ZN10cHwUSBdesc16getDescriptorHIDEhhh) for i._ZN10cHwUSBdesc16getDescriptorHIDEhhh
    lib.o(.ARM.exidx) refers to lib.o(i._ZN10cHwUSBdesc22getDescriptorHIDreportEhhh) for i._ZN10cHwUSBdesc22getDescriptorHIDreportEhhh
    lib.o(.ARM.exidx) refers to lib.o(i._ZN10cHwUSBdesc19getDescriptorStringEh) for i._ZN10cHwUSBdesc19getDescriptorStringEh
    lib.o(.ARM.exidx) refers to lib.o(i._ZN10cHwUSBdesc17getMaxPacketSize0Ev) for i._ZN10cHwUSBdesc17getMaxPacketSize0Ev
    lib.o(.ARM.exidx) refers to lib.o(i._ZN10cHwUSBdesc21getConfigDeviceStatusEh) for i._ZN10cHwUSBdesc21getConfigDeviceStatusEh
    lib.o(.ARM.exidx) refers to lib.o(i._ZN14cHwUSBendpointC1ER6cHwUSBP12cHwUSBinterfhth) for i._ZN14cHwUSBendpointC1ER6cHwUSBP12cHwUSBinterfhth
    lib.o(.ARM.exidx) refers to lib.o(i._ZN14cHwUSBendpointC1ER6cHwUSBht) for i._ZN14cHwUSBendpointC1ER6cHwUSBht
    lib.o(.ARM.exidx) refers to lib.o(i._ZN14cHwUSBendpoint9writeDataEv) for i._ZN14cHwUSBendpoint9writeDataEv
    lib.o(.ARM.exidx) refers to lib.o(i._ZN14cHwUSBendpoint2inEv) for i._ZN14cHwUSBendpoint2inEv
    lib.o(.ARM.exidx) refers to lib.o(i._ZN14cHwUSBendpoint6inCtrlEv) for i._ZN14cHwUSBendpoint6inCtrlEv
    lib.o(.ARM.exidx) refers to lib.o(i._ZN14cHwUSBendpoint5stallEv) for i._ZN14cHwUSBendpoint5stallEv
    lib.o(.ARM.exidx) refers to lib.o(i._ZN14cHwUSBendpoint8readDataEv) for i._ZN14cHwUSBendpoint8readDataEv
    lib.o(.ARM.exidx) refers to lib.o(i._ZN14cHwUSBendpoint3outEv) for i._ZN14cHwUSBendpoint3outEv
    lib.o(.ARM.exidx) refers to lib.o(i._ZN14cHwUSBendpoint16writeAcknowledgeEv) for i._ZN14cHwUSBendpoint16writeAcknowledgeEv
    lib.o(.ARM.exidx) refers to lib.o(i._ZN14cHwUSBendpoint7outCtrlEv) for i._ZN14cHwUSBendpoint7outCtrlEv
    lib.o(.ARM.exidx) refers to lib.o(i._ZN14cHwUSBendpoint9writeDataERK12cDataPointer) for i._ZN14cHwUSBendpoint9writeDataERK12cDataPointer
    lib.o(.ARM.exidx) refers to lib.o(i._ZN14cHwUSBendpoint12writeDataLenERK12cDataPointert) for i._ZN14cHwUSBendpoint12writeDataLenERK12cDataPointert
    lib.o(.ARM.exidx) refers to lib.o(i._ZN14cHwUSBendpoint15readAcknowledgeEv) for i._ZN14cHwUSBendpoint15readAcknowledgeEv
    lib.o(.ARM.exidx) refers to lib.o(i._ZN14cHwUSBendpoint8clrStallEv) for i._ZN14cHwUSBendpoint8clrStallEv
    lib.o(.ARM.exidx) refers to lib.o(i._ZN14cHwUSBendpoint10clrFeatureEv) for i._ZN14cHwUSBendpoint10clrFeatureEv
    lib.o(.ARM.exidx) refers to lib.o(i._ZN14cHwUSBendpoint16setConfigurationEv) for i._ZN14cHwUSBendpoint16setConfigurationEv
    lib.o(.ARM.exidx) refers to lib.o(i._ZN10cHwUSBctrlC1ER6cHwUSB) for i._ZN10cHwUSBctrlC1ER6cHwUSB
    lib.o(.ARM.exidx) refers to lib.o(i._ZN10cHwUSBctrl5setupEv) for i._ZN10cHwUSBctrl5setupEv
    lib.o(.ARM.exidx) refers to lib.o(i._ZN10cHwUSBctrl3outEv) for i._ZN10cHwUSBctrl3outEv
    lib.o(.ARM.exidx) refers to lib.o(i._ZN10cHwUSBctrl2inEv) for i._ZN10cHwUSBctrl2inEv
    lib.o(.ARM.exidx) refers to lib.o(i._ZN12cHwUSBinterfC2ER6cHwUSBhh) for i._ZN12cHwUSBinterfC2ER6cHwUSBhh
    lib.o(.ARM.exidx) refers to lib.o(i._ZN6cHwUSBC2ER10cHwUSBdesc) for i._ZN6cHwUSBC2ER10cHwUSBdesc
    lib.o(.ARM.exidx) refers to lib.o(i._ZN6cHwUSB12eventHandlerEhh) for i._ZN6cHwUSB12eventHandlerEhh
    lib.o(.ARM.exidx) refers to lib.o(i._ZN8cHwUSB_0C1ER10cHwUSBdesc) for i._ZN8cHwUSB_0C1ER10cHwUSBdesc
    lib.o(.ARM.exidx) refers to lib.o(i._ZN8cHwUSB_05startEv) for i._ZN8cHwUSB_05startEv
    lib.o(.ARM.exidx) refers to lib.o(i._ZN8cHwUSB_08WrCmdDatEjj) for i._ZN8cHwUSB_08WrCmdDatEjj
    lib.o(.ARM.exidx) refers to lib.o(i._ZN8cHwUSB_05resetEv) for i._ZN8cHwUSB_05resetEv
    lib.o(.ARM.exidx) refers to lib.o(i._ZN8cHwUSB_09configureEh) for i._ZN8cHwUSB_09configureEh
    lib.o(.ARM.exidx) refers to lib.o(i._ZN8cHwUSB_010setAddressEh) for i._ZN8cHwUSB_010setAddressEh
    lib.o(.ARM.exidx) refers to lib.o(i._ZN8cHwUSB_08configEPEhth) for i._ZN8cHwUSB_08configEPEhth
    lib.o(.ARM.exidx) refers to lib.o(i._ZN8cHwUSB_010setStallEPEh) for i._ZN8cHwUSB_010setStallEPEh
    lib.o(.ARM.exidx) refers to lib.o(i._ZN8cHwUSB_010clrStallEPEh) for i._ZN8cHwUSB_010clrStallEPEh
    lib.o(.ARM.exidx) refers to lib.o(i._ZN8cHwUSB_06readEPEhPht) for i._ZN8cHwUSB_06readEPEhPht
    lib.o(.ARM.exidx) refers to lib.o(i._ZN8cHwUSB_07writeEPEhPht) for i._ZN8cHwUSB_07writeEPEhPht
    lib.o(.ARM.exidx) refers to lib.o(i._ZN13cHwDAC_MAX521C1ER12cHwI2Cmasterh) for i._ZN13cHwDAC_MAX521C1ER12cHwI2Cmasterh
    lib.o(.ARM.exidx) refers to lib.o(i._ZN14cHwDAC_MAX5308C1ERN12cHwSPImaster6DeviceE) for i._ZN14cHwDAC_MAX5308C1ERN12cHwSPImaster6DeviceE
    lib.o(.ARM.exidx) refers to lib.o(i._ZN14cHwDAC_MAX53083setEth) for i._ZN14cHwDAC_MAX53083setEth
    lib.o(.ARM.exidx) refers to lib.o(i._ZN14cHwDAC_MCP4441C1ER12cHwI2Cmasterh) for i._ZN14cHwDAC_MCP4441C1ER12cHwI2Cmasterh
    lib.o(.ARM.exidx) refers to lib.o(i._ZN14cHwDAC_MCP44413setEth) for i._ZN14cHwDAC_MCP44413setEth
    lib.o(.ARM.exidx) refers to lib.o(i._ZN14cHwDAC_MCP4922C1ERN12cHwSPImaster6DeviceEh) for i._ZN14cHwDAC_MCP4922C1ERN12cHwSPImaster6DeviceEh
    lib.o(.ARM.exidx) refers to lib.o(i._ZN14cHwDAC_MCP49223setEth) for i._ZN14cHwDAC_MCP49223setEth
    lib.o(.ARM.exidx) refers to lib.o(i._ZN10cHwDisplayC2Ehh) for i._ZN10cHwDisplayC2Ehh
    lib.o(.ARM.exidx) refers to lib.o(i._ZN14cHwDisplayFontC1EPK24cHwDisplayFontPropertiesPKh) for i._ZN14cHwDisplayFontC1EPK24cHwDisplayFontPropertiesPKh
    lib.o(.ARM.exidx) refers to lib.o(i._ZNK14cHwDisplayFont12getCharWidthEv) for i._ZNK14cHwDisplayFont12getCharWidthEv
    lib.o(.ARM.exidx) refers to lib.o(i._ZNK14cHwDisplayFont13getCharHeightEv) for i._ZNK14cHwDisplayFont13getCharHeightEv
    lib.o(.ARM.exidx) refers to lib.o(i._ZN14cHwDisplayFont7setCharEh) for i._ZN14cHwDisplayFont7setCharEh
    lib.o(.ARM.exidx) refers to lib.o(i._ZN14cHwDisplayFont8getPixelEhh) for i._ZN14cHwDisplayFont8getPixelEhh
    lib.o(.ARM.exidx) refers to lib.o(i._ZN17cHwDisplayGraphicC2E14cHwDisplayFonth) for i._ZN17cHwDisplayGraphicC2E14cHwDisplayFonth
    lib.o(.ARM.exidx) refers to lib.o(i._ZN17cHwDisplayGraphic7setFontE14cHwDisplayFonth) for i._ZN17cHwDisplayGraphic7setFontE14cHwDisplayFonth
    lib.o(.ARM.exidx) refers to lib.o(i._ZN17cHwDisplayGraphic7setZoomEh) for i._ZN17cHwDisplayGraphic7setZoomEh
    lib.o(.ARM.exidx) refers to lib.o(i._ZN17cHwDisplayGraphic12setBackColorEt) for i._ZN17cHwDisplayGraphic12setBackColorEt
    lib.o(.ARM.exidx) refers to lib.o(i._ZN17cHwDisplayGraphic13setPaintColorEt) for i._ZN17cHwDisplayGraphic13setPaintColorEt
    lib.o(.ARM.exidx) refers to lib.o(i._ZN17cHwDisplayGraphic12setTextColorEt) for i._ZN17cHwDisplayGraphic12setTextColorEt
    lib.o(.ARM.exidx) refers to lib.o(i._ZN17cHwDisplayGraphic12gotoPixelPosEtt) for i._ZN17cHwDisplayGraphic12gotoPixelPosEtt
    lib.o(.ARM.exidx) refers to lib.o(i._ZN17cHwDisplayGraphic11gotoTextPosEhh) for i._ZN17cHwDisplayGraphic11gotoTextPosEhh
    lib.o(.ARM.exidx) refers to lib.o(i._ZN17cHwDisplayGraphic7putCharEc) for i._ZN17cHwDisplayGraphic7putCharEc
    lib.o(.ARM.exidx) refers to lib.o(i._ZN17cHwDisplayGraphic8putPixelEtt) for i._ZN17cHwDisplayGraphic8putPixelEtt
    lib.o(.ARM.exidx) refers to lib.o(i._ZN17cHwDisplayGraphic12putRectangleEtttt) for i._ZN17cHwDisplayGraphic12putRectangleEtttt
    lib.o(.ARM.exidx) refers to lib.o(i._ZN17cHwDisplayGraphic9putBitmapEttttPKt) for i._ZN17cHwDisplayGraphic9putBitmapEttttPKt
    lib.o(.ARM.exidx) refers to lib.o(i._ZN20cHwDisp_SPFD5408Bspi4initEv) for i._ZN20cHwDisp_SPFD5408Bspi4initEv
    lib.o(.ARM.exidx) refers to lib.o(i._ZN20cHwDisp_SPFD5408BspiC1ERN12cHwSPImaster6DeviceERN7cHwPort3PinE14cHwDisplayFonth) for i._ZN20cHwDisp_SPFD5408BspiC1ERN12cHwSPImaster6DeviceERN7cHwPort3PinE14cHwDisplayFonth
    lib.o(.ARM.exidx) refers to lib.o(i._ZN20cHwDisp_SPFD5408Bspi5clearEv) for i._ZN20cHwDisp_SPFD5408Bspi5clearEv
    lib.o(.ARM.exidx) refers to lib.o(i._ZN14cHwDisp_DIP2048waitBusyEv) for i._ZN14cHwDisp_DIP2048waitBusyEv
    lib.o(.ARM.exidx) refers to lib.o(i._ZN14cHwDisp_DIP2048writeCmdEh) for i._ZN14cHwDisp_DIP2048writeCmdEh
    lib.o(.ARM.exidx) refers to lib.o(i._ZN14cHwDisp_DIP2044initEv) for i._ZN14cHwDisp_DIP2044initEv
    lib.o(.ARM.exidx) refers to lib.o(i._ZN14cHwDisp_DIP204C1ER7cHwPort) for i._ZN14cHwDisp_DIP204C1ER7cHwPort
    lib.o(.ARM.exidx) refers to lib.o(i._ZN14cHwDisp_DIP2045clearEv) for i._ZN14cHwDisp_DIP2045clearEv
    lib.o(.ARM.exidx) refers to lib.o(i._ZN14cHwDisp_DIP20411gotoTextPosEhh) for i._ZN14cHwDisp_DIP20411gotoTextPosEhh
    lib.o(.ARM.exidx) refers to lib.o(i._ZN14cHwDisp_DIP2048writeDatEh) for i._ZN14cHwDisp_DIP2048writeDatEh
    lib.o(.ARM.exidx) refers to lib.o(i._ZN14cHwDisp_DIP2047putCharEc) for i._ZN14cHwDisp_DIP2047putCharEc
    lib.o(.ARM.exidx) refers to lib.o(i._ZN17cHwDisp_DIP204spi8waitBusyEv) for i._ZN17cHwDisp_DIP204spi8waitBusyEv
    lib.o(.ARM.exidx) refers to lib.o(i._ZN17cHwDisp_DIP204spi8writeCmdEh) for i._ZN17cHwDisp_DIP204spi8writeCmdEh
    lib.o(.ARM.exidx) refers to lib.o(i._ZN17cHwDisp_DIP204spi4initEv) for i._ZN17cHwDisp_DIP204spi4initEv
    lib.o(.ARM.exidx) refers to lib.o(i._ZN17cHwDisp_DIP204spiC1ERN12cHwSPImaster6DeviceE) for i._ZN17cHwDisp_DIP204spiC1ERN12cHwSPImaster6DeviceE
    lib.o(.ARM.exidx) refers to lib.o(i._ZN17cHwDisp_DIP204spi5clearEv) for i._ZN17cHwDisp_DIP204spi5clearEv
    lib.o(.ARM.exidx) refers to lib.o(i._ZN17cHwDisp_DIP204spi11gotoTextPosEhh) for i._ZN17cHwDisp_DIP204spi11gotoTextPosEhh
    lib.o(.ARM.exidx) refers to lib.o(i._ZN17cHwDisp_DIP204spi8writeDatEh) for i._ZN17cHwDisp_DIP204spi8writeDatEh
    lib.o(.ARM.exidx) refers to lib.o(i._ZN17cHwDisp_DIP204spi7putCharEc) for i._ZN17cHwDisp_DIP204spi7putCharEc
    lib.o(.ARM.exidx) refers to lib.o(i._ZN18cHwDisp_ILI9341spi4initEv) for i._ZN18cHwDisp_ILI9341spi4initEv
    lib.o(.ARM.exidx) refers to lib.o(i._ZN18cHwDisp_ILI9341spiC1ERN12cHwSPImaster6DeviceERN7cHwPort3PinE14cHwDisplayFonth) for i._ZN18cHwDisp_ILI9341spiC1ERN12cHwSPImaster6DeviceERN7cHwPort3PinE14cHwDisplayFonth
    lib.o(.ARM.exidx) refers to lib.o(i._ZN18cHwDisp_ILI9341spi5clearEv) for i._ZN18cHwDisp_ILI9341spi5clearEv
    lib.o(.ARM.exidx) refers to lib.o(i._ZN18cHwDisp_ILI9341spi7setAreaEtttt) for i._ZN18cHwDisp_ILI9341spi7setAreaEtttt
    lib.o(.ARM.exidx) refers to lib.o(i._ZN18cHwDisp_ILI9341spi8setPixelEttt) for i._ZN18cHwDisp_ILI9341spi8setPixelEttt
    lib.o(.ARM.exidx) refers to lib.o(i._ZN18cHwDisp_ILI9341spi8setPixelEt) for i._ZN18cHwDisp_ILI9341spi8setPixelEt
    lib.o(.ARM.exidx) refers to lib.o(i._ZN16cHwDisp_Terminal7sendESCEPKc) for i._ZN16cHwDisp_Terminal7sendESCEPKc
    lib.o(.ARM.exidx) refers to lib.o(i._ZN16cHwDisp_TerminalC1ER7cHwUART) for i._ZN16cHwDisp_TerminalC1ER7cHwUART
    lib.o(.ARM.exidx) refers to lib.o(i._ZN16cHwEEPROM_24C256C1ER12cHwI2Cmasterh) for i._ZN16cHwEEPROM_24C256C1ER12cHwI2Cmasterh
    lib.o(.ARM.exidx) refers to lib.o(i._ZN16cHwEEPROM_24C2566unlockEv) for i._ZN16cHwEEPROM_24C2566unlockEv
    lib.o(.ARM.exidx) refers to lib.o(i._ZN16cHwEEPROM_24C2564lockEv) for i._ZN16cHwEEPROM_24C2564lockEv
    lib.o(.ARM.exidx) refers to lib.o(i._ZN16cHwEEPROM_24C2569writeByteEjh) for i._ZN16cHwEEPROM_24C2569writeByteEjh
    lib.o(.ARM.exidx) refers to lib.o(i._ZN16cHwEEPROM_24C2568readByteEj) for i._ZN16cHwEEPROM_24C2568readByteEj
    lib.o(.ARM.exidx) refers to lib.o(i._ZN20cHwEthernet_Enc28j606ReadOpEhh) for i._ZN20cHwEthernet_Enc28j606ReadOpEhh
    lib.o(.ARM.exidx) refers to lib.o(i._ZN20cHwEthernet_Enc28j607WriteOpEhhh) for i._ZN20cHwEthernet_Enc28j607WriteOpEhhh
    lib.o(.ARM.exidx) refers to lib.o(i._ZN20cHwEthernet_Enc28j607SetBankEh) for i._ZN20cHwEthernet_Enc28j607SetBankEh
    lib.o(.ARM.exidx) refers to lib.o(i._ZN20cHwEthernet_Enc28j604ReadEh) for i._ZN20cHwEthernet_Enc28j604ReadEh
    lib.o(.ARM.exidx) refers to lib.o(i._ZN20cHwEthernet_Enc28j609WriteWordEht) for i._ZN20cHwEthernet_Enc28j609WriteWordEht
    lib.o(.ARM.exidx) refers to lib.o(i._ZN20cHwEthernet_Enc28j609WriteByteEhh) for i._ZN20cHwEthernet_Enc28j609WriteByteEhh
    lib.o(.ARM.exidx) refers to lib.o(i._ZN20cHwEthernet_Enc28j608PhyWriteEht) for i._ZN20cHwEthernet_Enc28j608PhyWriteEht
    lib.o(.ARM.exidx) refers to lib.o(i._ZN20cHwEthernet_Enc28j607InitPhyEv) for i._ZN20cHwEthernet_Enc28j607InitPhyEv
    lib.o(.ARM.exidx) refers to lib.o(i._ZN20cHwEthernet_Enc28j604InitERK8cNetAddrILh6EE) for i._ZN20cHwEthernet_Enc28j604InitERK8cNetAddrILh6EE
    lib.o(.ARM.exidx) refers to lib.o(i._ZN20cHwEthernet_Enc28j60C1ERK8cNetAddrILh6EERN12cHwSPImaster6DeviceE) for i._ZN20cHwEthernet_Enc28j60C1ERK8cNetAddrILh6EERN12cHwSPImaster6DeviceE
    lib.o(.ARM.exidx) refers to lib.o(i._ZN20cHwEthernet_Enc28j606createE8cNetAddrILh6EEt) for i._ZN20cHwEthernet_Enc28j606createE8cNetAddrILh6EEt
    lib.o(.ARM.exidx) refers to lib.o(i._ZN20cHwEthernet_Enc28j6011WriteBufferEtPh) for i._ZN20cHwEthernet_Enc28j6011WriteBufferEtPh
    lib.o(.ARM.exidx) refers to lib.o(i._ZN20cHwEthernet_Enc28j6010PacketSendEPht) for i._ZN20cHwEthernet_Enc28j6010PacketSendEPht
    lib.o(.ARM.exidx) refers to lib.o(i._ZN20cHwEthernet_Enc28j6010ReadBufferEtPh) for i._ZN20cHwEthernet_Enc28j6010ReadBufferEtPh
    lib.o(.ARM.exidx) refers to lib.o(i._ZN20cHwEthernet_Enc28j6013PacketReceiveEv) for i._ZN20cHwEthernet_Enc28j6013PacketReceiveEv
    lib.o(.ARM.exidx) refers to lib.o(i._ZN20cHwEthernet_Enc28j607getTypeEv) for i._ZN20cHwEthernet_Enc28j607getTypeEv
    lib.o(.ARM.exidx) refers to lib.o(i._ZN20cHwEthernet_Enc28j606getrevEv) for i._ZN20cHwEthernet_Enc28j606getrevEv
    lib.o(.ARM.exidx) refers to lib.o(i._ZN15cHwPort_PCF8574C2ER12cHwI2CmasterhP8cHwTimer) for i._ZN15cHwPort_PCF8574C2ER12cHwI2CmasterhP8cHwTimer
    lib.o(.ARM.exidx) refers to lib.o(i._ZN15cHwPort_PCF85746updateEv) for i._ZN15cHwPort_PCF85746updateEv
    lib.o(.ARM.exidx) refers to lib.o(i._ZThn4_N15cHwPort_PCF85746updateEv) for i._ZThn4_N15cHwPort_PCF85746updateEv
    lib.o(.ARM.exidx) refers to lib.o(i._ZN15cHwPort_PCF85746setDirEj) for i._ZN15cHwPort_PCF85746setDirEj
    lib.o(.ARM.exidx) refers to lib.o(i._ZN15cHwPort_PCF85746clrDirEj) for i._ZN15cHwPort_PCF85746clrDirEj
    lib.o(.ARM.exidx) refers to lib.o(i._ZN15cHwPort_PCF85743setEj) for i._ZN15cHwPort_PCF85743setEj
    lib.o(.ARM.exidx) refers to lib.o(i._ZN15cHwPort_PCF85743setEjj) for i._ZN15cHwPort_PCF85743setEjj
    lib.o(.ARM.exidx) refers to lib.o(i._ZN15cHwPort_PCF85743clrEj) for i._ZN15cHwPort_PCF85743clrEj
    lib.o(.ARM.exidx) refers to lib.o(i._ZN15cHwPort_PCF85743getEv) for i._ZN15cHwPort_PCF85743getEv
    lib.o(.ARM.exidx) refers to lib.o(i._ZN16cHwPort_TerminalC1ER7cHwUARTjP8cHwTimer) for i._ZN16cHwPort_TerminalC1ER7cHwUARTjP8cHwTimer
    lib.o(.ARM.exidx) refers to lib.o(i._ZN16cHwPort_Terminal6updateEv) for i._ZN16cHwPort_Terminal6updateEv
    lib.o(.ARM.exidx) refers to lib.o(i._ZThn4_N16cHwPort_Terminal6updateEv) for i._ZThn4_N16cHwPort_Terminal6updateEv
    lib.o(.ARM.exidx) refers to lib.o(i._ZN16cHwPort_Terminal7setModeEjN7cHwPort4ModeE) for i._ZN16cHwPort_Terminal7setModeEjN7cHwPort4ModeE
    lib.o(.ARM.exidx) refers to lib.o(i._ZN16cHwPort_Terminal10setPinModeEhN7cHwPort4ModeE) for i._ZN16cHwPort_Terminal10setPinModeEhN7cHwPort4ModeE
    lib.o(.ARM.exidx) refers to lib.o(i._ZN16cHwPort_Terminal3setEj) for i._ZN16cHwPort_Terminal3setEj
    lib.o(.ARM.exidx) refers to lib.o(i._ZN16cHwPort_Terminal3setEjj) for i._ZN16cHwPort_Terminal3setEjj
    lib.o(.ARM.exidx) refers to lib.o(i._ZN16cHwPort_Terminal3clrEj) for i._ZN16cHwPort_Terminal3clrEj
    lib.o(.ARM.exidx) refers to lib.o(i._ZN16cHwPort_Terminal3getEv) for i._ZN16cHwPort_Terminal3getEv
    lib.o(.ARM.exidx) refers to lib.o(i._ZN14cHwRAM_PCF8583C2ER12cHwI2Cmasterh) for i._ZN14cHwRAM_PCF8583C2ER12cHwI2Cmasterh
    lib.o(.ARM.exidx) refers to lib.o(i._ZN14cHwRAM_PCF85839writeByteEjh) for i._ZN14cHwRAM_PCF85839writeByteEjh
    lib.o(.ARM.exidx) refers to lib.o(i._ZN14cHwRAM_PCF85838readByteEj) for i._ZN14cHwRAM_PCF85838readByteEj
    lib.o(.ARM.exidx) refers to lib.o(i._ZN14cHwRTC_PCF8583C1ER12cHwI2Cmasterh) for i._ZN14cHwRTC_PCF8583C1ER12cHwI2Cmasterh
    lib.o(.ARM.exidx) refers to lib.o(i._ZN14cHwRTC_PCF85833setERKN6cHwRTC10PropertiesE) for i._ZN14cHwRTC_PCF85833setERKN6cHwRTC10PropertiesE
    lib.o(.ARM.exidx) refers to lib.o(i._ZN14cHwRTC_PCF85833getERN6cHwRTC10PropertiesE) for i._ZN14cHwRTC_PCF85833getERN6cHwRTC10PropertiesE
    lib.o(.ARM.exidx) refers to lib.o(i._ZN8cHwTouchC2Ett) for i._ZN8cHwTouchC2Ett
    lib.o(.ARM.exidx) refers to lib.o(i._ZN16cHwTouch_ADS7846C1ERN12cHwSPImaster6DeviceEtt) for i._ZN16cHwTouch_ADS7846C1ERN12cHwSPImaster6DeviceEtt
    lib.o(.ARM.exidx) refers to lib.o(i._ZN16cHwTouch_ADS78468readDataEh) for i._ZN16cHwTouch_ADS78468readDataEh
    lib.o(.ARM.exidx) refers to lib.o(i._ZN16cHwTouch_ADS78466updateEv) for i._ZN16cHwTouch_ADS78466updateEv
    lib.o(.ARM.exidx) refers to lib.o(i._ZN20cHwTouch_STMPE811i2cC1ER12cHwI2Cmasterhtt) for i._ZN20cHwTouch_STMPE811i2cC1ER12cHwI2Cmasterhtt
    lib.o(.ARM.exidx) refers to lib.o(i._ZN20cHwTouch_STMPE811i2c6updateEv) for i._ZN20cHwTouch_STMPE811i2c6updateEv
    lib.o(.ARM.exidx) refers to lib.o(i._ZN13cNetTransportC2Ev) for i._ZN13cNetTransportC2Ev
    lib.o(.ARM.exidx) refers to lib.o(i._ZN13cNetTransport7processEv) for i._ZN13cNetTransport7processEv
    lib.o(.ARM.exidx) refers to lib.o(i._ZN13cNetTransport6updateEv) for i._ZN13cNetTransport6updateEv
    lib.o(.ARM.exidx) refers to lib.o(i._ZN13cNetTransport7timeoutEv) for i._ZN13cNetTransport7timeoutEv
    lib.o(.ARM.exidx) refers to lib.o(i._ZN13cNetTransport6SocketC2ERS_R15cNetApplication8cNetAddrILh4EEtt) for i._ZN13cNetTransport6SocketC2ERS_R15cNetApplication8cNetAddrILh4EEtt
    lib.o(.ARM.exidx) refers to lib.o(i._ZN13cNetTransport6Socket11getRemoteIPEv) for i._ZN13cNetTransport6Socket11getRemoteIPEv
    lib.o(.ARM.exidx) refers to lib.o(i._ZN7cNetARPC1ER11cHwEthernetR8cNetAddrILh4EE) for i._ZN7cNetARPC1ER11cHwEthernetR8cNetAddrILh4EE
    lib.o(.ARM.exidx) refers to lib.o(i._ZN7cNetARP7requestER8cNetAddrILh4EE) for i._ZN7cNetARP7requestER8cNetAddrILh4EE
    lib.o(.ARM.exidx) refers to lib.o(i._ZN7cNetARP6setTCPEP7cNetTCP) for i._ZN7cNetARP6setTCPEP7cNetTCP
    lib.o(.ARM.exidx) refers to lib.o(i._ZN7cNetARP6setUDPEP7cNetUDP) for i._ZN7cNetARP6setUDPEP7cNetUDP
    lib.o(.ARM.exidx) refers to lib.o(i._ZN6cNetIPC1ER11cHwEthernetRK8cNetAddrILh4EER8cHwTimer) for i._ZN6cNetIPC1ER11cHwEthernetRK8cNetAddrILh4EER8cHwTimer
    lib.o(.ARM.exidx) refers to lib.o(i._ZN7cNetUDPC1ER6cNetIP) for i._ZN7cNetUDPC1ER6cNetIP
    lib.o(.ARM.exidx) refers to lib.o(i._ZN7cNetUDP9handleARPE8cNetAddrILh4EES0_ILh6EE) for i._ZN7cNetUDP9handleARPE8cNetAddrILh4EES0_ILh6EE
    lib.o(.ARM.exidx) refers to lib.o(i._ZN7cNetUDP6createERNS_6SocketEt) for i._ZN7cNetUDP6createERNS_6SocketEt
    lib.o(.ARM.exidx) refers to lib.o(i._ZN7cNetUDP6SocketC1ERS_R15cNetApplication8cNetAddrILh4EEtt) for i._ZN7cNetUDP6SocketC1ERS_R15cNetApplication8cNetAddrILh4EEtt
    lib.o(.ARM.exidx) refers to lib.o(i._ZN7cNetUDP6Socket4openE8cNetAddrILh4EEt) for i._ZN7cNetUDP6Socket4openE8cNetAddrILh4EEt
    lib.o(.ARM.exidx) refers to lib.o(i._ZN7cNetUDP6Socket5closeEv) for i._ZN7cNetUDP6Socket5closeEv
    lib.o(.ARM.exidx) refers to lib.o(i._ZN7cNetUDP6Socket11isConnectedEv) for i._ZN7cNetUDP6Socket11isConnectedEv
    lib.o(.ARM.exidx) refers to lib.o(i._ZN7cNetUDP6Socket7isReadyEv) for i._ZN7cNetUDP6Socket7isReadyEv
    lib.o(.ARM.exidx) refers to lib.o(i._ZN7cNetUDP6Socket5clearEv) for i._ZN7cNetUDP6Socket5clearEv
    lib.o(.ARM.exidx) refers to lib.o(i._ZN7cNetUDP6Socket10fillBufferEc) for i._ZN7cNetUDP6Socket10fillBufferEc
    lib.o(.ARM.exidx) refers to lib.o(i._ZN7cNetUDP6Socket4sendEv) for i._ZN7cNetUDP6Socket4sendEv
    lib.o(.ARM.exidx) refers to lib.o(i._ZN7cNetUDP6Socket3getEPc) for i._ZN7cNetUDP6Socket3getEPc
    lib.o(.ARM.exidx) refers to lib.o(i._ZN7cNetUDP6Socket10getDataPtrEv) for i._ZN7cNetUDP6Socket10getDataPtrEv
    lib.o(.ARM.exidx) refers to lib.o(i._ZN7cNetUDP6Socket13setDataLengthEt) for i._ZN7cNetUDP6Socket13setDataLengthEt
    lib.o(.ARM.exidx) refers to lib.o(i._ZN7cNetUDP6Socket7processEv) for i._ZN7cNetUDP6Socket7processEv
    lib.o(.ARM.exidx) refers to lib.o(i._ZN7cNetUDP6Socket6updateEv) for i._ZN7cNetUDP6Socket6updateEv
    lib.o(.ARM.exidx) refers to lib.o(i._ZN7cNetUDP6Socket7timeoutEv) for i._ZN7cNetUDP6Socket7timeoutEv
    lib.o(.ARM.exidx) refers to lib.o(i._ZN8cNetDHCPC1ER7cNetUDPPKc) for i._ZN8cNetDHCPC1ER7cNetUDPPKc
    lib.o(.ARM.exidx) refers to lib.o(i._ZN8cNetDHCP4sendEh) for i._ZN8cNetDHCP4sendEh
    lib.o(.ARM.exidx) refers to lib.o(i._ZN8cNetDHCP13parse_optionsEPhi) for i._ZN8cNetDHCP13parse_optionsEPhi
    lib.o(.ARM.exidx) refers to lib.o(i._ZN8cNetDHCP7processEv) for i._ZN8cNetDHCP7processEv
    lib.o(.ARM.exidx) refers to lib.o(i._ZN8cNetDHCP7timeoutEv) for i._ZN8cNetDHCP7timeoutEv
    lib.o(.ARM.exidx) refers to lib.o(i._ZN8cNetICMPC1ER6cNetIP) for i._ZN8cNetICMPC1ER6cNetIP
    lib.o(.ARM.exidx) refers to lib.o(i._ZN7cNetTCPC1ER6cNetIP) for i._ZN7cNetTCPC1ER6cNetIP
    lib.o(.ARM.exidx) refers to lib.o(i._ZN7cNetTCP9handleARPE8cNetAddrILh4EES0_ILh6EE) for i._ZN7cNetTCP9handleARPE8cNetAddrILh4EES0_ILh6EE
    lib.o(.ARM.exidx) refers to lib.o(i._ZN7cNetTCP6createERNS_6SocketEt) for i._ZN7cNetTCP6createERNS_6SocketEt
    lib.o(.ARM.exidx) refers to lib.o(i._ZN7cNetTCP6SocketC1ERS_R15cNetApplication8cNetAddrILh4EEtt) for i._ZN7cNetTCP6SocketC1ERS_R15cNetApplication8cNetAddrILh4EEtt
    lib.o(.ARM.exidx) refers to lib.o(i._ZN7cNetTCP6Socket4openE8cNetAddrILh4EEt) for i._ZN7cNetTCP6Socket4openE8cNetAddrILh4EEt
    lib.o(.ARM.exidx) refers to lib.o(i._ZN7cNetTCP6Socket5closeEv) for i._ZN7cNetTCP6Socket5closeEv
    lib.o(.ARM.exidx) refers to lib.o(i._ZN7cNetTCP6Socket11isConnectedEv) for i._ZN7cNetTCP6Socket11isConnectedEv
    lib.o(.ARM.exidx) refers to lib.o(i._ZN7cNetTCP6Socket7isReadyEv) for i._ZN7cNetTCP6Socket7isReadyEv
    lib.o(.ARM.exidx) refers to lib.o(i._ZN7cNetTCP6Socket5clearEv) for i._ZN7cNetTCP6Socket5clearEv
    lib.o(.ARM.exidx) refers to lib.o(i._ZN7cNetTCP6Socket10fillBufferEc) for i._ZN7cNetTCP6Socket10fillBufferEc
    lib.o(.ARM.exidx) refers to lib.o(i._ZN7cNetTCP6Socket4sendEv) for i._ZN7cNetTCP6Socket4sendEv
    lib.o(.ARM.exidx) refers to lib.o(i._ZN7cNetTCP6Socket3getEPc) for i._ZN7cNetTCP6Socket3getEPc
    lib.o(.ARM.exidx) refers to lib.o(i._ZN7cNetTCP6Socket10getDataPtrEv) for i._ZN7cNetTCP6Socket10getDataPtrEv
    lib.o(.ARM.exidx) refers to lib.o(i._ZN7cNetTCP6Socket13setDataLengthEt) for i._ZN7cNetTCP6Socket13setDataLengthEt
    lib.o(.ARM.exidx) refers to lib.o(i._ZN7cNetTCP6Socket7processEv) for i._ZN7cNetTCP6Socket7processEv
    lib.o(.ARM.exidx) refers to lib.o(i._ZN7cNetTCP6Socket6updateEv) for i._ZN7cNetTCP6Socket6updateEv
    lib.o(.ARM.exidx) refers to lib.o(i._ZN7cNetTCP6Socket7timeoutEv) for i._ZN7cNetTCP6Socket7timeoutEv
    lib.o(.ARM.exidx) refers to lib.o(i._ZN17cHwSensMag_LSM303C1ER12cHwI2Cmaster) for i._ZN17cHwSensMag_LSM303C1ER12cHwI2Cmaster
    lib.o(.ARM.exidx) refers to lib.o(i._ZN18cHwSensGyro_L3GD20C1ER12cHwI2Cmasterh) for i._ZN18cHwSensGyro_L3GD20C1ER12cHwI2Cmasterh
    lib.o(.ARM.exidx) refers to lib.o(i._ZN17cHwSensAcc_LSM303C1ER12cHwI2Cmaster) for i._ZN17cHwSensAcc_LSM303C1ER12cHwI2Cmaster
    lib.o(.ARM.exidx) refers to lib.o(i._ZN4cCRCC1ENS_4MODEEtt) for i._ZN4cCRCC1ENS_4MODEEtt
    lib.o(.ARM.exidx) refers to lib.o(i._ZN4cCRCD1Ev) for i._ZN4cCRCD1Ev
    lib.o(.ARM.exidx) refers to lib.o(i._ZN4cCRCclEPKhj) for i._ZN4cCRCclEPKhj
    lib.o(.ARM.exidx) refers to lib.o(i._ZN4cCRCclEh) for i._ZN4cCRCclEh
    lib.o(.ARM.exidx) refers to lib.o(i._ZN6cTimerC2Ev) for i._ZN6cTimerC2Ev
    lib.o(.ARM.exidx) refers to lib.o(i._ZN6cTimer5startEv) for i._ZN6cTimer5startEv
    lib.o(.ARM.exidx) refers to lib.o(i._ZN6cTimer3setEtt) for i._ZN6cTimer3setEtt
    lib.o(.ARM.exidx) refers to lib.o(i._ZN6cTimer5startEtt) for i._ZN6cTimer5startEtt
    lib.o(.ARM.exidx) refers to lib.o(i._ZN6cTimer7timeoutEv) for i._ZN6cTimer7timeoutEv
    lib.o(.ARM.exidx) refers to lib.o(i._ZN6cTimer7timeoutEtt) for i._ZN6cTimer7timeoutEtt
    lib.o(.ARM.exidx) refers to lib.o(i._ZN6cTimer4stopEv) for i._ZN6cTimer4stopEv
    lib.o(.ARM.exidx) refers to lib.o(i._ZN10cDevAnalogC1Ehff) for i._ZN10cDevAnalogC1Ehff
    lib.o(.ARM.exidx) refers to lib.o(i._ZN12cDevAnalogInC2Ehff) for i._ZN12cDevAnalogInC2Ehff
    lib.o(.ARM.exidx) refers to lib.o(i._ZN12cDevAnalogIn9calibrateEffff) for i._ZN12cDevAnalogIn9calibrateEffff
    lib.o(.ARM.exidx) refers to lib.o(i._ZN15cDevAnalogInADCC1ER6cHwADChff) for i._ZN15cDevAnalogInADCC1ER6cHwADChff
    lib.o(.ARM.exidx) refers to lib.o(i._ZN15cDevAnalogInADC6getRawEv) for i._ZN15cDevAnalogInADC6getRawEv
    lib.o(.ARM.exidx) refers to lib.o(i._ZN13cDevAnalogOutC2Ehff) for i._ZN13cDevAnalogOutC2Ehff
    lib.o(.ARM.exidx) refers to lib.o(i._ZN13cDevAnalogOut3setEf) for i._ZN13cDevAnalogOut3setEf
    lib.o(.ARM.exidx) refers to lib.o(i._ZN16cDevAnalogOutDACC1ER6cHwDAChff) for i._ZN16cDevAnalogOutDACC1ER6cHwDAChff
    lib.o(.ARM.exidx) refers to lib.o(i._ZN16cDevAnalogOutDAC6setRawEt) for i._ZN16cDevAnalogOutDAC6setRawEt
    lib.o(.ARM.exidx) refers to lib.o(i._ZN11cDevDigitalC1ER7cHwPorthNS_4ModeEb) for i._ZN11cDevDigitalC1ER7cHwPorthNS_4ModeEb
    lib.o(.ARM.exidx) refers to lib.o(i._ZN11cDevDigital7setModeENS_4ModeE) for i._ZN11cDevDigital7setModeENS_4ModeE
    lib.o(.ARM.exidx) refers to lib.o(i._ZN11cDevDigital3setEb) for i._ZN11cDevDigital3setEb
    lib.o(.ARM.exidx) refers to lib.o(i._ZN11cDevDigital3getEv) for i._ZN11cDevDigital3getEv
    lib.o(.ARM.exidx) refers to lib.o(i._ZN16cDevAnalogOutPWMC1ER8cHwTimerNS0_4ModeEhff) for i._ZN16cDevAnalogOutPWMC1ER8cHwTimerNS0_4ModeEhff
    lib.o(.ARM.exidx) refers to lib.o(i._ZN16cDevAnalogOutPWM6setRawEt) for i._ZN16cDevAnalogOutPWM6setRawEt
    lib.o(.ARM.exidx) refers to lib.o(i._ZN20cDevAnalogOutPWMemulC1ER8cHwTimerR11cDevDigitalhff) for i._ZN20cDevAnalogOutPWMemulC1ER8cHwTimerR11cDevDigitalhff
    lib.o(.ARM.exidx) refers to lib.o(i._ZN20cDevAnalogOutPWMemul6setRawEt) for i._ZN20cDevAnalogOutPWMemul6setRawEt
    lib.o(.ARM.exidx) refers to lib.o(i._ZN20cDevAnalogOutPWMemul6updateEv) for i._ZN20cDevAnalogOutPWMemul6updateEv
    lib.o(.ARM.exidx) refers to lib.o(i._ZThn16_N20cDevAnalogOutPWMemul6updateEv) for i._ZThn16_N20cDevAnalogOutPWMemul6updateEv
    lib.o(.ARM.exidx) refers to lib.o(i._ZN20cDevDigitalIndicatorC1ER11cDevDigitalR8cHwTimer) for i._ZN20cDevDigitalIndicatorC1ER11cDevDigitalR8cHwTimer
    lib.o(.ARM.exidx) refers to lib.o(i._ZN20cDevDigitalIndicator6updateEv) for i._ZN20cDevDigitalIndicator6updateEv
    lib.o(.ARM.exidx) refers to lib.o(i._ZN11cDevDisplayC2Ev) for i._ZN11cDevDisplayC2Ev
    lib.o(.ARM.exidx) refers to lib.o(i._ZN15cDevDisplayCharC1ER10cHwDisplay) for i._ZN15cDevDisplayCharC1ER10cHwDisplay
    lib.o(.ARM.exidx) refers to lib.o(i._ZN15cDevDisplayChar5clearEv) for i._ZN15cDevDisplayChar5clearEv
    lib.o(.ARM.exidx) refers to lib.o(i._ZN15cDevDisplayChar6printfEhhPKc) for i._ZN15cDevDisplayChar6printfEhhPKc
    lib.o(.ARM.exidx) refers to lib.o(i._ZN15cDevDisplayChar6printfEhhhPKcz) for i._ZN15cDevDisplayChar6printfEhhhPKcz
    lib.o(.ARM.exidx) refers to lib.o(i._ZN18cDevDisplayGraphic5clearEv) for i._ZN18cDevDisplayGraphic5clearEv
    lib.o(.ARM.exidx) refers to lib.o(i._ZN18cDevDisplayGraphicC1ER17cHwDisplayGraphic) for i._ZN18cDevDisplayGraphicC1ER17cHwDisplayGraphic
    lib.o(.ARM.exidx) refers to lib.o(i._ZN18cDevDisplayGraphic6printfEhhhPKcz) for i._ZN18cDevDisplayGraphic6printfEhhhPKcz
    lib.o(.ARM.exidx) refers to lib.o(i._ZN18cDevDisplayGraphic7setFontE14cHwDisplayFonth) for i._ZN18cDevDisplayGraphic7setFontE14cHwDisplayFonth
    lib.o(.ARM.exidx) refers to lib.o(i._ZN18cDevDisplayGraphic7setZoomEh) for i._ZN18cDevDisplayGraphic7setZoomEh
    lib.o(.ARM.exidx) refers to lib.o(i._ZN18cDevDisplayGraphic12setBackColorEt) for i._ZN18cDevDisplayGraphic12setBackColorEt
    lib.o(.ARM.exidx) refers to lib.o(i._ZN18cDevDisplayGraphic12setTextColorEt) for i._ZN18cDevDisplayGraphic12setTextColorEt
    lib.o(.ARM.exidx) refers to lib.o(i._ZN18cDevDisplayGraphic8drawTextEttPKc) for i._ZN18cDevDisplayGraphic8drawTextEttPKc
    lib.o(.ARM.exidx) refers to lib.o(i._ZN18cDevDisplayGraphic8drawTextEtthPKcz) for i._ZN18cDevDisplayGraphic8drawTextEtthPKcz
    lib.o(.ARM.exidx) refers to lib.o(i._ZN18cDevDisplayGraphic9drawPixelEttt) for i._ZN18cDevDisplayGraphic9drawPixelEttt
    lib.o(.ARM.exidx) refers to lib.o(i._ZN18cDevDisplayGraphic13drawRectangleEttttt) for i._ZN18cDevDisplayGraphic13drawRectangleEttttt
    lib.o(.ARM.exidx) refers to lib.o(i._ZN18cDevDisplayGraphic9drawFrameEtttttt) for i._ZN18cDevDisplayGraphic9drawFrameEtttttt
    lib.o(.ARM.exidx) refers to lib.o(i._ZN18cDevDisplayGraphic10drawCircleEtttt) for i._ZN18cDevDisplayGraphic10drawCircleEtttt
    lib.o(.ARM.exidx) refers to lib.o(i._ZN18cDevDisplayGraphic8drawLineEtttttt) for i._ZN18cDevDisplayGraphic8drawLineEtttttt
    lib.o(.ARM.exidx) refers to lib.o(i._ZN18cDevDisplayGraphic10drawBitmapEttttPKt) for i._ZN18cDevDisplayGraphic10drawBitmapEttttPKt
    lib.o(.ARM.exidx) refers to lib.o(i._ZN18cDevDisplayGraphic14getDefaultFontEv) for i._ZN18cDevDisplayGraphic14getDefaultFontEv
    lib.o(.ARM.exidx) refers to lib.o(i._ZN10cDevMemoryC1ER9cHwMemoryt) for i._ZN10cDevMemoryC1ER9cHwMemoryt
    lib.o(.ARM.exidx) refers to lib.o(i._ZN10cDevMemory8allocateEt) for i._ZN10cDevMemory8allocateEt
    lib.o(.ARM.exidx) refers to lib.o(i._ZN10cDevMemory5writeEPhtt) for i._ZN10cDevMemory5writeEPhtt
    lib.o(.ARM.exidx) refers to lib.o(i._ZN10cDevMemory4readEPhtt) for i._ZN10cDevMemory4readEPhtt
    lib.o(.ARM.exidx) refers to lib.o(i._ZN10cDevMemory5clearEv) for i._ZN10cDevMemory5clearEv
    lib.o(.ARM.exidx) refers to lib.o(i._ZN10cDevMemory8setValidEv) for i._ZN10cDevMemory8setValidEv
    lib.o(.ARM.exidx) refers to lib.o(i._ZN10cDevMemory7isValidEv) for i._ZN10cDevMemory7isValidEv
    lib.o(.ARM.exidx) refers to lib.o(i._ZN10cDevTextIOC2EhhPKcS1_) for i._ZN10cDevTextIOC2EhhPKcS1_
    lib.o(.ARM.exidx) refers to lib.o(i._ZN10cDevTextIO9getStringEv) for i._ZN10cDevTextIO9getStringEv
    lib.o(.ARM.exidx) refers to lib.o(i._ZN10cDevTextIO6printfEPKcz) for i._ZN10cDevTextIO6printfEPKcz
    lib.o(.ARM.exidx) refers to lib.o(i._ZN15cDevTextIO_UARTC1ER7cHwUARThhPKcS3_) for i._ZN15cDevTextIO_UARTC1ER7cHwUARThhPKcS3_
    lib.o(.ARM.exidx) refers to lib.o(i._ZN18cDevControlEncoderC2EP11cDevDigitalP8cHwTimer) for i._ZN18cDevControlEncoderC2EP11cDevDigitalP8cHwTimer
    lib.o(.ARM.exidx) refers to lib.o(i._ZN18cDevControlEncoder3getEv) for i._ZN18cDevControlEncoder3getEv
    lib.o(.ARM.exidx) refers to lib.o(i._ZN18cDevControlEncoder6updateEv) for i._ZN18cDevControlEncoder6updateEv
    lib.o(.ARM.exidx) refers to lib.o(i._ZN18cDevControlEncoder7getCtrlEv) for i._ZN18cDevControlEncoder7getCtrlEv
    lib.o(.ARM.exidx) refers to lib.o(i._ZN26cDevControlEncoderJoystickC1EP11cDevDigitalS1_S1_P8cHwTimert) for i._ZN26cDevControlEncoderJoystickC1EP11cDevDigitalS1_S1_P8cHwTimert
    lib.o(.ARM.exidx) refers to lib.o(i._ZN26cDevControlEncoderJoystick12getIncrementEv) for i._ZN26cDevControlEncoderJoystick12getIncrementEv
    lib.o(.ARM.exidx) refers to lib.o(i._ZN28cDevControlEncoderRotaryKnobC1EP11cDevDigitalS1_S1_P8cHwTimer) for i._ZN28cDevControlEncoderRotaryKnobC1EP11cDevDigitalS1_S1_P8cHwTimer
    lib.o(.ARM.exidx) refers to lib.o(i._ZN28cDevControlEncoderRotaryKnob12getIncrementEv) for i._ZN28cDevControlEncoderRotaryKnob12getIncrementEv
    lib.o(.ARM.exidx) refers to lib.o(i._ZN18cDevControlPointerC1ER8cHwTouch) for i._ZN18cDevControlPointerC1ER8cHwTouch
    lib.o(.ARM.exidx) refers to lib.o(i._ZN18cDevControlPointer3getEv) for i._ZN18cDevControlPointer3getEv
    lib.o(.ARM.exidx) refers to lib.o(i._ZN12cTaskHandlerC1EP8cHwTimer) for i._ZN12cTaskHandlerC1EP8cHwTimer
    lib.o(.ARM.exidx) refers to lib.o(i._ZN12cTaskHandlerC1EPS_) for i._ZN12cTaskHandlerC1EPS_
    lib.o(.ARM.exidx) refers to lib.o(i._ZN12cTaskHandler7addTaskEPNS_4TaskE) for i._ZN12cTaskHandler7addTaskEPNS_4TaskE
    lib.o(.ARM.exidx) refers to lib.o(i._ZN12cTaskHandler4TaskC2ERS_) for i._ZN12cTaskHandler4TaskC2ERS_
    lib.o(.ARM.exidx) refers to lib.o(i._ZN12cTaskHandler5TimerC1ERS_tt) for i._ZN12cTaskHandler5TimerC1ERS_tt
    lib.o(.ARM.exidx) refers to lib.o(i._ZN12cTaskHandler5Timer7getTicsEv) for i._ZN12cTaskHandler5Timer7getTicsEv
    lib.o(.ARM.exidx) refers to lib.o(i._ZN12cTaskHandler5Timer12getTimeOfTicEv) for i._ZN12cTaskHandler5Timer12getTimeOfTicEv
    lib.o(.ARM.exidx) refers to lib.o(i._ZN11cHwI2CslaveC1ERNS_11DataHandlerEh) for i._ZN11cHwI2CslaveC1ERNS_11DataHandlerEh
    lib.o(.ARM.exidx) refers to lib.o(i._ZN11cHwSPIslaveC1ERNS_11DataHandlerE) for i._ZN11cHwSPIslaveC1ERNS_11DataHandlerE
    lib.o(.ARM.exidx) refers to lib.o(i._Z14NVIC_EnableIRQ4IRQn) for i._Z14NVIC_EnableIRQ4IRQn
    rtos.o(i._ZN5cRTOS4Task4StopEv) refers to rtos.o(i._ZN5cRTOS4StopERNS_4TaskE) for cRTOS::Stop(cRTOS::Task&)
    rtos.o(i._ZN5cRTOS4Task5PauseEt) refers to rtos.o(i._ZN11cHwRTOS_MCU10getSysTimeEv) for cHwRTOS_MCU::getSysTime()
    rtos.o(i._ZN5cRTOS4Task5PauseEt) refers to rtos.o(i._ZN5cRTOS5PauseERNS_4TaskE) for cRTOS::Pause(cRTOS::Task&)
    rtos.o(i._ZN5cRTOS4Task5StartEv) refers to rtos.o(i._ZN5cRTOS5StartERNS_4TaskE) for cRTOS::Start(cRTOS::Task&)
    rtos.o(i._ZN5cRTOS4Task6FinishEv) refers to rtos.o(i._ZN5cRTOS4StopERNS_4TaskE) for cRTOS::Stop(cRTOS::Task&)
    rtos.o(i._ZN5cRTOS4TaskC2ERS_j) refers to h1_alloc.o(.text) for malloc
    rtos.o(i._ZN5cRTOS4TaskC2ERS_j) refers to rtos.o(.constdata__ZTVN5cRTOS4TaskE) for vtable for cRTOS::Task
    rtos.o(i._ZN5cRTOS4TaskD0Ev) refers to rtos.o(i._ZN5cRTOS4TaskD2Ev) for cRTOS::Task::~Task__sub_object()
    rtos.o(i._ZN5cRTOS4TaskD0Ev) refers to rtos.o(i._ZdlPv) for operator delete (void*)
    rtos.o(i._ZN5cRTOS4TaskD2Ev) refers to rtos.o(i._ZN5cRTOS4Task4StopEv) for cRTOS::Task::Stop()
    rtos.o(i._ZN5cRTOS4TaskD2Ev) refers to rtos.o(i._ZdlPv) for operator delete (void*)
    rtos.o(i._ZN5cRTOS4TaskD2Ev) refers to rtos.o(.constdata__ZTVN5cRTOS4TaskE) for vtable for cRTOS::Task
    rtos.o(i._ZN5cRTOS5StartERNS_4TaskE) refers to lib.o(i._ZN7cSystem16disableInterruptEv) for cSystem::disableInterrupt()
    rtos.o(i._ZN5cRTOS5StartERNS_4TaskE) refers to rtos.o(i._ZN11cHwRTOS_MCU5startEPcjPvPFjS1_E) for cHwRTOS_MCU::start(char*, unsigned, void*, unsigned(*)(void*))
    rtos.o(i._ZN5cRTOS5StartERNS_4TaskE) refers to lib.o(i._ZN7cSystem15enableInterruptEv) for cSystem::enableInterrupt()
    rtos.o(i._ZN5cRTOS5StartERNS_4TaskE) refers to rtos.o(i._ZN5cRTOS4Task7starterEPv) for cRTOS::Task::starter(void*)
    rtos.o(i._ZN5cRTOS5Timer7getTicsEv) refers to rtos.o(i._ZN11cHwRTOS_MCU10getSysTimeEv) for cHwRTOS_MCU::getSysTime()
    rtos.o(i._ZN5cRTOS5TimerC1Et) refers to lib.o(i._ZN6cTimerC2Ev) for cTimer::cTimer__sub_object()
    rtos.o(i._ZN5cRTOS5TimerC1Et) refers to lib.o(i._ZN6cTimer3setEtt) for cTimer::set(unsigned short, unsigned short)
    rtos.o(i._ZN5cRTOS5TimerC1Et) refers to rtos.o(.constdata__ZTVN5cRTOS5TimerE) for vtable for cRTOS::Timer
    rtos.o(i._ZN5cRTOSC2Ev) refers to rtos.o(.constdata__ZTV5cRTOS) for vtable for cRTOS
    rtos.o(i._ZN5cRTOSC2Ev) refers to rtos.o(.data) for cRTOS::ptr
    rtos.o(.ARM.exidx) refers to rtos.o(i._ZN5cRTOSC2Ev) for i._ZN5cRTOSC2Ev
    rtos.o(.ARM.exidx) refers to rtos.o(i._ZN5cRTOS4Task7starterEPv) for i._ZN5cRTOS4Task7starterEPv
    rtos.o(.ARM.exidx) refers to rtos.o(i._ZN5cRTOS5StartERNS_4TaskE) for i._ZN5cRTOS5StartERNS_4TaskE
    rtos.o(.ARM.exidx) refers to rtos.o(i._ZN5cRTOS5PauseERNS_4TaskE) for i._ZN5cRTOS5PauseERNS_4TaskE
    rtos.o(.ARM.exidx) refers to rtos.o(i._ZN5cRTOS4StopERNS_4TaskE) for i._ZN5cRTOS4StopERNS_4TaskE
    rtos.o(.ARM.exidx) refers to rtos.o(i._ZN5cRTOS4TaskC2ERS_j) for i._ZN5cRTOS4TaskC2ERS_j
    rtos.o(.ARM.exidx) refers to rtos.o(i._ZN5cRTOS4Task4StopEv) for i._ZN5cRTOS4Task4StopEv
    rtos.o(.ARM.exidx) refers to rtos.o(i._ZN5cRTOS4TaskD2Ev) for i._ZN5cRTOS4TaskD2Ev
    rtos.o(.ARM.exidx) refers to rtos.o(i._ZN5cRTOS4TaskD0Ev) for i._ZN5cRTOS4TaskD0Ev
    rtos.o(.ARM.exidx) refers to rtos.o(i._ZN5cRTOS4Task5PauseEt) for i._ZN5cRTOS4Task5PauseEt
    rtos.o(.ARM.exidx) refers to rtos.o(i._ZN5cRTOS4Task5StartEv) for i._ZN5cRTOS4Task5StartEv
    rtos.o(.ARM.exidx) refers to rtos.o(i._ZN5cRTOS4Task6FinishEv) for i._ZN5cRTOS4Task6FinishEv
    rtos.o(.ARM.exidx) refers to rtos.o(i._ZN5cRTOS5TimerC1Et) for i._ZN5cRTOS5TimerC1Et
    rtos.o(.ARM.exidx) refers to rtos.o(i._ZN5cRTOS5Timer7getTicsEv) for i._ZN5cRTOS5Timer7getTicsEv
    rtos.o(.ARM.exidx) refers to rtos.o(i._ZN5cRTOS5Timer12getTimeOfTicEv) for i._ZN5cRTOS5Timer12getTimeOfTicEv
    main.o(i._Z12displayValuefiii) refers to fleqf.o(x$fpl$fleqf) for __aeabi_cfcmple
    main.o(i._Z12displayValuefiii) refers to frleqf.o(x$fpl$frleqf) for __aeabi_cfrcmple
    main.o(i._Z12displayValuefiii) refers to fmul.o(x$fpl$fmul) for __aeabi_fmul
    main.o(i._Z12displayValuefiii) refers to faddsub_clz.o(x$fpl$fsub) for __aeabi_fsub
    main.o(i._Z12displayValuefiii) refers to fdiv.o(x$fpl$fdiv) for __aeabi_fdiv
    main.o(i._Z12displayValuefiii) refers to ffix.o(x$fpl$ffix) for __aeabi_f2iz
    main.o(i._Z12displayValuefiii) refers to main.o(i._ZN4RectC1Eiiii) for Rect::Rect(int, int, int, int)
    main.o(i._Z12displayValuefiii) refers to main.o(i._ZN3GUI8drawRectE4Rectt) for GUI::drawRect(Rect, unsigned short)
    main.o(i._Z12displayValuefiii) refers to main.o(.data) for currentValueX
    main.o(i._Z12displayValuefiii) refers to main.o(.bss) for pixels
    main.o(i._Z3FFTslPdS_) refers to dmul.o(x$fpl$dmul) for __aeabi_dmul
    main.o(i._Z3FFTslPdS_) refers to daddsub_clz.o(x$fpl$dsub) for __aeabi_dsub
    main.o(i._Z3FFTslPdS_) refers to daddsub_clz.o(x$fpl$dadd) for __aeabi_dadd
    main.o(i._Z3FFTslPdS_) refers to ddiv.o(x$fpl$ddiv) for __aeabi_ddiv
    main.o(i._Z3FFTslPdS_) refers to sqrt.o(i.sqrt) for sqrt
    main.o(i._Z3FFTslPdS_) refers to dflt_clz.o(x$fpl$dflt) for __aeabi_i2d
    main.o(i.__sti___8_main_cpp) refers to lib.o(i._ZN7cSystemC1Eh) for cSystem::cSystem(unsigned char)
    main.o(i.__sti___8_main_cpp) refers to lib.o(i._ZN10cHwTimer_NC1ENS_7TimerIdEj) for cHwTimer_N::cHwTimer_N(cHwTimer_N::TimerId, unsigned)
    main.o(i.__sti___8_main_cpp) refers to lib.o(i._ZN9cHwPort_NC1ENS_6PortIdE) for cHwPort_N::cHwPort_N(cHwPort_N::PortId)
    main.o(i.__sti___8_main_cpp) refers to lib.o(i._ZN8cHwADC_0C1EP8cHwTimer) for cHwADC_0::cHwADC_0(cHwTimer*)
    main.o(i.__sti___8_main_cpp) refers to lib.o(i._ZN14cHwSPImaster_1C1EN12cHwSPImaster4MODEENS0_11ClockPolPhaE) for cHwSPImaster_1::cHwSPImaster_1(cHwSPImaster::MODE, cHwSPImaster::ClockPolPha)
    main.o(i.__sti___8_main_cpp) refers to main.o(i._ZN12cHwSPImaster6DeviceC1ERS_R7cHwPorth) for cHwSPImaster::Device::Device(cHwSPImaster&, cHwPort&, unsigned char)
    main.o(i.__sti___8_main_cpp) refers to lib.o(i._ZN7cHwPort3PinC1ERS_h) for cHwPort::Pin::Pin(cHwPort&, unsigned char)
    main.o(i.__sti___8_main_cpp) refers to lib.o(i._ZN14cHwDisplayFontC1EPK24cHwDisplayFontPropertiesPKh) for cHwDisplayFont::cHwDisplayFont(const cHwDisplayFontProperties*, const unsigned char*)
    main.o(i.__sti___8_main_cpp) refers to lib.o(i._ZN20cHwDisp_SPFD5408BspiC1ERN12cHwSPImaster6DeviceERN7cHwPort3PinE14cHwDisplayFonth) for cHwDisp_SPFD5408Bspi::cHwDisp_SPFD5408Bspi(cHwSPImaster::Device&, cHwPort::Pin&, cHwDisplayFont, unsigned char)
    main.o(i.__sti___8_main_cpp) refers to lib.o(i._ZN15cDevDisplayCharC1ER10cHwDisplay) for cDevDisplayChar::cDevDisplayChar(cHwDisplay&)
    main.o(i.__sti___8_main_cpp) refers to lib.o(i._ZN11cDevDigitalC1ER7cHwPorthNS_4ModeEb) for cDevDigital::cDevDigital(cHwPort&, unsigned char, cDevDigital::Mode, bool)
    main.o(i.__sti___8_main_cpp) refers to lib.o(i._ZN26cDevControlEncoderJoystickC1EP11cDevDigitalS1_S1_P8cHwTimert) for cDevControlEncoderJoystick::cDevControlEncoderJoystick(cDevDigital*, cDevDigital*, cDevDigital*, cHwTimer*, unsigned short)
    main.o(i.__sti___8_main_cpp) refers to main.o(i._ZN12TimerHandlerC1Ev) for TimerHandler::TimerHandler()
    main.o(i.__sti___8_main_cpp) refers to main.o(.data) for sys
    main.o(i.__sti___8_main_cpp) refers to main.o(.bss) for timer
    main.o(i.__sti___8_main_cpp) refers to main.o(.constdata) for fontFont_8x12
    main.o(i.main) refers to lib.o(i._ZN18cDevDisplayGraphicC1ER17cHwDisplayGraphic) for cDevDisplayGraphic::cDevDisplayGraphic(cHwDisplayGraphic&)
    main.o(i.main) refers to main.o(i._ZN3GUI11getInstanceEv) for GUI::getInstance()
    main.o(i.main) refers to main.o(i._ZN4RectC1Eiiii) for Rect::Rect(int, int, int, int)
    main.o(i.main) refers to main.o(i._ZN3GUI8drawRectE4Rectt) for GUI::drawRect(Rect, unsigned short)
    main.o(i.main) refers to lib.o(i._ZN6cHwADC6enableEh) for cHwADC::enable(unsigned char)
    main.o(i.main) refers to lib.o(i._ZN8cHwTimer3addEPN5cList4ItemE) for cHwTimer::add(cList::Item*)
    main.o(i.main) refers to f2d.o(x$fpl$f2d) for __aeabi_f2d
    main.o(i.main) refers to main.o(i._Z3FFTslPdS_) for FFT(short, long, double*, double*)
    main.o(i.main) refers to dmul.o(x$fpl$dmul) for __aeabi_dmul
    main.o(i.main) refers to daddsub_clz.o(x$fpl$dadd) for __aeabi_dadd
    main.o(i.main) refers to sqrt.o(i.sqrt) for sqrt
    main.o(i.main) refers to d2f.o(x$fpl$d2f) for __aeabi_d2f
    main.o(i.main) refers to frleqf.o(x$fpl$frleqf) for __aeabi_cfrcmple
    main.o(i.main) refers to fleqf.o(x$fpl$fleqf) for __aeabi_cfcmple
    main.o(i.main) refers to fflt_clz.o(x$fpl$fflt) for __aeabi_i2f
    main.o(i.main) refers to faddsub_clz.o(x$fpl$fsub) for __aeabi_fsub
    main.o(i.main) refers to fmul.o(x$fpl$fmul) for __aeabi_fmul
    main.o(i.main) refers to ddiv.o(x$fpl$ddiv) for __aeabi_ddiv
    main.o(i.main) refers to main.o(i._Z12displayValuefiii) for displayValue(float, int, int, int)
    main.o(i.main) refers to faddsub_clz.o(x$fpl$fadd) for __aeabi_fadd
    main.o(i.main) refers to main.o(.bss) for dispHw
    main.o(i.main) refers to gui.o(.bss) for GUI::screenRect
    main.o(.ARM.exidx) refers to main.o(i._Z3FFTslPdS_) for i._Z3FFTslPdS_
    main.o(.ARM.exidx) refers to main.o(i._Z12displayValuefiii) for i._Z12displayValuefiii
    main.o(.ARM.exidx) refers to main.o(i.main) for i.main
    main.o(.ARM.exidx) refers to main.o(i.__sti___8_main_cpp) for i.__sti___8_main_cpp
    main.o(.data) refers to main.o(.bss) for adc0
    main.o(.init_array) refers to main.o(i.__sti___8_main_cpp) for __sti___8_main_cpp
    main.o(.init_array) refers to init_aeabi.o(.text) for __cpp_initialize__aeabi_
    gui.o(i.__sti___7_GUI_cpp) refers to gui.o(.bss) for GUI::screenRect
    gui.o(.ARM.exidx) refers to gui.o(i.__sti___7_GUI_cpp) for i.__sti___7_GUI_cpp
    gui.o(.init_array) refers to gui.o(i.__sti___7_GUI_cpp) for __sti___7_GUI_cpp
    gui.o(.init_array) refers to init_aeabi.o(.text) for __cpp_initialize__aeabi_
    malloc.o(.text) refers (Special) to hguard.o(.text) for __heap$guard
    malloc.o(.text) refers (Special) to init_alloc.o(.text) for _init_alloc
    malloc.o(.text) refers to rt_heap_descriptor_intlibspace.o(.text) for __rt_heap_descriptor
    malloc.o(.text) refers to heapstubs.o(.text) for __Heap_Alloc
    free.o(.text) refers (Special) to hguard.o(.text) for __heap$guard
    free.o(.text) refers to rt_heap_descriptor_intlibspace.o(.text) for __rt_heap_descriptor
    free.o(.text) refers to heapstubs.o(.text) for __Heap_Free
    h1_alloc.o(.text) refers (Special) to h1_init.o(.text) for __Heap_Initialize
    h1_alloc.o(.text) refers to rt_heap_descriptor_intlibspace.o(.text) for __rt_heap_descriptor
    h1_alloc.o(.text) refers to init_alloc.o(.text) for __Heap_Full
    h1_free.o(.text) refers to rt_heap_descriptor_intlibspace.o(.text) for __rt_heap_descriptor
    h1_alloc_mt.o(.text) refers (Special) to h1_init.o(.text) for __Heap_Initialize
    h1_alloc_mt.o(.text) refers to init_alloc.o(.text) for __Heap_Full
    h1_alloc_mt.o(.text) refers to rt_heap_descriptor_intlibspace.o(.text) for __rt_heap_descriptor
    h1_free_mt.o(.text) refers to rt_heap_descriptor_intlibspace.o(.text) for __rt_heap_descriptor
    heap2.o(i._FDIterate) refers to heap2.o(.constdata) for .constdata
    heap2.o(i.___Heap_ProvideMemory$realtime) refers to fdtree.o(i._FDTree_Delete) for _FDTree_Delete
    heap2.o(i.___Heap_ProvideMemory$realtime) refers to fdtree.o(i._FDTree_Insert) for _FDTree_Insert
    heap2.o(i.___Heap_Stats$realtime) refers to heap2.o(i._Heap2_StatsIterate) for _Heap2_StatsIterate
    heap2.o(i.___Heap_Valid$realtime) refers to heap2.o(i._FDIterate) for _FDIterate
    heap2.o(i.___Heap_Valid$realtime) refers to heap2.o(.constdata) for .constdata
    heap2.o(i._free$realtime) refers to rt_heap_descriptor_intlibspace.o(.text) for __rt_heap_descriptor
    heap2.o(i._free$realtime) refers to fdtree.o(i._FDTree_Delete) for _FDTree_Delete
    heap2.o(i._free$realtime) refers to fdtree.o(i._FDTree_Insert) for _FDTree_Insert
    heap2.o(i._malloc$realtime) refers to rt_heap_descriptor_intlibspace.o(.text) for __rt_heap_descriptor
    heap2.o(i._malloc$realtime) refers to fdtree.o(i._FDTree_FindFirst) for _FDTree_FindFirst
    heap2.o(i._malloc$realtime) refers to init_alloc.o(.text) for __Heap_Full
    heap2.o(i._malloc$realtime) refers to fdtree.o(i._FDTree_RemoveNode) for _FDTree_RemoveNode
    heap2.o(i._malloc$realtime) refers to fdtree.o(i._FDTree_Insert) for _FDTree_Insert
    heap2.o(i._posix_memalign$realtime) refers to rt_heap_descriptor_intlibspace.o(.text) for __rt_heap_descriptor
    heap2.o(i._posix_memalign$realtime) refers to fdtree.o(i._FDTree_FindFirst) for _FDTree_FindFirst
    heap2.o(i._posix_memalign$realtime) refers to init_alloc.o(.text) for __Heap_Full
    heap2.o(i._posix_memalign$realtime) refers to fdtree.o(i._FDTree_RemoveNode) for _FDTree_RemoveNode
    heap2.o(i._posix_memalign$realtime) refers to fdtree.o(i._FDTree_Insert) for _FDTree_Insert
    heap2.o(i._realloc$realtime) refers to rt_heap_descriptor_intlibspace.o(.text) for __rt_heap_descriptor
    heap2.o(i._realloc$realtime) refers to fdtree.o(i._FDTree_Insert) for _FDTree_Insert
    heap2.o(i._realloc$realtime) refers to h1_free.o(.text) for free
    heap2.o(i._realloc$realtime) refers to h1_alloc.o(.text) for malloc
    heap2.o(i._realloc$realtime) refers to fdtree.o(i._FDTree_Delete) for _FDTree_Delete
    heap2.o(i._realloc$realtime) refers to rt_memcpy_w.o(.text) for __aeabi_memcpy4
    heap2mt.o(i._FDIterate) refers to heap2mt.o(.constdata) for .constdata
    heap2mt.o(i.___Heap_Initialize$realtime$concurrent) refers to mutex_dummy.o(.text) for _mutex_initialize
    heap2mt.o(i.___Heap_ProvideMemory$realtime$concurrent) refers to fdtree.o(i._FDTree_Delete) for _FDTree_Delete
    heap2mt.o(i.___Heap_ProvideMemory$realtime$concurrent) refers to fdtree.o(i._FDTree_Insert) for _FDTree_Insert
    heap2mt.o(i.___Heap_Stats$realtime$concurrent) refers to heap2mt.o(i._Heap2_StatsIterate) for _Heap2_StatsIterate
    heap2mt.o(i.___Heap_Valid$realtime$concurrent) refers to heap2mt.o(i._FDIterate) for _FDIterate
    heap2mt.o(i.___Heap_Valid$realtime$concurrent) refers to heap2mt.o(.constdata) for .constdata
    heap2mt.o(i._free$realtime$concurrent) refers to rt_heap_descriptor_intlibspace.o(.text) for __rt_heap_descriptor
    heap2mt.o(i._free$realtime$concurrent) refers to fdtree.o(i._FDTree_Delete) for _FDTree_Delete
    heap2mt.o(i._free$realtime$concurrent) refers to fdtree.o(i._FDTree_Insert) for _FDTree_Insert
    heap2mt.o(i._malloc$realtime$concurrent) refers to rt_heap_descriptor_intlibspace.o(.text) for __rt_heap_descriptor
    heap2mt.o(i._malloc$realtime$concurrent) refers to fdtree.o(i._FDTree_FindFirst) for _FDTree_FindFirst
    heap2mt.o(i._malloc$realtime$concurrent) refers to init_alloc.o(.text) for __Heap_Full
    heap2mt.o(i._malloc$realtime$concurrent) refers to fdtree.o(i._FDTree_RemoveNode) for _FDTree_RemoveNode
    heap2mt.o(i._malloc$realtime$concurrent) refers to fdtree.o(i._FDTree_Insert) for _FDTree_Insert
    heap2mt.o(i._posix_memalign$realtime$concurrent) refers to rt_heap_descriptor_intlibspace.o(.text) for __rt_heap_descriptor
    heap2mt.o(i._posix_memalign$realtime$concurrent) refers to fdtree.o(i._FDTree_FindFirst) for _FDTree_FindFirst
    heap2mt.o(i._posix_memalign$realtime$concurrent) refers to init_alloc.o(.text) for __Heap_Full
    heap2mt.o(i._posix_memalign$realtime$concurrent) refers to fdtree.o(i._FDTree_RemoveNode) for _FDTree_RemoveNode
    heap2mt.o(i._posix_memalign$realtime$concurrent) refers to fdtree.o(i._FDTree_Insert) for _FDTree_Insert
    heap2mt.o(i._realloc$realtime$concurrent) refers to rt_heap_descriptor_intlibspace.o(.text) for __rt_heap_descriptor
    heap2mt.o(i._realloc$realtime$concurrent) refers to fdtree.o(i._FDTree_Insert) for _FDTree_Insert
    heap2mt.o(i._realloc$realtime$concurrent) refers to h1_free.o(.text) for free
    heap2mt.o(i._realloc$realtime$concurrent) refers to h1_alloc.o(.text) for malloc
    heap2mt.o(i._realloc$realtime$concurrent) refers to fdtree.o(i._FDTree_Delete) for _FDTree_Delete
    heap2mt.o(i._realloc$realtime$concurrent) refers to rt_memcpy_w.o(.text) for __aeabi_memcpy4
    c89vsprintf.o(.text) refers (Special) to _printf_a.o(.ARM.Collect$$_printf_percent$$00000006) for _printf_a
    c89vsprintf.o(.text) refers (Special) to _printf_c.o(.ARM.Collect$$_printf_percent$$00000013) for _printf_c
    c89vsprintf.o(.text) refers (Special) to _printf_charcount.o(.text) for _printf_charcount
    c89vsprintf.o(.text) refers (Special) to _printf_d.o(.ARM.Collect$$_printf_percent$$00000009) for _printf_d
    c89vsprintf.o(.text) refers (Special) to _printf_e.o(.ARM.Collect$$_printf_percent$$00000004) for _printf_e
    c89vsprintf.o(.text) refers (Special) to _printf_f.o(.ARM.Collect$$_printf_percent$$00000003) for _printf_f
    c89vsprintf.o(.text) refers (Special) to printf1.o(x$fpl$printf1) for _printf_fp_dec
    c89vsprintf.o(.text) refers (Special) to _printf_g.o(.ARM.Collect$$_printf_percent$$00000005) for _printf_g
    c89vsprintf.o(.text) refers (Special) to _printf_i.o(.ARM.Collect$$_printf_percent$$00000008) for _printf_i
    c89vsprintf.o(.text) refers (Special) to _printf_dec.o(.text) for _printf_int_dec
    c89vsprintf.o(.text) refers (Special) to _printf_l.o(.ARM.Collect$$_printf_percent$$00000012) for _printf_l
    c89vsprintf.o(.text) refers (Special) to _printf_lc.o(.ARM.Collect$$_printf_percent$$00000015) for _printf_lc
    c89vsprintf.o(.text) refers (Special) to _printf_ll.o(.ARM.Collect$$_printf_percent$$00000007) for _printf_ll
    c89vsprintf.o(.text) refers (Special) to _printf_lld.o(.ARM.Collect$$_printf_percent$$0000000E) for _printf_lld
    c89vsprintf.o(.text) refers (Special) to _printf_lli.o(.ARM.Collect$$_printf_percent$$0000000D) for _printf_lli
    c89vsprintf.o(.text) refers (Special) to _printf_llo.o(.ARM.Collect$$_printf_percent$$00000010) for _printf_llo
    c89vsprintf.o(.text) refers (Special) to _printf_llu.o(.ARM.Collect$$_printf_percent$$0000000F) for _printf_llu
    c89vsprintf.o(.text) refers (Special) to _printf_llx.o(.ARM.Collect$$_printf_percent$$00000011) for _printf_llx
    c89vsprintf.o(.text) refers (Special) to _printf_longlong_dec.o(.text) for _printf_longlong_dec
    c89vsprintf.o(.text) refers (Special) to _printf_hex_int_ll_ptr.o(.text) for _printf_longlong_hex
    c89vsprintf.o(.text) refers (Special) to _printf_oct_int_ll.o(.text) for _printf_longlong_oct
    c89vsprintf.o(.text) refers (Special) to _printf_ls.o(.ARM.Collect$$_printf_percent$$00000016) for _printf_ls
    c89vsprintf.o(.text) refers (Special) to _printf_n.o(.ARM.Collect$$_printf_percent$$00000001) for _printf_n
    c89vsprintf.o(.text) refers (Special) to _printf_o.o(.ARM.Collect$$_printf_percent$$0000000B) for _printf_o
    c89vsprintf.o(.text) refers (Special) to _printf_p.o(.ARM.Collect$$_printf_percent$$00000002) for _printf_p
    c89vsprintf.o(.text) refers (Special) to _printf_percent.o(.ARM.Collect$$_printf_percent$$00000000) for _printf_percent
    c89vsprintf.o(.text) refers (Special) to _printf_pad.o(.text) for _printf_post_padding
    c89vsprintf.o(.text) refers (Special) to _printf_s.o(.ARM.Collect$$_printf_percent$$00000014) for _printf_s
    c89vsprintf.o(.text) refers (Special) to _printf_str.o(.text) for _printf_str
    c89vsprintf.o(.text) refers (Special) to _printf_truncate.o(.text) for _printf_truncate_signed
    c89vsprintf.o(.text) refers (Special) to _printf_u.o(.ARM.Collect$$_printf_percent$$0000000A) for _printf_u
    c89vsprintf.o(.text) refers (Special) to _printf_wctomb.o(.text) for _printf_wctomb
    c89vsprintf.o(.text) refers (Special) to _printf_x.o(.ARM.Collect$$_printf_percent$$0000000C) for _printf_x
    c89vsprintf.o(.text) refers to _printf_char_common.o(.text) for _printf_char_common
    c89vsprintf.o(.text) refers to _sputc.o(.text) for _sputc
    c89vsnprintf.o(.text) refers (Special) to _printf_a.o(.ARM.Collect$$_printf_percent$$00000006) for _printf_a
    c89vsnprintf.o(.text) refers (Special) to _printf_c.o(.ARM.Collect$$_printf_percent$$00000013) for _printf_c
    c89vsnprintf.o(.text) refers (Special) to _printf_charcount.o(.text) for _printf_charcount
    c89vsnprintf.o(.text) refers (Special) to _printf_d.o(.ARM.Collect$$_printf_percent$$00000009) for _printf_d
    c89vsnprintf.o(.text) refers (Special) to _printf_e.o(.ARM.Collect$$_printf_percent$$00000004) for _printf_e
    c89vsnprintf.o(.text) refers (Special) to _printf_f.o(.ARM.Collect$$_printf_percent$$00000003) for _printf_f
    c89vsnprintf.o(.text) refers (Special) to printf1.o(x$fpl$printf1) for _printf_fp_dec
    c89vsnprintf.o(.text) refers (Special) to _printf_g.o(.ARM.Collect$$_printf_percent$$00000005) for _printf_g
    c89vsnprintf.o(.text) refers (Special) to _printf_i.o(.ARM.Collect$$_printf_percent$$00000008) for _printf_i
    c89vsnprintf.o(.text) refers (Special) to _printf_dec.o(.text) for _printf_int_dec
    c89vsnprintf.o(.text) refers (Special) to _printf_l.o(.ARM.Collect$$_printf_percent$$00000012) for _printf_l
    c89vsnprintf.o(.text) refers (Special) to _printf_lc.o(.ARM.Collect$$_printf_percent$$00000015) for _printf_lc
    c89vsnprintf.o(.text) refers (Special) to _printf_ll.o(.ARM.Collect$$_printf_percent$$00000007) for _printf_ll
    c89vsnprintf.o(.text) refers (Special) to _printf_lld.o(.ARM.Collect$$_printf_percent$$0000000E) for _printf_lld
    c89vsnprintf.o(.text) refers (Special) to _printf_lli.o(.ARM.Collect$$_printf_percent$$0000000D) for _printf_lli
    c89vsnprintf.o(.text) refers (Special) to _printf_llo.o(.ARM.Collect$$_printf_percent$$00000010) for _printf_llo
    c89vsnprintf.o(.text) refers (Special) to _printf_llu.o(.ARM.Collect$$_printf_percent$$0000000F) for _printf_llu
    c89vsnprintf.o(.text) refers (Special) to _printf_llx.o(.ARM.Collect$$_printf_percent$$00000011) for _printf_llx
    c89vsnprintf.o(.text) refers (Special) to _printf_longlong_dec.o(.text) for _printf_longlong_dec
    c89vsnprintf.o(.text) refers (Special) to _printf_hex_int_ll_ptr.o(.text) for _printf_longlong_hex
    c89vsnprintf.o(.text) refers (Special) to _printf_oct_int_ll.o(.text) for _printf_longlong_oct
    c89vsnprintf.o(.text) refers (Special) to _printf_ls.o(.ARM.Collect$$_printf_percent$$00000016) for _printf_ls
    c89vsnprintf.o(.text) refers (Special) to _printf_n.o(.ARM.Collect$$_printf_percent$$00000001) for _printf_n
    c89vsnprintf.o(.text) refers (Special) to _printf_o.o(.ARM.Collect$$_printf_percent$$0000000B) for _printf_o
    c89vsnprintf.o(.text) refers (Special) to _printf_p.o(.ARM.Collect$$_printf_percent$$00000002) for _printf_p
    c89vsnprintf.o(.text) refers (Special) to _printf_percent.o(.ARM.Collect$$_printf_percent$$00000000) for _printf_percent
    c89vsnprintf.o(.text) refers (Special) to _printf_pad.o(.text) for _printf_post_padding
    c89vsnprintf.o(.text) refers (Special) to _printf_s.o(.ARM.Collect$$_printf_percent$$00000014) for _printf_s
    c89vsnprintf.o(.text) refers (Special) to _printf_str.o(.text) for _printf_str
    c89vsnprintf.o(.text) refers (Special) to _printf_truncate.o(.text) for _printf_truncate_signed
    c89vsnprintf.o(.text) refers (Special) to _printf_u.o(.ARM.Collect$$_printf_percent$$0000000A) for _printf_u
    c89vsnprintf.o(.text) refers (Special) to _printf_wctomb.o(.text) for _printf_wctomb
    c89vsnprintf.o(.text) refers (Special) to _printf_x.o(.ARM.Collect$$_printf_percent$$0000000C) for _printf_x
    c89vsnprintf.o(.text) refers to _printf_char_common.o(.text) for _printf_char_common
    c89vsnprintf.o(.text) refers to _sputc.o(.text) for _sputc
    c89vsnprintf.o(.text) refers to _snputc.o(.text) for _snputc
    __2sprintf.o(.text) refers to _printf_char_common.o(.text) for _printf_char_common
    __2sprintf.o(.text) refers to _sputc.o(.text) for _sputc
    noretval__2sprintf.o(.text) refers to _printf_char_common.o(.text) for _printf_char_common
    noretval__2sprintf.o(.text) refers to _sputc.o(.text) for _sputc
    __printf.o(.text) refers to _printf_percent.o(.ARM.Collect$$_printf_percent$$00000000) for _printf_percent
    _printf_dec.o(.text) refers (Weak) to _printf_truncate.o(.text) for _printf_truncate_signed
    _printf_dec.o(.text) refers (Weak) to _printf_truncate.o(.text) for _printf_truncate_unsigned
    _printf_dec.o(.text) refers to _printf_intcommon.o(.text) for _printf_int_common
    __printf_flags.o(.text) refers to _printf_percent.o(.ARM.Collect$$_printf_percent$$00000000) for _printf_percent
    __printf_flags.o(.text) refers to __printf_flags.o(.constdata) for .constdata
    __printf_ss.o(.text) refers to _printf_percent.o(.ARM.Collect$$_printf_percent$$00000000) for _printf_percent
    __printf_flags_ss.o(.text) refers to _printf_percent.o(.ARM.Collect$$_printf_percent$$00000000) for _printf_percent
    __printf_flags_ss.o(.text) refers to __printf_flags_ss.o(.constdata) for .constdata
    __printf_wp.o(.text) refers to __printf_wp.o(i._is_digit) for _is_digit
    __printf_wp.o(.text) refers to _printf_percent.o(.ARM.Collect$$_printf_percent$$00000000) for _printf_percent
    __printf_flags_wp.o(.text) refers to __printf_wp.o(i._is_digit) for _is_digit
    __printf_flags_wp.o(.text) refers to _printf_percent.o(.ARM.Collect$$_printf_percent$$00000000) for _printf_percent
    __printf_flags_wp.o(.text) refers to __printf_flags_wp.o(.constdata) for .constdata
    __printf_ss_wp.o(.text) refers to __printf_wp.o(i._is_digit) for _is_digit
    __printf_ss_wp.o(.text) refers to _printf_percent.o(.ARM.Collect$$_printf_percent$$00000000) for _printf_percent
    __printf_flags_ss_wp.o(.text) refers to __printf_wp.o(i._is_digit) for _is_digit
    __printf_flags_ss_wp.o(.text) refers to _printf_percent.o(.ARM.Collect$$_printf_percent$$00000000) for _printf_percent
    __printf_flags_ss_wp.o(.text) refers to __printf_flags_ss_wp.o(.constdata) for .constdata
    _printf_d.o(.ARM.Collect$$_printf_percent$$00000009) refers (Weak) to _printf_dec.o(.text) for _printf_int_dec
    _printf_percent.o(.ARM.Collect$$_printf_percent$$00000000) refers (Special) to _printf_percent_end.o(.ARM.Collect$$_printf_percent$$00000017) for _printf_percent_end
    abort.o(.text) refers to defsig_abrt_outer.o(.text) for __rt_SIGABRT
    abort.o(.text) refers (Weak) to libshutdown.o(.ARM.Collect$$libshutdown$$00000000) for __rt_lib_shutdown
    abort.o(.text) refers to sys_exit.o(.text) for _sys_exit
    rt_memcpy_v6.o(.text) refers to rt_memcpy_w.o(.text) for __aeabi_memcpy4
    rt_memclr.o(.text) refers to rt_memclr_w.o(.text) for _memset_w
    __main.o(!!!main) refers to rtentry.o(.ARM.Collect$$rtentry$$00000000) for __rt_entry
    init_aeabi.o(.emb_text) refers (Special) to libinit2.o(.ARM.Collect$$libinit$$0000002F) for __rt_lib_init_cpp_2
    init_aeabi.o(.init_array) refers (Special) to libinit2.o(.ARM.Collect$$libinit$$0000002F) for __rt_lib_init_cpp_2
    init_aeabi.o(.dummy_text) refers (Special) to libinit2.o(.ARM.Collect$$libinit$$0000002F) for __rt_lib_init_cpp_2
    init_aeabi.o(.text) refers (Special) to libinit2.o(.ARM.Collect$$libinit$$0000002F) for __rt_lib_init_cpp_2
    init_aeabi.o(.ARM.exidx) refers (Special) to libinit2.o(.ARM.Collect$$libinit$$0000002F) for __rt_lib_init_cpp_2
    init_aeabi.o(.ARM.exidx) refers to init_aeabi.o(.text) for .text
    cxa_guard_acquire.o(.ARM.exidx) refers to cxa_guard_acquire.o(i.__cxa_guard_acquire) for i.__cxa_guard_acquire
    cxa_guard_release.o(.ARM.exidx) refers to cxa_guard_release.o(i.__cxa_guard_release) for i.__cxa_guard_release
    lib_rtti_impl.o(i._ZN10__cxxabiv116__enum_type_infoD0Ev) refers to lib_rtti_impl.o(i._ZN10__cxxabiv116__enum_type_infoD1Ev) for __cxxabiv1::__enum_type_info::~__enum_type_info()
    lib_rtti_impl.o(i._ZN10__cxxabiv116__enum_type_infoD1Ev) refers to type_info_dtor.o(i._ZNSt9type_infoD1Ev) for std::type_info::~type_info()
    lib_rtti_impl.o(i._ZN10__cxxabiv117__array_type_infoD0Ev) refers to lib_rtti_impl.o(i._ZN10__cxxabiv117__array_type_infoD1Ev) for __cxxabiv1::__array_type_info::~__array_type_info()
    lib_rtti_impl.o(i._ZN10__cxxabiv117__array_type_infoD1Ev) refers to type_info_dtor.o(i._ZNSt9type_infoD1Ev) for std::type_info::~type_info()
    lib_rtti_impl.o(i._ZN10__cxxabiv117__class_type_infoD0Ev) refers to lib_rtti_impl.o(i._ZN10__cxxabiv117__class_type_infoD1Ev) for __cxxabiv1::__class_type_info::~__class_type_info()
    lib_rtti_impl.o(i._ZN10__cxxabiv117__class_type_infoD1Ev) refers to type_info_dtor.o(i._ZNSt9type_infoD1Ev) for std::type_info::~type_info()
    lib_rtti_impl.o(i._ZN10__cxxabiv117__pbase_type_infoD0Ev) refers to lib_rtti_impl.o(i._ZN10__cxxabiv117__pbase_type_infoD1Ev) for __cxxabiv1::__pbase_type_info::~__pbase_type_info()
    lib_rtti_impl.o(i._ZN10__cxxabiv117__pbase_type_infoD1Ev) refers to type_info_dtor.o(i._ZNSt9type_infoD1Ev) for std::type_info::~type_info()
    lib_rtti_impl.o(i._ZN10__cxxabiv119__pointer_type_infoD0Ev) refers to lib_rtti_impl.o(i._ZN10__cxxabiv119__pointer_type_infoD1Ev) for __cxxabiv1::__pointer_type_info::~__pointer_type_info()
    lib_rtti_impl.o(i._ZN10__cxxabiv119__pointer_type_infoD1Ev) refers to lib_rtti_impl.o(i._ZN10__cxxabiv117__pbase_type_infoD1Ev) for __cxxabiv1::__pbase_type_info::~__pbase_type_info()
    lib_rtti_impl.o(i._ZN10__cxxabiv120__function_type_infoD0Ev) refers to lib_rtti_impl.o(i._ZN10__cxxabiv120__function_type_infoD1Ev) for __cxxabiv1::__function_type_info::~__function_type_info()
    lib_rtti_impl.o(i._ZN10__cxxabiv120__function_type_infoD1Ev) refers to type_info_dtor.o(i._ZNSt9type_infoD1Ev) for std::type_info::~type_info()
    lib_rtti_impl.o(i._ZN10__cxxabiv120__si_class_type_infoD0Ev) refers to lib_rtti_impl.o(i._ZN10__cxxabiv120__si_class_type_infoD1Ev) for __cxxabiv1::__si_class_type_info::~__si_class_type_info()
    lib_rtti_impl.o(i._ZN10__cxxabiv120__si_class_type_infoD1Ev) refers to lib_rtti_impl.o(i._ZN10__cxxabiv117__class_type_infoD1Ev) for __cxxabiv1::__class_type_info::~__class_type_info()
    lib_rtti_impl.o(i._ZN10__cxxabiv121__vmi_class_type_infoD0Ev) refers to lib_rtti_impl.o(i._ZN10__cxxabiv121__vmi_class_type_infoD1Ev) for __cxxabiv1::__vmi_class_type_info::~__vmi_class_type_info()
    lib_rtti_impl.o(i._ZN10__cxxabiv121__vmi_class_type_infoD1Ev) refers to lib_rtti_impl.o(i._ZN10__cxxabiv117__class_type_infoD1Ev) for __cxxabiv1::__class_type_info::~__class_type_info()
    lib_rtti_impl.o(i._ZN10__cxxabiv123__fundamental_type_infoD0Ev) refers to lib_rtti_impl.o(i._ZN10__cxxabiv123__fundamental_type_infoD1Ev) for __cxxabiv1::__fundamental_type_info::~__fundamental_type_info()
    lib_rtti_impl.o(i._ZN10__cxxabiv123__fundamental_type_infoD1Ev) refers to type_info_dtor.o(i._ZNSt9type_infoD1Ev) for std::type_info::~type_info()
    lib_rtti_impl.o(i._ZN10__cxxabiv129__pointer_to_member_type_infoD0Ev) refers to lib_rtti_impl.o(i._ZN10__cxxabiv129__pointer_to_member_type_infoD1Ev) for __cxxabiv1::__pointer_to_member_type_info::~__pointer_to_member_type_info()
    lib_rtti_impl.o(i._ZN10__cxxabiv129__pointer_to_member_type_infoD1Ev) refers to lib_rtti_impl.o(i._ZN10__cxxabiv117__pbase_type_infoD1Ev) for __cxxabiv1::__pbase_type_info::~__pbase_type_info()
    lib_rtti_impl.o(.ARM.exidx) refers to lib_rtti_impl.o(i._ZN10__cxxabiv123__fundamental_type_infoD1Ev) for i._ZN10__cxxabiv123__fundamental_type_infoD1Ev
    lib_rtti_impl.o(.ARM.exidx) refers to lib_rtti_impl.o(i._ZN10__cxxabiv123__fundamental_type_infoD0Ev) for i._ZN10__cxxabiv123__fundamental_type_infoD0Ev
    lib_rtti_impl.o(.ARM.exidx) refers to lib_rtti_impl.o(i._ZN10__cxxabiv117__array_type_infoD1Ev) for i._ZN10__cxxabiv117__array_type_infoD1Ev
    lib_rtti_impl.o(.ARM.exidx) refers to lib_rtti_impl.o(i._ZN10__cxxabiv117__array_type_infoD0Ev) for i._ZN10__cxxabiv117__array_type_infoD0Ev
    lib_rtti_impl.o(.ARM.exidx) refers to lib_rtti_impl.o(i._ZN10__cxxabiv120__function_type_infoD1Ev) for i._ZN10__cxxabiv120__function_type_infoD1Ev
    lib_rtti_impl.o(.ARM.exidx) refers to lib_rtti_impl.o(i._ZN10__cxxabiv120__function_type_infoD0Ev) for i._ZN10__cxxabiv120__function_type_infoD0Ev
    lib_rtti_impl.o(.ARM.exidx) refers to lib_rtti_impl.o(i._ZN10__cxxabiv116__enum_type_infoD1Ev) for i._ZN10__cxxabiv116__enum_type_infoD1Ev
    lib_rtti_impl.o(.ARM.exidx) refers to lib_rtti_impl.o(i._ZN10__cxxabiv116__enum_type_infoD0Ev) for i._ZN10__cxxabiv116__enum_type_infoD0Ev
    lib_rtti_impl.o(.ARM.exidx) refers to lib_rtti_impl.o(i._ZN10__cxxabiv117__class_type_infoD1Ev) for i._ZN10__cxxabiv117__class_type_infoD1Ev
    lib_rtti_impl.o(.ARM.exidx) refers to lib_rtti_impl.o(i._ZN10__cxxabiv117__class_type_infoD0Ev) for i._ZN10__cxxabiv117__class_type_infoD0Ev
    lib_rtti_impl.o(.ARM.exidx) refers to lib_rtti_impl.o(i._ZN10__cxxabiv120__si_class_type_infoD1Ev) for i._ZN10__cxxabiv120__si_class_type_infoD1Ev
    lib_rtti_impl.o(.ARM.exidx) refers to lib_rtti_impl.o(i._ZN10__cxxabiv120__si_class_type_infoD0Ev) for i._ZN10__cxxabiv120__si_class_type_infoD0Ev
    lib_rtti_impl.o(.ARM.exidx) refers to lib_rtti_impl.o(i._ZN10__cxxabiv121__vmi_class_type_infoD1Ev) for i._ZN10__cxxabiv121__vmi_class_type_infoD1Ev
    lib_rtti_impl.o(.ARM.exidx) refers to lib_rtti_impl.o(i._ZN10__cxxabiv121__vmi_class_type_infoD0Ev) for i._ZN10__cxxabiv121__vmi_class_type_infoD0Ev
    lib_rtti_impl.o(.ARM.exidx) refers to lib_rtti_impl.o(i._ZN10__cxxabiv117__pbase_type_infoD1Ev) for i._ZN10__cxxabiv117__pbase_type_infoD1Ev
    lib_rtti_impl.o(.ARM.exidx) refers to lib_rtti_impl.o(i._ZN10__cxxabiv117__pbase_type_infoD0Ev) for i._ZN10__cxxabiv117__pbase_type_infoD0Ev
    lib_rtti_impl.o(.ARM.exidx) refers to lib_rtti_impl.o(i._ZN10__cxxabiv119__pointer_type_infoD1Ev) for i._ZN10__cxxabiv119__pointer_type_infoD1Ev
    lib_rtti_impl.o(.ARM.exidx) refers to lib_rtti_impl.o(i._ZN10__cxxabiv119__pointer_type_infoD0Ev) for i._ZN10__cxxabiv119__pointer_type_infoD0Ev
    lib_rtti_impl.o(.ARM.exidx) refers to lib_rtti_impl.o(i._ZN10__cxxabiv129__pointer_to_member_type_infoD1Ev) for i._ZN10__cxxabiv129__pointer_to_member_type_infoD1Ev
    lib_rtti_impl.o(.ARM.exidx) refers to lib_rtti_impl.o(i._ZN10__cxxabiv129__pointer_to_member_type_infoD0Ev) for i._ZN10__cxxabiv129__pointer_to_member_type_infoD0Ev
    d2f.o(x$fpl$d2f) refers (Special) to usenofp.o(x$fpl$usenofp) for __I$use$fp
    d2f.o(x$fpl$d2f) refers to fretinf.o(x$fpl$fretinf) for __fpl_fretinf
    d2f.o(x$fpl$d2f) refers to dnaninf.o(x$fpl$dnaninf) for __fpl_dnaninf
    daddsub_clz.o(x$fpl$dadd) refers (Special) to usenofp.o(x$fpl$usenofp) for __I$use$fp
    daddsub_clz.o(x$fpl$dadd) refers to daddsub_clz.o(x$fpl$dsub) for _dsub1
    daddsub_clz.o(x$fpl$dadd) refers to dretinf.o(x$fpl$dretinf) for __fpl_dretinf
    daddsub_clz.o(x$fpl$dadd) refers to dnaninf.o(x$fpl$dnaninf) for __fpl_dnaninf
    daddsub_clz.o(x$fpl$drsb) refers (Special) to usenofp.o(x$fpl$usenofp) for __I$use$fp
    daddsub_clz.o(x$fpl$drsb) refers to daddsub_clz.o(x$fpl$dadd) for _dadd1
    daddsub_clz.o(x$fpl$drsb) refers to daddsub_clz.o(x$fpl$dsub) for _dsub1
    daddsub_clz.o(x$fpl$dsub) refers (Special) to usenofp.o(x$fpl$usenofp) for __I$use$fp
    daddsub_clz.o(x$fpl$dsub) refers to daddsub_clz.o(x$fpl$dadd) for _dadd1
    daddsub_clz.o(x$fpl$dsub) refers to dnaninf.o(x$fpl$dnaninf) for __fpl_dnaninf
    ddiv.o(x$fpl$drdiv) refers (Special) to usenofp.o(x$fpl$usenofp) for __I$use$fp
    ddiv.o(x$fpl$drdiv) refers to ddiv.o(x$fpl$ddiv) for ddiv_entry
    ddiv.o(x$fpl$ddiv) refers (Special) to usenofp.o(x$fpl$usenofp) for __I$use$fp
    ddiv.o(x$fpl$ddiv) refers to dretinf.o(x$fpl$dretinf) for __fpl_dretinf
    ddiv.o(x$fpl$ddiv) refers to dnaninf.o(x$fpl$dnaninf) for __fpl_dnaninf
    dfixu.o(x$fpl$dfixu) refers (Special) to usenofp.o(x$fpl$usenofp) for __I$use$fp
    dfixu.o(x$fpl$dfixu) refers to dnaninf.o(x$fpl$dnaninf) for __fpl_dnaninf
    dfixu.o(x$fpl$dfixur) refers (Special) to usenofp.o(x$fpl$usenofp) for __I$use$fp
    dfixu.o(x$fpl$dfixur) refers to dnaninf.o(x$fpl$dnaninf) for __fpl_dnaninf
    dflt_clz.o(x$fpl$dfltu) refers (Special) to usenofp.o(x$fpl$usenofp) for __I$use$fp
    dflt_clz.o(x$fpl$dflt) refers (Special) to usenofp.o(x$fpl$usenofp) for __I$use$fp
    dflt_clz.o(x$fpl$dfltn) refers (Special) to usenofp.o(x$fpl$usenofp) for __I$use$fp
    dmul.o(x$fpl$dmul) refers (Special) to usenofp.o(x$fpl$usenofp) for __I$use$fp
    dmul.o(x$fpl$dmul) refers to dretinf.o(x$fpl$dretinf) for __fpl_dretinf
    dmul.o(x$fpl$dmul) refers to dnaninf.o(x$fpl$dnaninf) for __fpl_dnaninf
    f2d.o(x$fpl$f2d) refers (Special) to usenofp.o(x$fpl$usenofp) for __I$use$fp
    f2d.o(x$fpl$f2d) refers to fnaninf.o(x$fpl$fnaninf) for __fpl_fnaninf
    f2d.o(x$fpl$f2d) refers to dretinf.o(x$fpl$dretinf) for __fpl_dretinf
    faddsub_clz.o(x$fpl$fadd) refers (Special) to usenofp.o(x$fpl$usenofp) for __I$use$fp
    faddsub_clz.o(x$fpl$fadd) refers to faddsub_clz.o(x$fpl$fsub) for _fsub1
    faddsub_clz.o(x$fpl$fadd) refers to fretinf.o(x$fpl$fretinf) for __fpl_fretinf
    faddsub_clz.o(x$fpl$fadd) refers to fnaninf.o(x$fpl$fnaninf) for __fpl_fnaninf
    faddsub_clz.o(x$fpl$frsb) refers (Special) to usenofp.o(x$fpl$usenofp) for __I$use$fp
    faddsub_clz.o(x$fpl$frsb) refers to faddsub_clz.o(x$fpl$fadd) for _fadd1
    faddsub_clz.o(x$fpl$frsb) refers to faddsub_clz.o(x$fpl$fsub) for _fsub1
    faddsub_clz.o(x$fpl$fsub) refers (Special) to usenofp.o(x$fpl$usenofp) for __I$use$fp
    faddsub_clz.o(x$fpl$fsub) refers to faddsub_clz.o(x$fpl$fadd) for _fadd1
    faddsub_clz.o(x$fpl$fsub) refers to fnaninf.o(x$fpl$fnaninf) for __fpl_fnaninf
    fdiv.o(x$fpl$frdiv) refers (Special) to usenofp.o(x$fpl$usenofp) for __I$use$fp
    fdiv.o(x$fpl$frdiv) refers to fdiv.o(x$fpl$fdiv) for _fdiv1
    fdiv.o(x$fpl$fdiv) refers (Special) to usenofp.o(x$fpl$usenofp) for __I$use$fp
    fdiv.o(x$fpl$fdiv) refers to fretinf.o(x$fpl$fretinf) for __fpl_fretinf
    fdiv.o(x$fpl$fdiv) refers to fnaninf.o(x$fpl$fnaninf) for __fpl_fnaninf
    feqf.o(x$fpl$feqf) refers (Special) to usenofp.o(x$fpl$usenofp) for __I$use$fp
    feqf.o(x$fpl$feqf) refers to fnaninf.o(x$fpl$fnaninf) for __fpl_fnaninf
    feqf.o(x$fpl$feqf) refers to fcmpi.o(x$fpl$fcmpinf) for __fpl_fcmp_Inf
    ffix.o(x$fpl$ffix) refers (Special) to usenofp.o(x$fpl$usenofp) for __I$use$fp
    ffix.o(x$fpl$ffix) refers to fnaninf.o(x$fpl$fnaninf) for __fpl_fnaninf
    ffix.o(x$fpl$ffixr) refers (Special) to usenofp.o(x$fpl$usenofp) for __I$use$fp
    ffix.o(x$fpl$ffixr) refers to fnaninf.o(x$fpl$fnaninf) for __fpl_fnaninf
    ffixu.o(x$fpl$ffixu) refers (Special) to usenofp.o(x$fpl$usenofp) for __I$use$fp
    ffixu.o(x$fpl$ffixu) refers to fnaninf.o(x$fpl$fnaninf) for __fpl_fnaninf
    ffixu.o(x$fpl$ffixur) refers (Special) to usenofp.o(x$fpl$usenofp) for __I$use$fp
    ffixu.o(x$fpl$ffixur) refers to fnaninf.o(x$fpl$fnaninf) for __fpl_fnaninf
    fflt_clz.o(x$fpl$ffltu) refers (Special) to usenofp.o(x$fpl$usenofp) for __I$use$fp
    fflt_clz.o(x$fpl$fflt) refers (Special) to usenofp.o(x$fpl$usenofp) for __I$use$fp
    fflt_clz.o(x$fpl$ffltn) refers (Special) to usenofp.o(x$fpl$usenofp) for __I$use$fp
    fleqf.o(x$fpl$fleqf) refers (Special) to usenofp.o(x$fpl$usenofp) for __I$use$fp
    fleqf.o(x$fpl$fleqf) refers to fnaninf.o(x$fpl$fnaninf) for __fpl_fnaninf
    fleqf.o(x$fpl$fleqf) refers to fcmpi.o(x$fpl$fcmpinf) for __fpl_fcmp_Inf
    fmul.o(x$fpl$fmul) refers (Special) to usenofp.o(x$fpl$usenofp) for __I$use$fp
    fmul.o(x$fpl$fmul) refers to fretinf.o(x$fpl$fretinf) for __fpl_fretinf
    fmul.o(x$fpl$fmul) refers to fnaninf.o(x$fpl$fnaninf) for __fpl_fnaninf
    frleqf.o(x$fpl$frleqf) refers (Special) to usenofp.o(x$fpl$usenofp) for __I$use$fp
    frleqf.o(x$fpl$frleqf) refers to fleqf.o(x$fpl$fleqf) for __fpl_fcmple_InfNaN
    expf.o(i.__softfp_expf) refers (Special) to usenofp.o(x$fpl$usenofp) for __I$use$fp
    expf.o(i.__softfp_expf) refers to expf.o(i.expf) for expf
    expf.o(i.expf) refers (Special) to usenofp.o(x$fpl$usenofp) for __I$use$fp
    expf.o(i.expf) refers to _rserrno.o(.text) for __set_errno
    expf.o(i.expf) refers to funder.o(i.__mathlib_flt_underflow) for __mathlib_flt_underflow
    expf.o(i.expf) refers to scalbnf.o(x$fpl$scalbnf) for __ARM_scalbnf
    expf.o(i.expf) refers to fmul.o(x$fpl$fmul) for __aeabi_fmul
    expf.o(i.expf) refers to frnd.o(x$fpl$frnd) for _frnd
    expf.o(i.expf) refers to ffix.o(x$fpl$ffix) for __aeabi_f2iz
    expf.o(i.expf) refers to faddsub_clz.o(x$fpl$frsb) for __aeabi_frsub
    expf.o(i.expf) refers to faddsub_clz.o(x$fpl$fsub) for __aeabi_fsub
    expf.o(i.expf) refers to faddsub_clz.o(x$fpl$fadd) for __aeabi_fadd
    expf.o(i.expf) refers to fpclassifyf.o(i.__ARM_fpclassifyf) for __ARM_fpclassifyf
    expf.o(i.expf) refers to expf.o(.constdata) for .constdata
    expf.o(.constdata) refers (Special) to usenofp.o(x$fpl$usenofp) for __I$use$fp
    expf_x.o(i.____softfp_expf$lsc) refers (Special) to usenofp.o(x$fpl$usenofp) for __I$use$fp
    expf_x.o(i.____softfp_expf$lsc) refers to expf_x.o(i.__expf$lsc) for __expf$lsc
    expf_x.o(i.__expf$lsc) refers (Special) to usenofp.o(x$fpl$usenofp) for __I$use$fp
    expf_x.o(i.__expf$lsc) refers to _rserrno.o(.text) for __set_errno
    expf_x.o(i.__expf$lsc) refers to scalbnf.o(x$fpl$scalbnf) for __ARM_scalbnf
    expf_x.o(i.__expf$lsc) refers to fmul.o(x$fpl$fmul) for __aeabi_fmul
    expf_x.o(i.__expf$lsc) refers to frnd.o(x$fpl$frnd) for _frnd
    expf_x.o(i.__expf$lsc) refers to ffix.o(x$fpl$ffix) for __aeabi_f2iz
    expf_x.o(i.__expf$lsc) refers to faddsub_clz.o(x$fpl$frsb) for __aeabi_frsub
    expf_x.o(i.__expf$lsc) refers to faddsub_clz.o(x$fpl$fsub) for __aeabi_fsub
    expf_x.o(i.__expf$lsc) refers to faddsub_clz.o(x$fpl$fadd) for __aeabi_fadd
    expf_x.o(i.__expf$lsc) refers to expf_x.o(.constdata) for .constdata
    expf_x.o(.constdata) refers (Special) to usenofp.o(x$fpl$usenofp) for __I$use$fp
    sqrt.o(i.__softfp_sqrt) refers (Special) to usenofp.o(x$fpl$usenofp) for __I$use$fp
    sqrt.o(i.__softfp_sqrt) refers to dsqrt_noumaal.o(x$fpl$dsqrt) for _dsqrt
    sqrt.o(i.__softfp_sqrt) refers to _rserrno.o(.text) for __set_errno
    sqrt.o(i.sqrt) refers (Special) to usenofp.o(x$fpl$usenofp) for __I$use$fp
    sqrt.o(i.sqrt) refers to dsqrt_noumaal.o(x$fpl$dsqrt) for _dsqrt
    sqrt.o(i.sqrt) refers to _rserrno.o(.text) for __set_errno
    sqrt_x.o(i.____softfp_sqrt$lsc) refers (Special) to usenofp.o(x$fpl$usenofp) for __I$use$fp
    sqrt_x.o(i.____softfp_sqrt$lsc) refers to dleqf.o(x$fpl$dleqf) for __aeabi_cdcmple
    sqrt_x.o(i.____softfp_sqrt$lsc) refers to _rserrno.o(.text) for __set_errno
    sqrt_x.o(i.____softfp_sqrt$lsc) refers to dsqrt_noumaal.o(x$fpl$dsqrt) for _dsqrt
    sqrt_x.o(i.__sqrt$lsc) refers (Special) to usenofp.o(x$fpl$usenofp) for __I$use$fp
    sqrt_x.o(i.__sqrt$lsc) refers to dleqf.o(x$fpl$dleqf) for __aeabi_cdcmple
    sqrt_x.o(i.__sqrt$lsc) refers to _rserrno.o(.text) for __set_errno
    sqrt_x.o(i.__sqrt$lsc) refers to dsqrt_noumaal.o(x$fpl$dsqrt) for _dsqrt
    sqrtf.o(i.__softfp_sqrtf) refers (Special) to usenofp.o(x$fpl$usenofp) for __I$use$fp
    sqrtf.o(i.__softfp_sqrtf) refers to fsqrt.o(x$fpl$fsqrt) for _fsqrt
    sqrtf.o(i.__softfp_sqrtf) refers to _rserrno.o(.text) for __set_errno
    sqrtf.o(i.sqrtf) refers (Special) to usenofp.o(x$fpl$usenofp) for __I$use$fp
    sqrtf.o(i.sqrtf) refers to fsqrt.o(x$fpl$fsqrt) for _fsqrt
    sqrtf.o(i.sqrtf) refers to _rserrno.o(.text) for __set_errno
    sqrtf_x.o(i.____softfp_sqrtf$lsc) refers (Special) to usenofp.o(x$fpl$usenofp) for __I$use$fp
    sqrtf_x.o(i.____softfp_sqrtf$lsc) refers to _rserrno.o(.text) for __set_errno
    sqrtf_x.o(i.____softfp_sqrtf$lsc) refers to fsqrt.o(x$fpl$fsqrt) for _fsqrt
    sqrtf_x.o(i.__sqrtf$lsc) refers (Special) to usenofp.o(x$fpl$usenofp) for __I$use$fp
    sqrtf_x.o(i.__sqrtf$lsc) refers to _rserrno.o(.text) for __set_errno
    sqrtf_x.o(i.__sqrtf$lsc) refers to fsqrt.o(x$fpl$fsqrt) for _fsqrt
    sys_exit.o(.text) refers (Special) to use_no_semi.o(.text) for __I$use$semihosting
    sys_exit.o(.text) refers (Special) to indicate_semi.o(.text) for __semihosting_library_function
    rtentry.o(.ARM.Collect$$rtentry$$00000000) refers (Special) to rtentry2.o(.ARM.Collect$$rtentry$$0000000A) for __rt_entry_li
    rtentry.o(.ARM.Collect$$rtentry$$00000000) refers (Special) to rtentry2.o(.ARM.Collect$$rtentry$$0000000D) for __rt_entry_main
    rtentry.o(.ARM.Collect$$rtentry$$00000000) refers (Special) to rtentry2.o(.ARM.Collect$$rtentry$$0000000C) for __rt_entry_postli_1
    rtentry.o(.ARM.Collect$$rtentry$$00000000) refers (Special) to rtentry2.o(.ARM.Collect$$rtentry$$00000009) for __rt_entry_postsh_1
    rtentry.o(.ARM.Collect$$rtentry$$00000000) refers (Special) to rtentry2.o(.ARM.Collect$$rtentry$$00000002) for __rt_entry_presh_1
    rtentry.o(.ARM.Collect$$rtentry$$00000000) refers (Special) to rtentry4.o(.ARM.Collect$$rtentry$$00000004) for __rt_entry_sh
    aeabi_ldiv0_sigfpe.o(.text) refers to rt_div0.o(.text) for __rt_div0
    rt_heap_descriptor.o(.text) refers to rt_heap_descriptor.o(.bss) for __rt_heap_descriptor_data
    rt_heap_descriptor_intlibspace.o(.text) refers to libspace.o(.bss) for __libspace_start
    init_alloc.o(.text) refers (Special) to hguard.o(.text) for __heap$guard
    init_alloc.o(.text) refers (Special) to libinit2.o(.ARM.Collect$$libinit$$00000003) for __rt_lib_init_heap_2
    init_alloc.o(.text) refers (Special) to maybetermalloc1.o(.emb_text) for _maybe_terminate_alloc
    init_alloc.o(.text) refers to h1_extend.o(.text) for __Heap_ProvideMemory
    init_alloc.o(.text) refers to defsig_rtmem_outer.o(.text) for __rt_SIGRTMEM
    init_alloc.o(.text) refers to rt_heap_descriptor_intlibspace.o(.text) for __rt_heap_descriptor
    init_alloc.o(.text) refers to h1_init.o(.text) for __Heap_Initialize
    h1_init_mt.o(.text) refers to mutex_dummy.o(.text) for _mutex_initialize
    _rserrno.o(.text) refers to rt_errno_addr_intlibspace.o(.text) for __aeabi_errno_addr
    _printf_str.o(.text) refers (Special) to _printf_char.o(.text) for _printf_cs_common
    _printf_str.o(.text) refers (Weak) to _printf_pad.o(.text) for _printf_pre_padding
    _printf_str.o(.text) refers (Weak) to _printf_pad.o(.text) for _printf_post_padding
    _printf_intcommon.o(.text) refers (Weak) to _printf_pad.o(.text) for _printf_pre_padding
    _printf_intcommon.o(.text) refers (Weak) to _printf_pad.o(.text) for _printf_pre_padding
    _printf_intcommon.o(.text) refers (Weak) to _printf_pad.o(.text) for _printf_post_padding
    _printf_char_common.o(.text) refers to __printf_flags_ss_wp.o(.text) for __printf
    _printf_wctomb.o(.text) refers (Special) to _printf_wchar.o(.text) for _printf_lcs_common
    _printf_wctomb.o(.text) refers to _wcrtomb.o(.text) for _wcrtomb
    _printf_wctomb.o(.text) refers (Weak) to _printf_pad.o(.text) for _printf_pre_padding
    _printf_wctomb.o(.text) refers (Weak) to _printf_pad.o(.text) for _printf_post_padding
    _printf_wctomb.o(.text) refers to _printf_wctomb.o(.constdata) for .constdata
    _printf_wctomb.o(.constdata) refers (Special) to _printf_wchar.o(.text) for _printf_lcs_common
    _printf_longlong_dec.o(.text) refers to lludiv10.o(.text) for _ll_udiv10
    _printf_longlong_dec.o(.text) refers to _printf_intcommon.o(.text) for _printf_int_common
    _printf_oct_ll.o(.text) refers to _printf_intcommon.o(.text) for _printf_int_common
    _printf_oct_int.o(.text) refers (Weak) to _printf_truncate.o(.text) for _printf_truncate_unsigned
    _printf_oct_int.o(.text) refers to _printf_intcommon.o(.text) for _printf_int_common
    _printf_oct_int_ll.o(.text) refers to _printf_intcommon.o(.text) for _printf_int_common
    _printf_oct_int_ll.o(.text) refers (Weak) to _printf_truncate.o(.text) for _printf_truncate_unsigned
    _printf_hex_ll.o(.text) refers to _printf_intcommon.o(.text) for _printf_int_common
    _printf_hex_ll.o(.text) refers to _printf_hex_ll.o(.constdata) for .constdata
    _printf_hex_int.o(.text) refers (Weak) to _printf_truncate.o(.text) for _printf_truncate_unsigned
    _printf_hex_int.o(.text) refers to _printf_intcommon.o(.text) for _printf_int_common
    _printf_hex_int.o(.text) refers to _printf_hex_int.o(.constdata) for .constdata
    _printf_hex_int_ll.o(.text) refers to _printf_intcommon.o(.text) for _printf_int_common
    _printf_hex_int_ll.o(.text) refers (Weak) to _printf_truncate.o(.text) for _printf_truncate_unsigned
    _printf_hex_int_ll.o(.text) refers to _printf_hex_int_ll.o(.constdata) for .constdata
    _printf_hex_ptr.o(.text) refers to _printf_intcommon.o(.text) for _printf_int_common
    _printf_hex_ptr.o(.text) refers to _printf_hex_ptr.o(.constdata) for .constdata
    _printf_hex_int_ptr.o(.text) refers to _printf_intcommon.o(.text) for _printf_int_common
    _printf_hex_int_ptr.o(.text) refers (Weak) to _printf_truncate.o(.text) for _printf_truncate_unsigned
    _printf_hex_int_ptr.o(.text) refers to _printf_hex_int_ptr.o(.constdata) for .constdata
    _printf_hex_ll_ptr.o(.text) refers to _printf_intcommon.o(.text) for _printf_int_common
    _printf_hex_ll_ptr.o(.text) refers to _printf_hex_ll_ptr.o(.constdata) for .constdata
    _printf_hex_int_ll_ptr.o(.text) refers to _printf_intcommon.o(.text) for _printf_int_common
    _printf_hex_int_ll_ptr.o(.text) refers (Weak) to _printf_truncate.o(.text) for _printf_truncate_unsigned
    _printf_hex_int_ll_ptr.o(.text) refers to _printf_hex_int_ll_ptr.o(.constdata) for .constdata
    _printf_c.o(.ARM.Collect$$_printf_percent$$00000013) refers (Weak) to _printf_char.o(.text) for _printf_char
    _printf_s.o(.ARM.Collect$$_printf_percent$$00000014) refers (Weak) to _printf_char.o(.text) for _printf_string
    _printf_n.o(.ARM.Collect$$_printf_percent$$00000001) refers (Weak) to _printf_charcount.o(.text) for _printf_charcount
    _printf_x.o(.ARM.Collect$$_printf_percent$$0000000C) refers (Weak) to _printf_hex_int_ll_ptr.o(.text) for _printf_int_hex
    _printf_p.o(.ARM.Collect$$_printf_percent$$00000002) refers (Weak) to _printf_hex_int_ll_ptr.o(.text) for _printf_hex_ptr
    _printf_o.o(.ARM.Collect$$_printf_percent$$0000000B) refers (Weak) to _printf_oct_int_ll.o(.text) for _printf_int_oct
    _printf_i.o(.ARM.Collect$$_printf_percent$$00000008) refers (Weak) to _printf_dec.o(.text) for _printf_int_dec
    _printf_u.o(.ARM.Collect$$_printf_percent$$0000000A) refers (Weak) to _printf_dec.o(.text) for _printf_int_dec
    _printf_f.o(.ARM.Collect$$_printf_percent$$00000003) refers (Weak) to printf1.o(x$fpl$printf1) for _printf_fp_dec
    _printf_e.o(.ARM.Collect$$_printf_percent$$00000004) refers (Weak) to printf1.o(x$fpl$printf1) for _printf_fp_dec
    _printf_g.o(.ARM.Collect$$_printf_percent$$00000005) refers (Weak) to printf1.o(x$fpl$printf1) for _printf_fp_dec
    _printf_lli.o(.ARM.Collect$$_printf_percent$$0000000D) refers (Special) to _printf_ll.o(.ARM.Collect$$_printf_percent$$00000007) for _printf_ll
    _printf_lli.o(.ARM.Collect$$_printf_percent$$0000000D) refers (Weak) to _printf_longlong_dec.o(.text) for _printf_longlong_dec
    _printf_lld.o(.ARM.Collect$$_printf_percent$$0000000E) refers (Special) to _printf_ll.o(.ARM.Collect$$_printf_percent$$00000007) for _printf_ll
    _printf_lld.o(.ARM.Collect$$_printf_percent$$0000000E) refers (Weak) to _printf_longlong_dec.o(.text) for _printf_longlong_dec
    _printf_llu.o(.ARM.Collect$$_printf_percent$$0000000F) refers (Special) to _printf_ll.o(.ARM.Collect$$_printf_percent$$00000007) for _printf_ll
    _printf_llu.o(.ARM.Collect$$_printf_percent$$0000000F) refers (Weak) to _printf_longlong_dec.o(.text) for _printf_longlong_dec
    _printf_lc.o(.ARM.Collect$$_printf_percent$$00000015) refers (Special) to _printf_l.o(.ARM.Collect$$_printf_percent$$00000012) for _printf_l
    _printf_lc.o(.ARM.Collect$$_printf_percent$$00000015) refers (Weak) to _printf_wchar.o(.text) for _printf_wchar
    _printf_ls.o(.ARM.Collect$$_printf_percent$$00000016) refers (Special) to _printf_l.o(.ARM.Collect$$_printf_percent$$00000012) for _printf_l
    _printf_ls.o(.ARM.Collect$$_printf_percent$$00000016) refers (Weak) to _printf_wchar.o(.text) for _printf_wstring
    _printf_llo.o(.ARM.Collect$$_printf_percent$$00000010) refers (Special) to _printf_ll.o(.ARM.Collect$$_printf_percent$$00000007) for _printf_ll
    _printf_llo.o(.ARM.Collect$$_printf_percent$$00000010) refers (Weak) to _printf_oct_int_ll.o(.text) for _printf_ll_oct
    _printf_llx.o(.ARM.Collect$$_printf_percent$$00000011) refers (Special) to _printf_ll.o(.ARM.Collect$$_printf_percent$$00000007) for _printf_ll
    _printf_llx.o(.ARM.Collect$$_printf_percent$$00000011) refers (Weak) to _printf_hex_int_ll_ptr.o(.text) for _printf_ll_hex
    defsig_abrt_outer.o(.text) refers to defsig_abrt_inner.o(.text) for __rt_SIGABRT_inner
    defsig_abrt_outer.o(.text) refers to defsig_exit.o(.text) for __sig_exit
    defsig_abrt_formal.o(.text) refers to rt_raise.o(.text) for __rt_raise
    _get_argv.o(.text) refers (Special) to hrguard.o(.text) for __heap_region$guard
    _get_argv.o(.text) refers to h1_alloc.o(.text) for malloc
    _get_argv.o(.text) refers to defsig_rtmem_outer.o(.text) for __rt_SIGRTMEM
    _get_argv.o(.text) refers to sys_command.o(.text) for _sys_command_string
    libinit2.o(.ARM.Collect$$libinit$$00000003) refers (Weak) to init_alloc.o(.text) for _init_alloc
    libinit2.o(.ARM.Collect$$libinit$$0000000D) refers (Weak) to rt_locale_intlibspace.o(.text) for __rt_locale
    libinit2.o(.ARM.Collect$$libinit$$0000000E) refers to libinit2.o(.ARM.Collect$$libinit$$0000000D) for .ARM.Collect$$libinit$$0000000D
    libinit2.o(.ARM.Collect$$libinit$$00000010) refers to libinit2.o(.ARM.Collect$$libinit$$0000000D) for .ARM.Collect$$libinit$$0000000D
    libinit2.o(.ARM.Collect$$libinit$$00000010) refers (Weak) to lc_ctype_c.o(locale$$code) for _get_lc_ctype
    libinit2.o(.ARM.Collect$$libinit$$00000012) refers to libinit2.o(.ARM.Collect$$libinit$$0000000D) for .ARM.Collect$$libinit$$0000000D
    libinit2.o(.ARM.Collect$$libinit$$00000014) refers to libinit2.o(.ARM.Collect$$libinit$$0000000D) for .ARM.Collect$$libinit$$0000000D
    libinit2.o(.ARM.Collect$$libinit$$00000014) refers (Weak) to lc_numeric_c.o(locale$$code) for _get_lc_numeric
    libinit2.o(.ARM.Collect$$libinit$$00000016) refers to libinit2.o(.ARM.Collect$$libinit$$0000000D) for .ARM.Collect$$libinit$$0000000D
    libinit2.o(.ARM.Collect$$libinit$$00000024) refers to argv_veneer.o(.emb_text) for __ARM_argv_veneer
    libinit2.o(.ARM.Collect$$libinit$$00000025) refers to argv_veneer.o(.emb_text) for __ARM_argv_veneer
    libinit2.o(.ARM.Collect$$libinit$$0000002F) refers (Weak) to init_aeabi.o(.text) for __cpp_initialize__aeabi_
    type_info_dtor.o(.ARM.exidx) refers to type_info_dtor.o(i._ZNSt9type_infoD1Ev) for i._ZNSt9type_infoD1Ev
    type_info_dtor.o(.ARM.exidx) refers to type_info_dtor.o(i._ZNSt9type_infoD0Ev) for i._ZNSt9type_infoD0Ev
    dleqf.o(x$fpl$dleqf) refers (Special) to usenofp.o(x$fpl$usenofp) for __I$use$fp
    dleqf.o(x$fpl$dleqf) refers to dnaninf.o(x$fpl$dnaninf) for __fpl_dnaninf
    dleqf.o(x$fpl$dleqf) refers to dcmpi.o(x$fpl$dcmpinf) for __fpl_dcmp_Inf
    dnaninf.o(x$fpl$dnaninf) refers (Special) to usenofp.o(x$fpl$usenofp) for __I$use$fp
    dretinf.o(x$fpl$dretinf) refers (Special) to usenofp.o(x$fpl$usenofp) for __I$use$fp
    dsqrt_noumaal.o(x$fpl$dsqrt) refers (Special) to usenofp.o(x$fpl$usenofp) for __I$use$fp
    dsqrt_noumaal.o(x$fpl$dsqrt) refers to dnaninf.o(x$fpl$dnaninf) for __fpl_dnaninf
    fcmpi.o(x$fpl$fcmpinf) refers (Special) to usenofp.o(x$fpl$usenofp) for __I$use$fp
    fnaninf.o(x$fpl$fnaninf) refers (Special) to usenofp.o(x$fpl$usenofp) for __I$use$fp
    fretinf.o(x$fpl$fretinf) refers (Special) to usenofp.o(x$fpl$usenofp) for __I$use$fp
    frnd.o(x$fpl$frnd) refers (Special) to usenofp.o(x$fpl$usenofp) for __I$use$fp
    frnd.o(x$fpl$frnd) refers to fnaninf.o(x$fpl$fnaninf) for __fpl_fnaninf
    fsqrt.o(x$fpl$fsqrt) refers (Special) to usenofp.o(x$fpl$usenofp) for __I$use$fp
    fsqrt.o(x$fpl$fsqrt) refers to fnaninf.o(x$fpl$fnaninf) for __fpl_fnaninf
    istatus.o(x$fpl$ieeestatus) refers (Special) to usenofp.o(x$fpl$usenofp) for __I$use$fp
    printf1.o(x$fpl$printf1) refers to _printf_fp_dec.o(.text) for _printf_fp_dec_real
    scalbnf.o(x$fpl$scalbnf) refers (Special) to usenofp.o(x$fpl$usenofp) for __I$use$fp
    scalbnf.o(x$fpl$scalbnf) refers to fcheck1.o(x$fpl$fcheck1) for __fpl_fcheck_NaN1
    fpclassifyf.o(i.__ARM_fpclassifyf) refers (Special) to usenofp.o(x$fpl$usenofp) for __I$use$fp
    funder.o(i.__mathlib_flt_underflow) refers to scalbnf.o(x$fpl$scalbnf) for __ARM_scalbnf
    sys_command.o(.text) refers (Special) to use_no_semi.o(.text) for __I$use$semihosting
    sys_command.o(.text) refers (Special) to indicate_semi.o(.text) for __semihosting_library_function
    libspace.o(.text) refers to libspace.o(.bss) for __libspace_start
    rtentry2.o(.ARM.Collect$$rtentry$$00000008) refers to boardinit2.o(.text) for _platform_post_stackheap_init
    rtentry2.o(.ARM.Collect$$rtentry$$0000000A) refers to libinit.o(.ARM.Collect$$libinit$$00000000) for __rt_lib_init
    rtentry2.o(.ARM.Collect$$rtentry$$0000000B) refers to boardinit3.o(.text) for _platform_post_lib_init
    rtentry2.o(.ARM.Collect$$rtentry$$0000000D) refers to main.o(i.main) for main
    rtentry2.o(.ARM.Collect$$rtentry$$0000000D) refers to exit.o(.text) for exit
    rtentry2.o(.ARM.exidx) refers to rtentry2.o(.ARM.Collect$$rtentry$$00000001) for .ARM.Collect$$rtentry$$00000001
    rtentry2.o(.ARM.exidx) refers to rtentry2.o(.ARM.Collect$$rtentry$$00000008) for .ARM.Collect$$rtentry$$00000008
    rtentry2.o(.ARM.exidx) refers to rtentry2.o(.ARM.Collect$$rtentry$$0000000A) for .ARM.Collect$$rtentry$$0000000A
    rtentry2.o(.ARM.exidx) refers to rtentry2.o(.ARM.Collect$$rtentry$$0000000B) for .ARM.Collect$$rtentry$$0000000B
    rtentry2.o(.ARM.exidx) refers to rtentry2.o(.ARM.Collect$$rtentry$$0000000D) for .ARM.Collect$$rtentry$$0000000D
    rtentry4.o(.ARM.Collect$$rtentry$$00000004) refers to sys_stackheap_outer.o(.text) for __user_setup_stackheap
    rtentry4.o(.ARM.exidx) refers to rtentry4.o(.ARM.Collect$$rtentry$$00000004) for .ARM.Collect$$rtentry$$00000004
    rt_div0.o(.text) refers to defsig_fpe_outer.o(.text) for __rt_SIGFPE
    rt_raise.o(.text) refers to __raise.o(.text) for __raise
    rt_raise.o(.text) refers to sys_exit.o(.text) for _sys_exit
    rt_errno_addr.o(.text) refers to rt_errno_addr.o(.bss) for __aeabi_errno_addr_data
    rt_errno_addr_intlibspace.o(.text) refers to libspace.o(.bss) for __libspace_start
    maybetermalloc2.o(.emb_text) refers (Special) to term_alloc.o(.text) for _terminate_alloc
    h1_extend.o(.text) refers to h1_free.o(.text) for free
    h1_extend_mt.o(.text) refers to h1_free_mt.o(.text) for _free_internal
    _printf_fp_dec.o(.text) refers (Special) to usenofp.o(x$fpl$usenofp) for __I$use$fp
    _printf_fp_dec.o(.text) refers (Special) to lc_numeric_c.o(locale$$code) for _get_lc_numeric
    _printf_fp_dec.o(.text) refers to bigflt0.o(.text) for _btod_etento
    _printf_fp_dec.o(.text) refers to btod.o(CL$$btod_d2e) for _btod_d2e
    _printf_fp_dec.o(.text) refers to btod.o(CL$$btod_ediv) for _btod_ediv
    _printf_fp_dec.o(.text) refers to btod.o(CL$$btod_emul) for _btod_emul
    _printf_fp_dec.o(.text) refers to lludiv10.o(.text) for _ll_udiv10
    _printf_fp_dec.o(.text) refers to fpclassify.o(i.__ARM_fpclassify) for __ARM_fpclassify
    _printf_fp_dec.o(.text) refers to _printf_fp_infnan.o(.text) for _printf_fp_infnan
    _printf_fp_dec.o(.text) refers (Weak) to _printf_pad.o(.text) for _printf_pre_padding
    _printf_fp_dec.o(.text) refers (Weak) to _printf_pad.o(.text) for _printf_pre_padding
    _printf_fp_dec.o(.text) refers to rt_locale_intlibspace.o(.text) for __rt_locale
    _printf_fp_dec.o(.text) refers (Weak) to _printf_pad.o(.text) for _printf_post_padding
    _printf_char.o(.text) refers (Weak) to _printf_str.o(.text) for _printf_str
    _printf_wchar.o(.text) refers (Weak) to _printf_wctomb.o(.text) for _printf_wctomb
    _wcrtomb.o(.text) refers to rt_ctype_table.o(.text) for __rt_ctype_table
    defsig_exit.o(.text) refers to sys_exit.o(.text) for _sys_exit
    defsig_abrt_inner.o(.text) refers to defsig_general.o(.text) for __default_signal_display
    defsig_rtmem_outer.o(.text) refers to defsig_rtmem_inner.o(.text) for __rt_SIGRTMEM_inner
    defsig_rtmem_outer.o(.text) refers to defsig_exit.o(.text) for __sig_exit
    defsig_rtmem_formal.o(.text) refers to rt_raise.o(.text) for __rt_raise
    heapauxa.o(.text) refers to heapauxa.o(.data) for .data
    argv_veneer.o(.emb_text) refers to no_argv.o(.text) for __ARM_get_argv
    dcmpi.o(x$fpl$dcmpinf) refers (Special) to usenofp.o(x$fpl$usenofp) for __I$use$fp
    fcheck1.o(x$fpl$fcheck1) refers (Special) to usenofp.o(x$fpl$usenofp) for __I$use$fp
    fcheck1.o(x$fpl$fcheck1) refers to retnan.o(x$fpl$retnan) for __fpl_return_NaN
    sys_stackheap_outer.o(.text) refers to libspace.o(.text) for __user_perproc_libspace
    sys_stackheap_outer.o(.text) refers to startup_lpc17xx.o(.text) for __user_initial_stackheap
    rt_ctype_table.o(.text) refers to rt_locale_intlibspace.o(.text) for __rt_locale
    rt_ctype_table.o(.text) refers to lc_ctype_c.o(locale$$code) for _get_lc_ctype
    rt_locale.o(.text) refers to rt_locale.o(.bss) for __rt_locale_data
    rt_locale_intlibspace.o(.text) refers to libspace.o(.bss) for __libspace_start
    term_alloc.o(.text) refers (Special) to libshutdown2.o(.ARM.Collect$$libshutdown$$0000000D) for __rt_lib_shutdown_heap_2
    term_alloc.o(.text) refers to rt_heap_descriptor_intlibspace.o(.text) for __rt_heap_descriptor
    term_alloc.o(.text) refers to h1_final.o(.text) for __Heap_Finalize
    _printf_fp_infnan.o(.text) refers (Weak) to _printf_pad.o(.text) for _printf_pre_padding
    _printf_fp_infnan.o(.text) refers (Weak) to _printf_pad.o(.text) for _printf_post_padding
    bigflt0.o(.text) refers (Special) to usenofp.o(x$fpl$usenofp) for __I$use$fp
    bigflt0.o(.text) refers to btod.o(CL$$btod_emul) for _btod_emul
    bigflt0.o(.text) refers to btod.o(CL$$btod_ediv) for _btod_ediv
    bigflt0.o(.text) refers to bigflt0.o(.constdata) for .constdata
    bigflt0.o(.constdata) refers (Special) to usenofp.o(x$fpl$usenofp) for __I$use$fp
    btod.o(CL$$btod_d2e) refers (Special) to usenofp.o(x$fpl$usenofp) for __I$use$fp
    btod.o(CL$$btod_d2e) refers to btod.o(CL$$btod_d2e_norm_op1) for _d2e_norm_op1
    btod.o(CL$$btod_d2e_norm_op1) refers (Special) to usenofp.o(x$fpl$usenofp) for __I$use$fp
    btod.o(CL$$btod_d2e_norm_op1) refers to btod.o(CL$$btod_d2e_denorm_low) for _d2e_denorm_low
    btod.o(CL$$btod_d2e_denorm_low) refers (Special) to usenofp.o(x$fpl$usenofp) for __I$use$fp
    btod.o(CL$$btod_emul) refers (Special) to usenofp.o(x$fpl$usenofp) for __I$use$fp
    btod.o(CL$$btod_emul) refers to btod.o(CL$$btod_mult_common) for __btod_mult_common
    btod.o(CL$$btod_emul) refers to btod.o(CL$$btod_e2e) for _e2e
    btod.o(CL$$btod_ediv) refers (Special) to usenofp.o(x$fpl$usenofp) for __I$use$fp
    btod.o(CL$$btod_ediv) refers to btod.o(CL$$btod_div_common) for __btod_div_common
    btod.o(CL$$btod_ediv) refers to btod.o(CL$$btod_e2e) for _e2e
    btod.o(CL$$btod_emuld) refers (Special) to usenofp.o(x$fpl$usenofp) for __I$use$fp
    btod.o(CL$$btod_emuld) refers to btod.o(CL$$btod_mult_common) for __btod_mult_common
    btod.o(CL$$btod_emuld) refers to btod.o(CL$$btod_e2d) for _e2d
    btod.o(CL$$btod_edivd) refers (Special) to usenofp.o(x$fpl$usenofp) for __I$use$fp
    btod.o(CL$$btod_edivd) refers to btod.o(CL$$btod_div_common) for __btod_div_common
    btod.o(CL$$btod_edivd) refers to btod.o(CL$$btod_e2d) for _e2d
    btod.o(CL$$btod_e2e) refers (Special) to usenofp.o(x$fpl$usenofp) for __I$use$fp
    btod.o(CL$$btod_e2d) refers (Special) to usenofp.o(x$fpl$usenofp) for __I$use$fp
    btod.o(CL$$btod_e2d) refers to btod.o(CL$$btod_e2e) for _e2e
    btod.o(CL$$btod_mult_common) refers (Special) to usenofp.o(x$fpl$usenofp) for __I$use$fp
    btod.o(CL$$btod_div_common) refers (Special) to usenofp.o(x$fpl$usenofp) for __I$use$fp
    lc_numeric_c.o(locale$$data) refers (Special) to libinit2.o(.ARM.Collect$$libinit$$00000014) for __rt_lib_init_lc_numeric_2
    lc_numeric_c.o(locale$$code) refers (Special) to libinit2.o(.ARM.Collect$$libinit$$00000014) for __rt_lib_init_lc_numeric_2
    lc_numeric_c.o(locale$$code) refers to strcmpv7m.o(.text) for strcmp
    lc_numeric_c.o(locale$$code) refers to lc_numeric_c.o(locale$$data) for __lcnum_c_name
    exit.o(.text) refers to rtexit.o(.ARM.Collect$$rtexit$$00000000) for __rt_exit
    __raise.o(.text) refers to defsig.o(CL$$defsig) for __default_signal_handler
    defsig_general.o(.text) refers to sys_wrch.o(.text) for _ttywrch
    defsig_fpe_outer.o(.text) refers to defsig_fpe_inner.o(.text) for __rt_SIGFPE_inner
    defsig_fpe_outer.o(.text) refers to defsig_exit.o(.text) for __sig_exit
    defsig_fpe_formal.o(.text) refers to rt_raise.o(.text) for __rt_raise
    defsig_rtmem_inner.o(.text) refers to defsig_general.o(.text) for __default_signal_display
    _get_argv_nomalloc.o(.text) refers (Special) to hrguard.o(.text) for __heap_region$guard
    _get_argv_nomalloc.o(.text) refers to defsig_rtmem_outer.o(.text) for __rt_SIGRTMEM
    _get_argv_nomalloc.o(.text) refers to sys_command.o(.text) for _sys_command_string
    libinit.o(.ARM.Collect$$libinit$$00000000) refers (Special) to libinit2.o(.ARM.Collect$$libinit$$0000002C) for __rt_lib_init_alloca_1
    libinit.o(.ARM.Collect$$libinit$$00000000) refers (Special) to libinit2.o(.ARM.Collect$$libinit$$0000002A) for __rt_lib_init_argv_1
    libinit.o(.ARM.Collect$$libinit$$00000000) refers (Special) to libinit2.o(.ARM.Collect$$libinit$$00000019) for __rt_lib_init_atexit_1
    libinit.o(.ARM.Collect$$libinit$$00000000) refers (Special) to libinit2.o(.ARM.Collect$$libinit$$0000001F) for __rt_lib_init_clock_1
    libinit.o(.ARM.Collect$$libinit$$00000000) refers (Special) to libinit2.o(.ARM.Collect$$libinit$$00000030) for __rt_lib_init_cpp_1
    libinit.o(.ARM.Collect$$libinit$$00000000) refers (Special) to libinit2.o(.ARM.Collect$$libinit$$0000002E) for __rt_lib_init_exceptions_1
    libinit.o(.ARM.Collect$$libinit$$00000000) refers (Special) to libinit2.o(.ARM.Collect$$libinit$$00000002) for __rt_lib_init_fp_1
    libinit.o(.ARM.Collect$$libinit$$00000000) refers (Special) to libinit2.o(.ARM.Collect$$libinit$$0000001D) for __rt_lib_init_fp_trap_1
    libinit.o(.ARM.Collect$$libinit$$00000000) refers (Special) to libinit2.o(.ARM.Collect$$libinit$$00000021) for __rt_lib_init_getenv_1
    libinit.o(.ARM.Collect$$libinit$$00000000) refers (Special) to libinit2.o(.ARM.Collect$$libinit$$00000008) for __rt_lib_init_heap_1
    libinit.o(.ARM.Collect$$libinit$$00000000) refers (Special) to libinit2.o(.ARM.Collect$$libinit$$0000000F) for __rt_lib_init_lc_collate_1
    libinit.o(.ARM.Collect$$libinit$$00000000) refers (Special) to libinit2.o(.ARM.Collect$$libinit$$00000011) for __rt_lib_init_lc_ctype_1
    libinit.o(.ARM.Collect$$libinit$$00000000) refers (Special) to libinit2.o(.ARM.Collect$$libinit$$00000013) for __rt_lib_init_lc_monetary_1
    libinit.o(.ARM.Collect$$libinit$$00000000) refers (Special) to libinit2.o(.ARM.Collect$$libinit$$00000015) for __rt_lib_init_lc_numeric_1
    libinit.o(.ARM.Collect$$libinit$$00000000) refers (Special) to libinit2.o(.ARM.Collect$$libinit$$00000017) for __rt_lib_init_lc_time_1
    libinit.o(.ARM.Collect$$libinit$$00000000) refers (Special) to libinit2.o(.ARM.Collect$$libinit$$0000000C) for __rt_lib_init_rand_1
    libinit.o(.ARM.Collect$$libinit$$00000000) refers (Special) to libinit2.o(.ARM.Collect$$libinit$$00000031) for __rt_lib_init_return
    libinit.o(.ARM.Collect$$libinit$$00000000) refers (Special) to libinit2.o(.ARM.Collect$$libinit$$0000001B) for __rt_lib_init_signal_1
    libinit.o(.ARM.Collect$$libinit$$00000000) refers (Special) to libinit2.o(.ARM.Collect$$libinit$$00000023) for __rt_lib_init_stdio_1
    libinit.o(.ARM.Collect$$libinit$$00000000) refers (Special) to libinit2.o(.ARM.Collect$$libinit$$0000000A) for __rt_lib_init_user_alloc_1
    retnan.o(x$fpl$retnan) refers (Special) to usenofp.o(x$fpl$usenofp) for __I$use$fp
    retnan.o(x$fpl$retnan) refers to trapv.o(x$fpl$trapveneer) for __fpl_cmpreturn
    fpclassify.o(i.__ARM_fpclassify) refers (Special) to usenofp.o(x$fpl$usenofp) for __I$use$fp
    sys_wrch.o(.text) refers (Special) to use_no_semi.o(.text) for __I$use$semihosting
    sys_wrch.o(.text) refers (Special) to indicate_semi.o(.text) for __semihosting_library_function
    rtexit.o(.ARM.Collect$$rtexit$$00000000) refers (Special) to rtexit2.o(.ARM.Collect$$rtexit$$00000004) for __rt_exit_exit
    rtexit.o(.ARM.Collect$$rtexit$$00000000) refers (Special) to rtexit2.o(.ARM.Collect$$rtexit$$00000003) for __rt_exit_ls
    rtexit.o(.ARM.Collect$$rtexit$$00000000) refers (Special) to rtexit2.o(.ARM.Collect$$rtexit$$00000002) for __rt_exit_prels_1
    rtexit.o(.ARM.exidx) refers (Special) to rtexit2.o(.ARM.Collect$$rtexit$$00000004) for __rt_exit_exit
    rtexit.o(.ARM.exidx) refers (Special) to rtexit2.o(.ARM.Collect$$rtexit$$00000003) for __rt_exit_ls
    rtexit.o(.ARM.exidx) refers (Special) to rtexit2.o(.ARM.Collect$$rtexit$$00000002) for __rt_exit_prels_1
    rtexit.o(.ARM.exidx) refers to rtexit.o(.ARM.Collect$$rtexit$$00000000) for .ARM.Collect$$rtexit$$00000000
    lc_ctype_c.o(locale$$data) refers (Special) to libinit2.o(.ARM.Collect$$libinit$$00000010) for __rt_lib_init_lc_ctype_2
    lc_ctype_c.o(locale$$code) refers (Special) to libinit2.o(.ARM.Collect$$libinit$$00000010) for __rt_lib_init_lc_ctype_2
    lc_ctype_c.o(locale$$code) refers to strcmpv7m.o(.text) for strcmp
    lc_ctype_c.o(locale$$code) refers to lc_ctype_c.o(locale$$data) for __lcctype_c_name
    defsig_fpe_inner.o(.text) refers to defsig_general.o(.text) for __default_signal_display
    defsig.o(CL$$defsig) refers to defsig_abrt_inner.o(.text) for __rt_SIGABRT_inner
    defsig.o(CL$$defsig) refers to defsig_fpe_inner.o(.text) for __rt_SIGFPE_inner
    defsig.o(CL$$defsig) refers to defsig_rtmem_inner.o(.text) for __rt_SIGRTMEM_inner
    libshutdown2.o(.ARM.Collect$$libshutdown$$0000000C) refers (Weak) to term_alloc.o(.text) for _terminate_alloc
    trapv.o(x$fpl$trapveneer) refers (Special) to usenofp.o(x$fpl$usenofp) for __I$use$fp
    rtexit2.o(.ARM.Collect$$rtexit$$00000003) refers to libshutdown.o(.ARM.Collect$$libshutdown$$00000000) for __rt_lib_shutdown
    rtexit2.o(.ARM.Collect$$rtexit$$00000004) refers to sys_exit.o(.text) for _sys_exit
    rtexit2.o(.ARM.exidx) refers to rtexit2.o(.ARM.Collect$$rtexit$$00000001) for .ARM.Collect$$rtexit$$00000001
    rtexit2.o(.ARM.exidx) refers to rtexit2.o(.ARM.Collect$$rtexit$$00000003) for .ARM.Collect$$rtexit$$00000003
    rtexit2.o(.ARM.exidx) refers to rtexit2.o(.ARM.Collect$$rtexit$$00000004) for .ARM.Collect$$rtexit$$00000004
    defsig_rtred_inner.o(.text) refers to defsig_general.o(.text) for __default_signal_display
    defsig_stak_inner.o(.text) refers to defsig_general.o(.text) for __default_signal_display
    defsig_pvfn_inner.o(.text) refers to defsig_general.o(.text) for __default_signal_display
    defsig_cppl_inner.o(.text) refers to defsig_general.o(.text) for __default_signal_display
    defsig_segv_inner.o(.text) refers to defsig_general.o(.text) for __default_signal_display
    defsig_other.o(.text) refers to defsig_general.o(.text) for __default_signal_display
    libshutdown.o(.ARM.Collect$$libshutdown$$00000000) refers (Special) to libshutdown2.o(.ARM.Collect$$libshutdown$$00000006) for __rt_lib_shutdown_fp_trap_1
    libshutdown.o(.ARM.Collect$$libshutdown$$00000000) refers (Special) to libshutdown2.o(.ARM.Collect$$libshutdown$$0000000E) for __rt_lib_shutdown_heap_1
    libshutdown.o(.ARM.Collect$$libshutdown$$00000000) refers (Special) to libshutdown2.o(.ARM.Collect$$libshutdown$$0000000F) for __rt_lib_shutdown_return
    libshutdown.o(.ARM.Collect$$libshutdown$$00000000) refers (Special) to libshutdown2.o(.ARM.Collect$$libshutdown$$00000009) for __rt_lib_shutdown_signal_1
    libshutdown.o(.ARM.Collect$$libshutdown$$00000000) refers (Special) to libshutdown2.o(.ARM.Collect$$libshutdown$$00000003) for __rt_lib_shutdown_stdio_1
    libshutdown.o(.ARM.Collect$$libshutdown$$00000000) refers (Special) to libshutdown2.o(.ARM.Collect$$libshutdown$$0000000B) for __rt_lib_shutdown_user_alloc_1
    lib.o(.constdata__ZTV8cHwTimer) refers to lib.o(.constdata__ZTI8cHwTimer) for typeinfo for cHwTimer
    lib.o(.constdata__ZTV8cHwTimer) refers to lib.o(i._ZN8cHwTimer12getCycleTimeEv) for cHwTimer::getCycleTime()
    lib.o(.constdata__ZTV8cHwTimer) refers to lib.o(i._ZN8cHwTimer3addEPN5cList4ItemE) for cHwTimer::add(cList::Item*)
    lib.o(.constdata__ZTV8cHwTimer) refers to lib.o(i.__cxa_pure_virtual) for __cxa_pure_virtual
    lib.o(.constdata__ZTV8cHwTimer) refers to lib.o(i._ZN8cHwTimer10isrHandlerEv) for cHwTimer::isrHandler()
    lib.o(.constdata__ZTVN12cHwI2Cmaster6DeviceE) refers to lib.o(.constdata__ZTIN12cHwI2Cmaster6DeviceE) for typeinfo for cHwI2Cmaster::Device
    lib.o(.constdata__ZTVN12cHwI2Cmaster6DeviceE) refers to lib.o(i._ZN12cHwI2Cmaster6Device4readEv) for cHwI2Cmaster::Device::read()
    lib.o(.constdata__ZTVN12cHwI2Cmaster6DeviceE) refers to lib.o(i._ZN12cHwI2Cmaster6Device4readEh) for cHwI2Cmaster::Device::read(unsigned char)
    lib.o(.constdata__ZTVN12cHwI2Cmaster6DeviceE) refers to lib.o(i._ZN12cHwI2Cmaster6Device4readEt) for cHwI2Cmaster::Device::read(unsigned short)
    lib.o(.constdata__ZTVN12cHwI2Cmaster6DeviceE) refers to lib.o(i._ZN12cHwI2Cmaster6Device4readEPhh) for cHwI2Cmaster::Device::read(unsigned char*, unsigned char)
    lib.o(.constdata__ZTVN12cHwI2Cmaster6DeviceE) refers to lib.o(i._ZN12cHwI2Cmaster6Device4readEhPhh) for cHwI2Cmaster::Device::read(unsigned char, unsigned char*, unsigned char)
    lib.o(.constdata__ZTVN12cHwI2Cmaster6DeviceE) refers to lib.o(i._ZN12cHwI2Cmaster6Device4readEtPhh) for cHwI2Cmaster::Device::read(unsigned short, unsigned char*, unsigned char)
    lib.o(.constdata__ZTVN12cHwI2Cmaster6DeviceE) refers to lib.o(i._ZN12cHwI2Cmaster6Device5writeEh) for cHwI2Cmaster::Device::write(unsigned char)
    lib.o(.constdata__ZTVN12cHwI2Cmaster6DeviceE) refers to lib.o(i._ZN12cHwI2Cmaster6Device5writeEhh) for cHwI2Cmaster::Device::write(unsigned char, unsigned char)
    lib.o(.constdata__ZTVN12cHwI2Cmaster6DeviceE) refers to lib.o(i._ZN12cHwI2Cmaster6Device5writeEth) for cHwI2Cmaster::Device::write(unsigned short, unsigned char)
    lib.o(.constdata__ZTVN12cHwI2Cmaster6DeviceE) refers to lib.o(i._ZN12cHwI2Cmaster6Device5writeEPhh) for cHwI2Cmaster::Device::write(unsigned char*, unsigned char)
    lib.o(.constdata__ZTVN12cHwI2Cmaster6DeviceE) refers to lib.o(i._ZN12cHwI2Cmaster6Device5writeEhPhh) for cHwI2Cmaster::Device::write(unsigned char, unsigned char*, unsigned char)
    lib.o(.constdata__ZTVN12cHwI2Cmaster6DeviceE) refers to lib.o(i._ZN12cHwI2Cmaster6Device5writeEtPhh) for cHwI2Cmaster::Device::write(unsigned short, unsigned char*, unsigned char)
    lib.o(.constdata__ZTVN12cHwI2Cmaster6DeviceE) refers to lib.o(i._ZN12cHwI2Cmaster6Device7isErrorEv) for cHwI2Cmaster::Device::isError()
    lib.o(.constdata__ZTV9cHwPort_N) refers to lib.o(.constdata__ZTI9cHwPort_N) for typeinfo for cHwPort_N
    lib.o(.constdata__ZTV9cHwPort_N) refers to lib.o(i._ZN9cHwPort_N7setModeEjN7cHwPort4ModeE) for cHwPort_N::setMode(unsigned, cHwPort::Mode)
    lib.o(.constdata__ZTV9cHwPort_N) refers to lib.o(i._ZN9cHwPort_N10setPinModeEhN7cHwPort4ModeE) for cHwPort_N::setPinMode(unsigned char, cHwPort::Mode)
    lib.o(.constdata__ZTV9cHwPort_N) refers to lib.o(i._ZN9cHwPort_N3setEj) for cHwPort_N::set(unsigned)
    lib.o(.constdata__ZTV9cHwPort_N) refers to lib.o(i._ZN9cHwPort_N3setEjj) for cHwPort_N::set(unsigned, unsigned)
    lib.o(.constdata__ZTV9cHwPort_N) refers to lib.o(i._ZN9cHwPort_N3clrEj) for cHwPort_N::clr(unsigned)
    lib.o(.constdata__ZTV9cHwPort_N) refers to lib.o(i._ZN9cHwPort_N3getEv) for cHwPort_N::get()
    lib.o(.constdata__ZTVN12cHwSPImaster6DeviceE) refers to lib.o(.constdata__ZTIN12cHwSPImaster6DeviceE) for typeinfo for cHwSPImaster::Device
    lib.o(.constdata__ZTVN12cHwSPImaster6DeviceE) refers to lib.o(i._ZN12cHwSPImaster6Device10transceiveEh) for cHwSPImaster::Device::transceive(unsigned char)
    lib.o(.constdata__ZTVN12cHwSPImaster6DeviceE) refers to lib.o(i._ZN12cHwSPImaster6Device10transceiveEPht) for cHwSPImaster::Device::transceive(unsigned char*, unsigned short)
    lib.o(.constdata__ZTVN12cHwSPImaster6DeviceE) refers to lib.o(i._ZN12cHwSPImaster6Device4readEv) for cHwSPImaster::Device::read()
    lib.o(.constdata__ZTVN12cHwSPImaster6DeviceE) refers to lib.o(i._ZN12cHwSPImaster6Device4readEPht) for cHwSPImaster::Device::read(unsigned char*, unsigned short)
    lib.o(.constdata__ZTVN12cHwSPImaster6DeviceE) refers to lib.o(i._ZN12cHwSPImaster6Device5writeEh) for cHwSPImaster::Device::write(unsigned char)
    lib.o(.constdata__ZTVN12cHwSPImaster6DeviceE) refers to lib.o(i._ZN12cHwSPImaster6Device5writeEt) for cHwSPImaster::Device::write(unsigned short)
    lib.o(.constdata__ZTVN12cHwSPImaster6DeviceE) refers to lib.o(i._ZN12cHwSPImaster6Device5writeEPht) for cHwSPImaster::Device::write(unsigned char*, unsigned short)
    lib.o(.constdata__ZTVN12cHwSPImaster6DeviceE) refers to lib.o(i._ZN12cHwSPImaster6Device8writeExtEhh) for cHwSPImaster::Device::writeExt(unsigned char, unsigned char)
    lib.o(.constdata__ZTVN12cHwSPImaster6DeviceE) refers to lib.o(i._ZN12cHwSPImaster6Device8writeExtEht) for cHwSPImaster::Device::writeExt(unsigned char, unsigned short)
    lib.o(.constdata__ZTV10cHwUSBdesc) refers to lib.o(.constdata__ZTI10cHwUSBdesc) for typeinfo for cHwUSBdesc
    lib.o(.constdata__ZTV10cHwUSBdesc) refers to lib.o(i.__cxa_pure_virtual) for __cxa_pure_virtual
    lib.o(.constdata__ZTV10cHwUSBdesc) refers to lib.o(i._ZN10cHwUSBdesc19getDescriptorDeviceEv) for cHwUSBdesc::getDescriptorDevice()
    lib.o(.constdata__ZTV10cHwUSBdesc) refers to lib.o(i._ZN10cHwUSBdesc19getDescriptorConfigEh) for cHwUSBdesc::getDescriptorConfig(unsigned char)
    lib.o(.constdata__ZTV10cHwUSBdesc) refers to lib.o(i._ZN10cHwUSBdesc22getDescriptorInterfaceEhh) for cHwUSBdesc::getDescriptorInterface(unsigned char, unsigned char)
    lib.o(.constdata__ZTV10cHwUSBdesc) refers to lib.o(i._ZN10cHwUSBdesc21getDescriptorEndpointEhhh) for cHwUSBdesc::getDescriptorEndpoint(unsigned char, unsigned char, unsigned char)
    lib.o(.constdata__ZTV10cHwUSBdesc) refers to lib.o(i._ZN10cHwUSBdesc16getDescriptorHIDEhhh) for cHwUSBdesc::getDescriptorHID(unsigned char, unsigned char, unsigned char)
    lib.o(.constdata__ZTV10cHwUSBdesc) refers to lib.o(i._ZN10cHwUSBdesc22getDescriptorHIDreportEhhh) for cHwUSBdesc::getDescriptorHIDreport(unsigned char, unsigned char, unsigned char)
    lib.o(.constdata__ZTV10cHwUSBdesc) refers to lib.o(i._ZN10cHwUSBdesc19getDescriptorStringEh) for cHwUSBdesc::getDescriptorString(unsigned char)
    lib.o(.constdata__ZTV10cHwUSBdesc) refers to lib.o(i._ZN10cHwUSBdesc17getMaxPacketSize0Ev) for cHwUSBdesc::getMaxPacketSize0()
    lib.o(.constdata__ZTV10cHwUSBdesc) refers to lib.o(i._ZN10cHwUSBdesc21getConfigDeviceStatusEh) for cHwUSBdesc::getConfigDeviceStatus(unsigned char)
    lib.o(.constdata__ZTV6cHwUSB) refers to lib.o(.constdata__ZTI6cHwUSB) for typeinfo for cHwUSB
    lib.o(.constdata__ZTV6cHwUSB) refers to lib.o(i._ZN6cHwUSB12eventHandlerEhh) for cHwUSB::eventHandler(unsigned char, unsigned char)
    lib.o(.constdata__ZTV6cHwUSB) refers to lib.o(i.__cxa_pure_virtual) for __cxa_pure_virtual
    lib.o(.constdata__ZTV8cHwUSB_0) refers to lib.o(.constdata__ZTI8cHwUSB_0) for typeinfo for cHwUSB_0
    lib.o(.constdata__ZTV8cHwUSB_0) refers to lib.o(i._ZN6cHwUSB12eventHandlerEhh) for cHwUSB::eventHandler(unsigned char, unsigned char)
    lib.o(.constdata__ZTV8cHwUSB_0) refers to lib.o(i._ZN8cHwUSB_05startEv) for cHwUSB_0::start()
    lib.o(.constdata__ZTV8cHwUSB_0) refers to lib.o(i._ZN8cHwUSB_05resetEv) for cHwUSB_0::reset()
    lib.o(.constdata__ZTV8cHwUSB_0) refers to lib.o(i._ZN8cHwUSB_09configureEh) for cHwUSB_0::configure(unsigned char)
    lib.o(.constdata__ZTV8cHwUSB_0) refers to lib.o(i._ZN8cHwUSB_010setAddressEh) for cHwUSB_0::setAddress(unsigned char)
    lib.o(.constdata__ZTV8cHwUSB_0) refers to lib.o(i._ZN8cHwUSB_08configEPEhth) for cHwUSB_0::configEP(unsigned char, unsigned short, unsigned char)
    lib.o(.constdata__ZTV8cHwUSB_0) refers to lib.o(i._ZN8cHwUSB_010setStallEPEh) for cHwUSB_0::setStallEP(unsigned char)
    lib.o(.constdata__ZTV8cHwUSB_0) refers to lib.o(i._ZN8cHwUSB_010clrStallEPEh) for cHwUSB_0::clrStallEP(unsigned char)
    lib.o(.constdata__ZTV8cHwUSB_0) refers to lib.o(i._ZN8cHwUSB_06readEPEhPht) for cHwUSB_0::readEP(unsigned char, unsigned char*, unsigned short)
    lib.o(.constdata__ZTV8cHwUSB_0) refers to lib.o(i._ZN8cHwUSB_07writeEPEhPht) for cHwUSB_0::writeEP(unsigned char, unsigned char*, unsigned short)
    lib.o(.constdata__ZTV14cHwDAC_MAX5308) refers to lib.o(.constdata__ZTI14cHwDAC_MAX5308) for typeinfo for cHwDAC_MAX5308
    lib.o(.constdata__ZTV14cHwDAC_MAX5308) refers to lib.o(i._ZN14cHwDAC_MAX53083setEth) for cHwDAC_MAX5308::set(unsigned short, unsigned char)
    lib.o(.constdata__ZTV14cHwDAC_MAX5308) refers to lib.o(i._ZN14cHwDAC_MAX53086enableEh) for cHwDAC_MAX5308::enable(unsigned char)
    lib.o(.constdata__ZTV14cHwDAC_MAX5308) refers to lib.o(i._ZN6cHwDAC19getNumberOfChannelsEv) for cHwDAC::getNumberOfChannels()
    lib.o(.constdata__ZTV14cHwDAC_MCP4441) refers to lib.o(.constdata__ZTI14cHwDAC_MCP4441) for typeinfo for cHwDAC_MCP4441
    lib.o(.constdata__ZTV14cHwDAC_MCP4441) refers to lib.o(i._ZN14cHwDAC_MCP44413setEth) for cHwDAC_MCP4441::set(unsigned short, unsigned char)
    lib.o(.constdata__ZTV14cHwDAC_MCP4441) refers to lib.o(i._ZN14cHwDAC_MCP44416enableEh) for cHwDAC_MCP4441::enable(unsigned char)
    lib.o(.constdata__ZTV14cHwDAC_MCP4441) refers to lib.o(i._ZN6cHwDAC19getNumberOfChannelsEv) for cHwDAC::getNumberOfChannels()
    lib.o(.constdata__ZTV14cHwDAC_MCP4922) refers to lib.o(.constdata__ZTI14cHwDAC_MCP4922) for typeinfo for cHwDAC_MCP4922
    lib.o(.constdata__ZTV14cHwDAC_MCP4922) refers to lib.o(i._ZN14cHwDAC_MCP49223setEth) for cHwDAC_MCP4922::set(unsigned short, unsigned char)
    lib.o(.constdata__ZTV14cHwDAC_MCP4922) refers to lib.o(i._ZN14cHwDAC_MCP49226enableEh) for cHwDAC_MCP4922::enable(unsigned char)
    lib.o(.constdata__ZTV14cHwDAC_MCP4922) refers to lib.o(i._ZN6cHwDAC19getNumberOfChannelsEv) for cHwDAC::getNumberOfChannels()
    lib.o(.constdata__ZTV17cHwDisplayGraphic) refers to lib.o(.constdata__ZTI17cHwDisplayGraphic) for typeinfo for cHwDisplayGraphic
    lib.o(.constdata__ZTV17cHwDisplayGraphic) refers to lib.o(i.__cxa_pure_virtual) for __cxa_pure_virtual
    lib.o(.constdata__ZTV17cHwDisplayGraphic) refers to lib.o(i._ZN17cHwDisplayGraphic11gotoTextPosEhh) for cHwDisplayGraphic::gotoTextPos(unsigned char, unsigned char)
    lib.o(.constdata__ZTV17cHwDisplayGraphic) refers to lib.o(i._ZN17cHwDisplayGraphic7putCharEc) for cHwDisplayGraphic::putChar(char)
    lib.o(.constdata__ZTV17cHwDisplayGraphic) refers to lib.o(i._ZN10cHwDisplay16getNumberOfLinesEv) for cHwDisplay::getNumberOfLines()
    lib.o(.constdata__ZTV17cHwDisplayGraphic) refers to lib.o(i._ZN10cHwDisplay18getNumberOfColumnsEv) for cHwDisplay::getNumberOfColumns()
    lib.o(.constdata__ZTV17cHwDisplayGraphic) refers to lib.o(i._ZN17cHwDisplayGraphic7setFontE14cHwDisplayFonth) for cHwDisplayGraphic::setFont(cHwDisplayFont, unsigned char)
    lib.o(.constdata__ZTV17cHwDisplayGraphic) refers to lib.o(i._ZN17cHwDisplayGraphic7setZoomEh) for cHwDisplayGraphic::setZoom(unsigned char)
    lib.o(.constdata__ZTV17cHwDisplayGraphic) refers to lib.o(i._ZN17cHwDisplayGraphic12setBackColorEt) for cHwDisplayGraphic::setBackColor(unsigned short)
    lib.o(.constdata__ZTV17cHwDisplayGraphic) refers to lib.o(i._ZN17cHwDisplayGraphic13setPaintColorEt) for cHwDisplayGraphic::setPaintColor(unsigned short)
    lib.o(.constdata__ZTV17cHwDisplayGraphic) refers to lib.o(i._ZN17cHwDisplayGraphic12setTextColorEt) for cHwDisplayGraphic::setTextColor(unsigned short)
    lib.o(.constdata__ZTV17cHwDisplayGraphic) refers to lib.o(i._ZN17cHwDisplayGraphic12gotoPixelPosEtt) for cHwDisplayGraphic::gotoPixelPos(unsigned short, unsigned short)
    lib.o(.constdata__ZTV17cHwDisplayGraphic) refers to lib.o(i._ZN17cHwDisplayGraphic8putPixelEtt) for cHwDisplayGraphic::putPixel(unsigned short, unsigned short)
    lib.o(.constdata__ZTV17cHwDisplayGraphic) refers to lib.o(i._ZN17cHwDisplayGraphic12putRectangleEtttt) for cHwDisplayGraphic::putRectangle(unsigned short, unsigned short, unsigned short, unsigned short)
    lib.o(.constdata__ZTV17cHwDisplayGraphic) refers to lib.o(i._ZN17cHwDisplayGraphic9putBitmapEttttPKt) for cHwDisplayGraphic::putBitmap(unsigned short, unsigned short, unsigned short, unsigned short, const unsigned short*)
    lib.o(.constdata__ZTV17cHwDisplayGraphic) refers to lib.o(i._ZN17cHwDisplayGraphic14getDefaultFontEv) for cHwDisplayGraphic::getDefaultFont()
    lib.o(.constdata__ZTVN13cNetTransport6SocketE) refers to lib.o(.constdata__ZTIN13cNetTransport6SocketE) for typeinfo for cNetTransport::Socket
    lib.o(.constdata__ZTVN13cNetTransport6SocketE) refers to lib.o(i._ZN13cNetTransport6Socket6updateEv) for cNetTransport::Socket::update()
    lib.o(.constdata__ZTVN13cNetTransport6SocketE) refers to lib.o(i.__cxa_pure_virtual) for __cxa_pure_virtual
    lib.o(.constdata__ZTVN13cNetTransport6SocketE) refers to lib.o(i._ZN13cNetTransport6Socket11openDefaultEv) for cNetTransport::Socket::openDefault()
    lib.o(.constdata__ZTVN13cNetTransport6SocketE) refers to lib.o(i._ZN13cNetTransport6Socket11getRemoteIPEv) for cNetTransport::Socket::getRemoteIP()
    lib.o(.constdata__ZTVN13cNetTransport6SocketE) refers to lib.o(i._ZN13cNetTransport6Socket4fillEc) for cNetTransport::Socket::fill(char)
    lib.o(.constdata__ZTVN13cNetTransport6SocketE) refers to lib.o(i._ZN13cNetTransport6Socket4fillEPKc) for cNetTransport::Socket::fill(const char*)
    lib.o(.constdata__ZTVN13cNetTransport6SocketE) refers to lib.o(i._ZN13cNetTransport6Socket4fillEPKct) for cNetTransport::Socket::fill(const char*, unsigned short)
    lib.o(.constdata__ZTVN13cNetTransport6SocketE) refers to lib.o(i._ZN13cNetTransport6Socket10setTimeoutEtt) for cNetTransport::Socket::setTimeout(unsigned short, unsigned short)
    lib.o(.constdata__ZTV13cNetTransport) refers to lib.o(.constdata__ZTI13cNetTransport) for typeinfo for cNetTransport
    lib.o(.constdata__ZTV13cNetTransport) refers to lib.o(i._ZN13cNetTransport7processEv) for cNetTransport::process()
    lib.o(.constdata__ZTV13cNetTransport) refers to lib.o(i._ZN13cNetTransport6updateEv) for cNetTransport::update()
    lib.o(.constdata__ZTV13cNetTransport) refers to lib.o(i._ZN13cNetTransport7timeoutEv) for cNetTransport::timeout()
    lib.o(.constdata__ZTV13cNetTransport) refers to lib.o(i.__cxa_pure_virtual) for __cxa_pure_virtual
    lib.o(.constdata__ZTV7cNetUDP) refers to lib.o(.constdata__ZTI7cNetUDP) for typeinfo for cNetUDP
    lib.o(.constdata__ZTV7cNetUDP) refers to lib.o(i._ZN13cNetTransport7processEv) for cNetTransport::process()
    lib.o(.constdata__ZTV7cNetUDP) refers to lib.o(i._ZN13cNetTransport6updateEv) for cNetTransport::update()
    lib.o(.constdata__ZTV7cNetUDP) refers to lib.o(i._ZN13cNetTransport7timeoutEv) for cNetTransport::timeout()
    lib.o(.constdata__ZTV7cNetUDP) refers to lib.o(i._ZN7cNetUDP7getAddrEv) for cNetUDP::getAddr()
    lib.o(.constdata__ZTV7cNetUDP) refers to lib.o(i._ZN7cNetUDP10getAddrPhyEv) for cNetUDP::getAddrPhy()
    lib.o(.constdata__ZTV7cNetUDP) refers to lib.o(i._ZN7cNetUDP9handleARPE8cNetAddrILh4EES0_ILh6EE) for cNetUDP::handleARP(cNetAddr<(unsigned char)4>, cNetAddr<(unsigned char)6>)
    lib.o(.constdata__ZTV8cNetDHCP) refers to lib.o(.constdata__ZTI8cNetDHCP) for typeinfo for cNetDHCP
    lib.o(.constdata__ZTV8cNetDHCP) refers to lib.o(i._ZN8cNetDHCP6updateEv) for cNetDHCP::update()
    lib.o(.constdata__ZTV8cNetDHCP) refers to lib.o(i._ZN8cNetDHCP7processEv) for cNetDHCP::process()
    lib.o(.constdata__ZTV8cNetDHCP) refers to lib.o(i._ZN8cNetDHCP7timeoutEv) for cNetDHCP::timeout()
    lib.o(.constdata__ZTV7cNetTCP) refers to lib.o(.constdata__ZTI7cNetTCP) for typeinfo for cNetTCP
    lib.o(.constdata__ZTV7cNetTCP) refers to lib.o(i._ZN13cNetTransport7processEv) for cNetTransport::process()
    lib.o(.constdata__ZTV7cNetTCP) refers to lib.o(i._ZN13cNetTransport6updateEv) for cNetTransport::update()
    lib.o(.constdata__ZTV7cNetTCP) refers to lib.o(i._ZN13cNetTransport7timeoutEv) for cNetTransport::timeout()
    lib.o(.constdata__ZTV7cNetTCP) refers to lib.o(i._ZN7cNetTCP7getAddrEv) for cNetTCP::getAddr()
    lib.o(.constdata__ZTV7cNetTCP) refers to lib.o(i._ZN7cNetTCP10getAddrPhyEv) for cNetTCP::getAddrPhy()
    lib.o(.constdata__ZTV7cNetTCP) refers to lib.o(i._ZN7cNetTCP9handleARPE8cNetAddrILh4EES0_ILh6EE) for cNetTCP::handleARP(cNetAddr<(unsigned char)4>, cNetAddr<(unsigned char)6>)
    lib.o(.constdata__ZTV11cDevDigital) refers to lib.o(.constdata__ZTI11cDevDigital) for typeinfo for cDevDigital
    lib.o(.constdata__ZTV11cDevDigital) refers to lib.o(i._ZN11cDevDigital7setModeENS_4ModeE) for cDevDigital::setMode(cDevDigital::Mode)
    lib.o(.constdata__ZTV11cDevDigital) refers to lib.o(i._ZN11cDevDigital3setEb) for cDevDigital::set(bool)
    lib.o(.constdata__ZTV11cDevDigital) refers to lib.o(i._ZN11cDevDigital3setEv) for cDevDigital::set()
    lib.o(.constdata__ZTV11cDevDigital) refers to lib.o(i._ZN11cDevDigital3clrEv) for cDevDigital::clr()
    lib.o(.constdata__ZTV11cDevDigital) refers to lib.o(i._ZN11cDevDigital6toggleEv) for cDevDigital::toggle()
    lib.o(.constdata__ZTV11cDevDigital) refers to lib.o(i._ZN11cDevDigital3getEv) for cDevDigital::get()
    lib.o(.constdata__ZTV11cDevDigital) refers to lib.o(i._ZN11cDevDigital6updateEv) for cDevDigital::update()
    lib.o(.constdata__ZTV11cDevDigital) refers to lib.o(i._ZN11cDevDigital5isSetEv) for cDevDigital::isSet()
    lib.o(.constdata__ZTV11cDevDigital) refers to lib.o(i._ZN11cDevDigital5isClrEv) for cDevDigital::isClr()
    lib.o(.constdata__ZTV11cDevDigital) refers to lib.o(i._ZN11cDevDigital10isReleasedEv) for cDevDigital::isReleased()
    lib.o(.constdata__ZTV11cDevDigital) refers to lib.o(i._ZN11cDevDigital11isActivatedEv) for cDevDigital::isActivated()
    lib.o(.constdata__ZTV11cDevDigital) refers to lib.o(i._ZN11cDevDigital9isChangedEv) for cDevDigital::isChanged()
    lib.o(.constdata__ZTV11cDevDigital) refers to lib.o(i._ZN11cDevDigitalaSEb) for cDevDigital::operator =(bool)
    lib.o(.constdata__ZTV11cDevDigital) refers to lib.o(i._ZN11cDevDigitalaSERS_) for cDevDigital::operator =(cDevDigital&)
    lib.o(.constdata__ZTV11cDevDigital) refers to lib.o(i._ZN11cDevDigitalcvbEv) for cDevDigital::operator bool()
    lib.o(.constdata__ZTV20cDevDigitalIndicator) refers to lib.o(.constdata__ZTI20cDevDigitalIndicator) for typeinfo for cDevDigitalIndicator
    lib.o(.constdata__ZTV20cDevDigitalIndicator) refers to lib.o(i._ZN20cDevDigitalIndicator6updateEv) for cDevDigitalIndicator::update()
    lib.o(.constdata__ZTV20cDevDigitalIndicator) refers to lib.o(i._ZN20cDevDigitalIndicator3setEv) for cDevDigitalIndicator::set()
    lib.o(.constdata__ZTV20cDevDigitalIndicator) refers to lib.o(i._ZN20cDevDigitalIndicator3clrEv) for cDevDigitalIndicator::clr()
    lib.o(.constdata__ZTV20cDevDigitalIndicator) refers to lib.o(i._ZN20cDevDigitalIndicator7triggerEt) for cDevDigitalIndicator::trigger(unsigned short)
    lib.o(.constdata__ZTV6cHwADC) refers to lib.o(.constdata__ZTI6cHwADC) for typeinfo for cHwADC
    lib.o(.constdata__ZTV6cHwADC) refers to lib.o(i._ZN6cHwADC6updateEv) for cHwADC::update()
    lib.o(.constdata__ZTV6cHwADC) refers to lib.o(i._ZN6cHwADC6enableEh) for cHwADC::enable(unsigned char)
    lib.o(.constdata__ZTV6cHwADC) refers to lib.o(i._ZN6cHwADC3getEh) for cHwADC::get(unsigned char)
    lib.o(.constdata__ZTV6cHwADC) refers to lib.o(i._ZN6cHwADC19getNumberOfChannelsEv) for cHwADC::getNumberOfChannels()
    lib.o(.constdata__ZTV6cHwADC) refers to lib.o(i._ZN6cHwADC3isrEv) for cHwADC::isr()
    lib.o(.constdata__ZTV6cHwADC) refers to lib.o(i.__cxa_pure_virtual) for __cxa_pure_virtual
    lib.o(.constdata__ZTV11cHwEthernet) refers to lib.o(.constdata__ZTI11cHwEthernet) for typeinfo for cHwEthernet
    lib.o(.constdata__ZTV11cHwEthernet) refers to lib.o(i._ZN11cHwEthernet6updateEv) for cHwEthernet::update()
    lib.o(.constdata__ZTV11cHwEthernet) refers to lib.o(i.__cxa_pure_virtual) for __cxa_pure_virtual
    lib.o(.constdata__ZTV12cHwI2Cmaster) refers to lib.o(.constdata__ZTI12cHwI2Cmaster) for typeinfo for cHwI2Cmaster
    lib.o(.constdata__ZTV12cHwI2Cmaster) refers to lib.o(i._ZN12cHwI2Cmaster5writeEhPhhS0_h) for cHwI2Cmaster::write(unsigned char, unsigned char*, unsigned char, unsigned char*, unsigned char)
    lib.o(.constdata__ZTV12cHwI2Cmaster) refers to lib.o(i._ZN12cHwI2Cmaster4readEhPhhS0_h) for cHwI2Cmaster::read(unsigned char, unsigned char*, unsigned char, unsigned char*, unsigned char)
    lib.o(.constdata__ZTV12cHwI2Cmaster) refers to lib.o(i.__cxa_pure_virtual) for __cxa_pure_virtual
    lib.o(.constdata__ZTV17cHwI2Cmaster_Emul) refers to lib.o(.constdata__ZTI17cHwI2Cmaster_Emul) for typeinfo for cHwI2Cmaster_Emul
    lib.o(.constdata__ZTV17cHwI2Cmaster_Emul) refers to lib.o(i._ZN12cHwI2Cmaster5writeEhPhhS0_h) for cHwI2Cmaster::write(unsigned char, unsigned char*, unsigned char, unsigned char*, unsigned char)
    lib.o(.constdata__ZTV17cHwI2Cmaster_Emul) refers to lib.o(i._ZN12cHwI2Cmaster4readEhPhhS0_h) for cHwI2Cmaster::read(unsigned char, unsigned char*, unsigned char, unsigned char*, unsigned char)
    lib.o(.constdata__ZTV17cHwI2Cmaster_Emul) refers to lib.o(i._ZN17cHwI2Cmaster_Emul5startEv) for cHwI2Cmaster_Emul::start()
    lib.o(.constdata__ZTV17cHwI2Cmaster_Emul) refers to lib.o(i._ZN17cHwI2Cmaster_Emul4stopEv) for cHwI2Cmaster_Emul::stop()
    lib.o(.constdata__ZTV17cHwI2Cmaster_Emul) refers to lib.o(i._ZN17cHwI2Cmaster_Emul8sendAddrEh) for cHwI2Cmaster_Emul::sendAddr(unsigned char)
    lib.o(.constdata__ZTV17cHwI2Cmaster_Emul) refers to lib.o(i._ZN17cHwI2Cmaster_Emul9writeByteEh) for cHwI2Cmaster_Emul::writeByte(unsigned char)
    lib.o(.constdata__ZTV17cHwI2Cmaster_Emul) refers to lib.o(i._ZN17cHwI2Cmaster_Emul11readByteAckEv) for cHwI2Cmaster_Emul::readByteAck()
    lib.o(.constdata__ZTV17cHwI2Cmaster_Emul) refers to lib.o(i._ZN17cHwI2Cmaster_Emul12readByteNackEv) for cHwI2Cmaster_Emul::readByteNack()
    lib.o(.constdata__ZTV17cHwI2Cmaster_Emul) refers to lib.o(i._ZN17cHwI2Cmaster_Emul11waitForAcknEv) for cHwI2Cmaster_Emul::waitForAckn()
    lib.o(.constdata__ZTV17cHwI2Cmaster_Emul) refers to lib.o(i._ZN17cHwI2Cmaster_Emul4waitEv) for cHwI2Cmaster_Emul::wait()
    lib.o(.constdata__ZTVN7cNetUDP6SocketE) refers to lib.o(.constdata__ZTIN7cNetUDP6SocketE) for typeinfo for cNetUDP::Socket
    lib.o(.constdata__ZTVN7cNetUDP6SocketE) refers to lib.o(i._ZN7cNetUDP6Socket6updateEv) for cNetUDP::Socket::update()
    lib.o(.constdata__ZTVN7cNetUDP6SocketE) refers to lib.o(i._ZN7cNetUDP6Socket4openE8cNetAddrILh4EEt) for cNetUDP::Socket::open(cNetAddr<(unsigned char)4>, unsigned short)
    lib.o(.constdata__ZTVN7cNetUDP6SocketE) refers to lib.o(i._ZN13cNetTransport6Socket11openDefaultEv) for cNetTransport::Socket::openDefault()
    lib.o(.constdata__ZTVN7cNetUDP6SocketE) refers to lib.o(i._ZN7cNetUDP6Socket5closeEv) for cNetUDP::Socket::close()
    lib.o(.constdata__ZTVN7cNetUDP6SocketE) refers to lib.o(i._ZN7cNetUDP6Socket11isConnectedEv) for cNetUDP::Socket::isConnected()
    lib.o(.constdata__ZTVN7cNetUDP6SocketE) refers to lib.o(i._ZN7cNetUDP6Socket7isReadyEv) for cNetUDP::Socket::isReady()
    lib.o(.constdata__ZTVN7cNetUDP6SocketE) refers to lib.o(i._ZN13cNetTransport6Socket11getRemoteIPEv) for cNetTransport::Socket::getRemoteIP()
    lib.o(.constdata__ZTVN7cNetUDP6SocketE) refers to lib.o(i._ZN7cNetUDP6Socket5clearEv) for cNetUDP::Socket::clear()
    lib.o(.constdata__ZTVN7cNetUDP6SocketE) refers to lib.o(i._ZN7cNetUDP6Socket10getDataPtrEv) for cNetUDP::Socket::getDataPtr()
    lib.o(.constdata__ZTVN7cNetUDP6SocketE) refers to lib.o(i._ZN7cNetUDP6Socket13setDataLengthEt) for cNetUDP::Socket::setDataLength(unsigned short)
    lib.o(.constdata__ZTVN7cNetUDP6SocketE) refers to lib.o(i._ZN7cNetUDP6Socket4sendEv) for cNetUDP::Socket::send()
    lib.o(.constdata__ZTVN7cNetUDP6SocketE) refers to lib.o(i._ZN7cNetUDP6Socket3getEPc) for cNetUDP::Socket::get(char*)
    lib.o(.constdata__ZTVN7cNetUDP6SocketE) refers to lib.o(i._ZN7cNetUDP6Socket10fillBufferEc) for cNetUDP::Socket::fillBuffer(char)
    lib.o(.constdata__ZTVN7cNetUDP6SocketE) refers to lib.o(i._ZN13cNetTransport6Socket4fillEc) for cNetTransport::Socket::fill(char)
    lib.o(.constdata__ZTVN7cNetUDP6SocketE) refers to lib.o(i._ZN13cNetTransport6Socket4fillEPKc) for cNetTransport::Socket::fill(const char*)
    lib.o(.constdata__ZTVN7cNetUDP6SocketE) refers to lib.o(i._ZN13cNetTransport6Socket4fillEPKct) for cNetTransport::Socket::fill(const char*, unsigned short)
    lib.o(.constdata__ZTVN7cNetUDP6SocketE) refers to lib.o(i._ZN13cNetTransport6Socket10setTimeoutEtt) for cNetTransport::Socket::setTimeout(unsigned short, unsigned short)
    lib.o(.constdata__ZTVN7cNetUDP6SocketE) refers to lib.o(i._ZN7cNetUDP6Socket7processEv) for cNetUDP::Socket::process()
    lib.o(.constdata__ZTVN7cNetUDP6SocketE) refers to lib.o(i._ZN7cNetUDP6Socket7timeoutEv) for cNetUDP::Socket::timeout()
    lib.o(.constdata__ZTVN7cNetTCP6SocketE) refers to lib.o(.constdata__ZTIN7cNetTCP6SocketE) for typeinfo for cNetTCP::Socket
    lib.o(.constdata__ZTVN7cNetTCP6SocketE) refers to lib.o(i._ZN7cNetTCP6Socket6updateEv) for cNetTCP::Socket::update()
    lib.o(.constdata__ZTVN7cNetTCP6SocketE) refers to lib.o(i._ZN7cNetTCP6Socket4openE8cNetAddrILh4EEt) for cNetTCP::Socket::open(cNetAddr<(unsigned char)4>, unsigned short)
    lib.o(.constdata__ZTVN7cNetTCP6SocketE) refers to lib.o(i._ZN13cNetTransport6Socket11openDefaultEv) for cNetTransport::Socket::openDefault()
    lib.o(.constdata__ZTVN7cNetTCP6SocketE) refers to lib.o(i._ZN7cNetTCP6Socket5closeEv) for cNetTCP::Socket::close()
    lib.o(.constdata__ZTVN7cNetTCP6SocketE) refers to lib.o(i._ZN7cNetTCP6Socket11isConnectedEv) for cNetTCP::Socket::isConnected()
    lib.o(.constdata__ZTVN7cNetTCP6SocketE) refers to lib.o(i._ZN7cNetTCP6Socket7isReadyEv) for cNetTCP::Socket::isReady()
    lib.o(.constdata__ZTVN7cNetTCP6SocketE) refers to lib.o(i._ZN13cNetTransport6Socket11getRemoteIPEv) for cNetTransport::Socket::getRemoteIP()
    lib.o(.constdata__ZTVN7cNetTCP6SocketE) refers to lib.o(i._ZN7cNetTCP6Socket5clearEv) for cNetTCP::Socket::clear()
    lib.o(.constdata__ZTVN7cNetTCP6SocketE) refers to lib.o(i._ZN7cNetTCP6Socket10getDataPtrEv) for cNetTCP::Socket::getDataPtr()
    lib.o(.constdata__ZTVN7cNetTCP6SocketE) refers to lib.o(i._ZN7cNetTCP6Socket13setDataLengthEt) for cNetTCP::Socket::setDataLength(unsigned short)
    lib.o(.constdata__ZTVN7cNetTCP6SocketE) refers to lib.o(i._ZN7cNetTCP6Socket4sendEv) for cNetTCP::Socket::send()
    lib.o(.constdata__ZTVN7cNetTCP6SocketE) refers to lib.o(i._ZN7cNetTCP6Socket3getEPc) for cNetTCP::Socket::get(char*)
    lib.o(.constdata__ZTVN7cNetTCP6SocketE) refers to lib.o(i._ZN7cNetTCP6Socket10fillBufferEc) for cNetTCP::Socket::fillBuffer(char)
    lib.o(.constdata__ZTVN7cNetTCP6SocketE) refers to lib.o(i._ZN13cNetTransport6Socket4fillEc) for cNetTransport::Socket::fill(char)
    lib.o(.constdata__ZTVN7cNetTCP6SocketE) refers to lib.o(i._ZN13cNetTransport6Socket4fillEPKc) for cNetTransport::Socket::fill(const char*)
    lib.o(.constdata__ZTVN7cNetTCP6SocketE) refers to lib.o(i._ZN13cNetTransport6Socket4fillEPKct) for cNetTransport::Socket::fill(const char*, unsigned short)
    lib.o(.constdata__ZTVN7cNetTCP6SocketE) refers to lib.o(i._ZN13cNetTransport6Socket10setTimeoutEtt) for cNetTransport::Socket::setTimeout(unsigned short, unsigned short)
    lib.o(.constdata__ZTVN7cNetTCP6SocketE) refers to lib.o(i._ZN7cNetTCP6Socket7processEv) for cNetTCP::Socket::process()
    lib.o(.constdata__ZTVN7cNetTCP6SocketE) refers to lib.o(i._ZN7cNetTCP6Socket7timeoutEv) for cNetTCP::Socket::timeout()
    lib.o(.constdata__ZTV7cHwUART) refers to lib.o(.constdata__ZTI7cHwUART) for typeinfo for cHwUART
    lib.o(.constdata__ZTV7cHwUART) refers to lib.o(i._ZN7cHwUART3setEh) for cHwUART::set(unsigned char)
    lib.o(.constdata__ZTV7cHwUART) refers to lib.o(i._ZN7cHwUART3setEPKhh) for cHwUART::set(const unsigned char*, unsigned char)
    lib.o(.constdata__ZTV7cHwUART) refers to lib.o(i._ZN7cHwUART3setEPKc) for cHwUART::set(const char*)
    lib.o(.constdata__ZTV7cHwUART) refers to lib.o(i._ZN7cHwUART14isTxBufferFullEv) for cHwUART::isTxBufferFull()
    lib.o(.constdata__ZTV7cHwUART) refers to lib.o(i._ZN7cHwUART3getEPh) for cHwUART::get(unsigned char*)
    lib.o(.constdata__ZTV7cHwUART) refers to lib.o(i._ZN7cHwUART5isrRxEv) for cHwUART::isrRx()
    lib.o(.constdata__ZTV7cHwUART) refers to lib.o(i._ZN7cHwUART5isrTxEv) for cHwUART::isrTx()
    lib.o(.constdata__ZTV7cHwUART) refers to lib.o(i._ZN7cHwUART12transmitByteEh) for cHwUART::transmitByte(unsigned char)
    lib.o(.constdata__ZTV7cHwUART) refers to lib.o(i.__cxa_pure_virtual) for __cxa_pure_virtual
    lib.o(.constdata__ZTV10cHwUSBctrl) refers to lib.o(.constdata__ZTI10cHwUSBctrl) for typeinfo for cHwUSBctrl
    lib.o(.constdata__ZTV10cHwUSBctrl) refers to lib.o(i._ZN10cHwUSBctrl5setupEv) for cHwUSBctrl::setup()
    lib.o(.constdata__ZTV10cHwUSBctrl) refers to lib.o(i._ZN10cHwUSBctrl3outEv) for cHwUSBctrl::out()
    lib.o(.constdata__ZTV10cHwUSBctrl) refers to lib.o(i._ZN10cHwUSBctrl2inEv) for cHwUSBctrl::in()
    lib.o(.constdata__ZTV10cHwUSBctrl) refers to lib.o(i._ZN10cHwUSBctrl5StallEv) for cHwUSBctrl::Stall()
    lib.o(.constdata__ZTV8cHwADC_0) refers to lib.o(.constdata__ZTI8cHwADC_0) for typeinfo for cHwADC_0
    lib.o(.constdata__ZTV8cHwADC_0) refers to lib.o(i._ZN6cHwADC6updateEv) for cHwADC::update()
    lib.o(.constdata__ZTV8cHwADC_0) refers to lib.o(i._ZN6cHwADC6enableEh) for cHwADC::enable(unsigned char)
    lib.o(.constdata__ZTV8cHwADC_0) refers to lib.o(i._ZN6cHwADC3getEh) for cHwADC::get(unsigned char)
    lib.o(.constdata__ZTV8cHwADC_0) refers to lib.o(i._ZN6cHwADC19getNumberOfChannelsEv) for cHwADC::getNumberOfChannels()
    lib.o(.constdata__ZTV8cHwADC_0) refers to lib.o(i._ZN6cHwADC3isrEv) for cHwADC::isr()
    lib.o(.constdata__ZTV8cHwADC_0) refers to lib.o(i._ZN8cHwADC_09getResultEv) for cHwADC_0::getResult()
    lib.o(.constdata__ZTV8cHwADC_0) refers to lib.o(i._ZN8cHwADC_07startChEh) for cHwADC_0::startCh(unsigned char)
    lib.o(.constdata__ZTV8cHwADC_0) refers to lib.o(i._ZN8cHwADC_08configChEh) for cHwADC_0::configCh(unsigned char)
    lib.o(.constdata__ZTV16cHwEthernet_EMAC) refers to lib.o(.constdata__ZTI16cHwEthernet_EMAC) for typeinfo for cHwEthernet_EMAC
    lib.o(.constdata__ZTV16cHwEthernet_EMAC) refers to lib.o(i._ZN11cHwEthernet6updateEv) for cHwEthernet::update()
    lib.o(.constdata__ZTV16cHwEthernet_EMAC) refers to lib.o(i._ZN16cHwEthernet_EMAC6createE8cNetAddrILh6EEt) for cHwEthernet_EMAC::create(cNetAddr<(unsigned char)6>, unsigned short)
    lib.o(.constdata__ZTV16cHwEthernet_EMAC) refers to lib.o(i._ZN16cHwEthernet_EMAC10PacketSendEPht) for cHwEthernet_EMAC::PacketSend(unsigned char*, unsigned short)
    lib.o(.constdata__ZTV16cHwEthernet_EMAC) refers to lib.o(i._ZN16cHwEthernet_EMAC13PacketReceiveEv) for cHwEthernet_EMAC::PacketReceive()
    lib.o(.constdata__ZTV16cHwEthernet_EMAC) refers to lib.o(i._ZN16cHwEthernet_EMAC7getTypeEv) for cHwEthernet_EMAC::getType()
    lib.o(.constdata__ZTV15cHwMemory_Flash) refers to lib.o(.constdata__ZTI15cHwMemory_Flash) for typeinfo for cHwMemory_Flash
    lib.o(.constdata__ZTV15cHwMemory_Flash) refers to lib.o(i._ZN15cHwMemory_Flash6unlockEv) for cHwMemory_Flash::unlock()
    lib.o(.constdata__ZTV15cHwMemory_Flash) refers to lib.o(i._ZN15cHwMemory_Flash4lockEv) for cHwMemory_Flash::lock()
    lib.o(.constdata__ZTV15cHwMemory_Flash) refers to lib.o(i._ZN9cHwMemory5writeEjh) for cHwMemory::write(unsigned, unsigned char)
    lib.o(.constdata__ZTV15cHwMemory_Flash) refers to lib.o(i._ZN9cHwMemory4readEj) for cHwMemory::read(unsigned)
    lib.o(.constdata__ZTV15cHwMemory_Flash) refers to lib.o(i._ZN15cHwMemory_Flash5clearEj) for cHwMemory_Flash::clear(unsigned)
    lib.o(.constdata__ZTV15cHwMemory_Flash) refers to lib.o(i._ZN9cHwMemory7getSizeEv) for cHwMemory::getSize()
    lib.o(.constdata__ZTV15cHwMemory_Flash) refers to lib.o(i._ZN9cHwMemory7isFlashEv) for cHwMemory::isFlash()
    lib.o(.constdata__ZTV15cHwMemory_Flash) refers to lib.o(i._ZN15cHwMemory_Flash9writeByteEjh) for cHwMemory_Flash::writeByte(unsigned, unsigned char)
    lib.o(.constdata__ZTV15cHwMemory_Flash) refers to lib.o(i._ZN15cHwMemory_Flash8readByteEj) for cHwMemory_Flash::readByte(unsigned)
    lib.o(.constdata__ZTV13cHwMemory_RAM) refers to lib.o(.constdata__ZTI13cHwMemory_RAM) for typeinfo for cHwMemory_RAM
    lib.o(.constdata__ZTV13cHwMemory_RAM) refers to lib.o(i._ZN13cHwMemory_RAM6unlockEv) for cHwMemory_RAM::unlock()
    lib.o(.constdata__ZTV13cHwMemory_RAM) refers to lib.o(i._ZN13cHwMemory_RAM4lockEv) for cHwMemory_RAM::lock()
    lib.o(.constdata__ZTV13cHwMemory_RAM) refers to lib.o(i._ZN9cHwMemory5writeEjh) for cHwMemory::write(unsigned, unsigned char)
    lib.o(.constdata__ZTV13cHwMemory_RAM) refers to lib.o(i._ZN9cHwMemory4readEj) for cHwMemory::read(unsigned)
    lib.o(.constdata__ZTV13cHwMemory_RAM) refers to lib.o(i._ZN9cHwMemory5clearEj) for cHwMemory::clear(unsigned)
    lib.o(.constdata__ZTV13cHwMemory_RAM) refers to lib.o(i._ZN9cHwMemory7getSizeEv) for cHwMemory::getSize()
    lib.o(.constdata__ZTV13cHwMemory_RAM) refers to lib.o(i._ZN9cHwMemory7isFlashEv) for cHwMemory::isFlash()
    lib.o(.constdata__ZTV13cHwMemory_RAM) refers to lib.o(i._ZN13cHwMemory_RAM9writeByteEjh) for cHwMemory_RAM::writeByte(unsigned, unsigned char)
    lib.o(.constdata__ZTV13cHwMemory_RAM) refers to lib.o(i._ZN13cHwMemory_RAM8readByteEj) for cHwMemory_RAM::readByte(unsigned)
    lib.o(.constdata__ZTV8cHwRTC_0) refers to lib.o(.constdata__ZTI8cHwRTC_0) for typeinfo for cHwRTC_0
    lib.o(.constdata__ZTV8cHwRTC_0) refers to lib.o(i._ZN8cHwRTC_03setERKN6cHwRTC10PropertiesE) for cHwRTC_0::set(const cHwRTC::Properties&)
    lib.o(.constdata__ZTV8cHwRTC_0) refers to lib.o(i._ZN8cHwRTC_03getERN6cHwRTC10PropertiesE) for cHwRTC_0::get(cHwRTC::Properties&)
    lib.o(.constdata__ZTV14cHwSPImaster_0) refers to lib.o(.constdata__ZTI14cHwSPImaster_0) for typeinfo for cHwSPImaster_0
    lib.o(.constdata__ZTV14cHwSPImaster_0) refers to lib.o(i._ZN14cHwSPImaster_014transceiveByteEh) for cHwSPImaster_0::transceiveByte(unsigned char)
    lib.o(.constdata__ZTV14cHwSPImaster_0) refers to lib.o(i._ZN14cHwSPImaster_017transceiveByteExtEhh) for cHwSPImaster_0::transceiveByteExt(unsigned char, unsigned char)
    lib.o(.constdata__ZTV14cHwSPImaster_1) refers to lib.o(.constdata__ZTI14cHwSPImaster_1) for typeinfo for cHwSPImaster_1
    lib.o(.constdata__ZTV14cHwSPImaster_1) refers to lib.o(i._ZN14cHwSPImaster_114transceiveByteEh) for cHwSPImaster_1::transceiveByte(unsigned char)
    lib.o(.constdata__ZTV14cHwSPImaster_1) refers to lib.o(i._ZN14cHwSPImaster_117transceiveByteExtEhh) for cHwSPImaster_1::transceiveByteExt(unsigned char, unsigned char)
    lib.o(.constdata__ZTV10cHwTimer_N) refers to lib.o(.constdata__ZTI10cHwTimer_N) for typeinfo for cHwTimer_N
    lib.o(.constdata__ZTV10cHwTimer_N) refers to lib.o(i._ZN8cHwTimer12getCycleTimeEv) for cHwTimer::getCycleTime()
    lib.o(.constdata__ZTV10cHwTimer_N) refers to lib.o(i._ZN8cHwTimer3addEPN5cList4ItemE) for cHwTimer::add(cList::Item*)
    lib.o(.constdata__ZTV10cHwTimer_N) refers to lib.o(i._ZN10cHwTimer_N9enablePWMEhN8cHwTimer4ModeE) for cHwTimer_N::enablePWM(unsigned char, cHwTimer::Mode)
    lib.o(.constdata__ZTV10cHwTimer_N) refers to lib.o(i._ZN10cHwTimer_N6setPWMEth) for cHwTimer_N::setPWM(unsigned short, unsigned char)
    lib.o(.constdata__ZTV10cHwTimer_N) refers to lib.o(i._ZN8cHwTimer10isrHandlerEv) for cHwTimer::isrHandler()
    lib.o(.constdata__ZTV9cHwUART_N) refers to lib.o(.constdata__ZTI9cHwUART_N) for typeinfo for cHwUART_N
    lib.o(.constdata__ZTV9cHwUART_N) refers to lib.o(i._ZN7cHwUART3setEh) for cHwUART::set(unsigned char)
    lib.o(.constdata__ZTV9cHwUART_N) refers to lib.o(i._ZN7cHwUART3setEPKhh) for cHwUART::set(const unsigned char*, unsigned char)
    lib.o(.constdata__ZTV9cHwUART_N) refers to lib.o(i._ZN7cHwUART3setEPKc) for cHwUART::set(const char*)
    lib.o(.constdata__ZTV9cHwUART_N) refers to lib.o(i._ZN7cHwUART14isTxBufferFullEv) for cHwUART::isTxBufferFull()
    lib.o(.constdata__ZTV9cHwUART_N) refers to lib.o(i._ZN7cHwUART3getEPh) for cHwUART::get(unsigned char*)
    lib.o(.constdata__ZTV9cHwUART_N) refers to lib.o(i._ZN7cHwUART5isrRxEv) for cHwUART::isrRx()
    lib.o(.constdata__ZTV9cHwUART_N) refers to lib.o(i._ZN7cHwUART5isrTxEv) for cHwUART::isrTx()
    lib.o(.constdata__ZTV9cHwUART_N) refers to lib.o(i._ZN7cHwUART12transmitByteEh) for cHwUART::transmitByte(unsigned char)
    lib.o(.constdata__ZTV9cHwUART_N) refers to lib.o(i._ZN9cHwUART_N7setByteEh) for cHwUART_N::setByte(unsigned char)
    lib.o(.constdata__ZTV9cHwUART_N) refers to lib.o(i._ZN9cHwUART_N7getByteEv) for cHwUART_N::getByte()
    lib.o(.constdata__ZTV9cHwUART_N) refers to lib.o(i._ZN9cHwUART_N7handlerEv) for cHwUART_N::handler()
    lib.o(.constdata__ZTV14cHwDisp_DIP204) refers to lib.o(.constdata__ZTI14cHwDisp_DIP204) for typeinfo for cHwDisp_DIP204
    lib.o(.constdata__ZTV14cHwDisp_DIP204) refers to lib.o(i._ZN14cHwDisp_DIP2045clearEv) for cHwDisp_DIP204::clear()
    lib.o(.constdata__ZTV14cHwDisp_DIP204) refers to lib.o(i._ZN14cHwDisp_DIP20411gotoTextPosEhh) for cHwDisp_DIP204::gotoTextPos(unsigned char, unsigned char)
    lib.o(.constdata__ZTV14cHwDisp_DIP204) refers to lib.o(i._ZN14cHwDisp_DIP2047putCharEc) for cHwDisp_DIP204::putChar(char)
    lib.o(.constdata__ZTV14cHwDisp_DIP204) refers to lib.o(i._ZN10cHwDisplay16getNumberOfLinesEv) for cHwDisplay::getNumberOfLines()
    lib.o(.constdata__ZTV14cHwDisp_DIP204) refers to lib.o(i._ZN10cHwDisplay18getNumberOfColumnsEv) for cHwDisplay::getNumberOfColumns()
    lib.o(.constdata__ZTV17cHwDisp_DIP204spi) refers to lib.o(.constdata__ZTI17cHwDisp_DIP204spi) for typeinfo for cHwDisp_DIP204spi
    lib.o(.constdata__ZTV17cHwDisp_DIP204spi) refers to lib.o(i._ZN17cHwDisp_DIP204spi5clearEv) for cHwDisp_DIP204spi::clear()
    lib.o(.constdata__ZTV17cHwDisp_DIP204spi) refers to lib.o(i._ZN17cHwDisp_DIP204spi11gotoTextPosEhh) for cHwDisp_DIP204spi::gotoTextPos(unsigned char, unsigned char)
    lib.o(.constdata__ZTV17cHwDisp_DIP204spi) refers to lib.o(i._ZN17cHwDisp_DIP204spi7putCharEc) for cHwDisp_DIP204spi::putChar(char)
    lib.o(.constdata__ZTV17cHwDisp_DIP204spi) refers to lib.o(i._ZN10cHwDisplay16getNumberOfLinesEv) for cHwDisplay::getNumberOfLines()
    lib.o(.constdata__ZTV17cHwDisp_DIP204spi) refers to lib.o(i._ZN10cHwDisplay18getNumberOfColumnsEv) for cHwDisplay::getNumberOfColumns()
    lib.o(.constdata__ZTV18cHwDisp_ILI9341spi) refers to lib.o(.constdata__ZTI18cHwDisp_ILI9341spi) for typeinfo for cHwDisp_ILI9341spi
    lib.o(.constdata__ZTV18cHwDisp_ILI9341spi) refers to lib.o(i._ZN18cHwDisp_ILI9341spi5clearEv) for cHwDisp_ILI9341spi::clear()
    lib.o(.constdata__ZTV18cHwDisp_ILI9341spi) refers to lib.o(i._ZN17cHwDisplayGraphic11gotoTextPosEhh) for cHwDisplayGraphic::gotoTextPos(unsigned char, unsigned char)
    lib.o(.constdata__ZTV18cHwDisp_ILI9341spi) refers to lib.o(i._ZN17cHwDisplayGraphic7putCharEc) for cHwDisplayGraphic::putChar(char)
    lib.o(.constdata__ZTV18cHwDisp_ILI9341spi) refers to lib.o(i._ZN10cHwDisplay16getNumberOfLinesEv) for cHwDisplay::getNumberOfLines()
    lib.o(.constdata__ZTV18cHwDisp_ILI9341spi) refers to lib.o(i._ZN10cHwDisplay18getNumberOfColumnsEv) for cHwDisplay::getNumberOfColumns()
    lib.o(.constdata__ZTV18cHwDisp_ILI9341spi) refers to lib.o(i._ZN17cHwDisplayGraphic7setFontE14cHwDisplayFonth) for cHwDisplayGraphic::setFont(cHwDisplayFont, unsigned char)
    lib.o(.constdata__ZTV18cHwDisp_ILI9341spi) refers to lib.o(i._ZN17cHwDisplayGraphic7setZoomEh) for cHwDisplayGraphic::setZoom(unsigned char)
    lib.o(.constdata__ZTV18cHwDisp_ILI9341spi) refers to lib.o(i._ZN17cHwDisplayGraphic12setBackColorEt) for cHwDisplayGraphic::setBackColor(unsigned short)
    lib.o(.constdata__ZTV18cHwDisp_ILI9341spi) refers to lib.o(i._ZN17cHwDisplayGraphic13setPaintColorEt) for cHwDisplayGraphic::setPaintColor(unsigned short)
    lib.o(.constdata__ZTV18cHwDisp_ILI9341spi) refers to lib.o(i._ZN17cHwDisplayGraphic12setTextColorEt) for cHwDisplayGraphic::setTextColor(unsigned short)
    lib.o(.constdata__ZTV18cHwDisp_ILI9341spi) refers to lib.o(i._ZN17cHwDisplayGraphic12gotoPixelPosEtt) for cHwDisplayGraphic::gotoPixelPos(unsigned short, unsigned short)
    lib.o(.constdata__ZTV18cHwDisp_ILI9341spi) refers to lib.o(i._ZN17cHwDisplayGraphic8putPixelEtt) for cHwDisplayGraphic::putPixel(unsigned short, unsigned short)
    lib.o(.constdata__ZTV18cHwDisp_ILI9341spi) refers to lib.o(i._ZN17cHwDisplayGraphic12putRectangleEtttt) for cHwDisplayGraphic::putRectangle(unsigned short, unsigned short, unsigned short, unsigned short)
    lib.o(.constdata__ZTV18cHwDisp_ILI9341spi) refers to lib.o(i._ZN17cHwDisplayGraphic9putBitmapEttttPKt) for cHwDisplayGraphic::putBitmap(unsigned short, unsigned short, unsigned short, unsigned short, const unsigned short*)
    lib.o(.constdata__ZTV18cHwDisp_ILI9341spi) refers to lib.o(i._ZN17cHwDisplayGraphic14getDefaultFontEv) for cHwDisplayGraphic::getDefaultFont()
    lib.o(.constdata__ZTV18cHwDisp_ILI9341spi) refers to lib.o(i._ZN18cHwDisp_ILI9341spi7setAreaEtttt) for cHwDisp_ILI9341spi::setArea(unsigned short, unsigned short, unsigned short, unsigned short)
    lib.o(.constdata__ZTV18cHwDisp_ILI9341spi) refers to lib.o(i._ZN18cHwDisp_ILI9341spi8setPixelEttt) for cHwDisp_ILI9341spi::setPixel(unsigned short, unsigned short, unsigned short)
    lib.o(.constdata__ZTV18cHwDisp_ILI9341spi) refers to lib.o(i._ZN18cHwDisp_ILI9341spi8setPixelEt) for cHwDisp_ILI9341spi::setPixel(unsigned short)
    lib.o(.constdata__ZTV20cHwDisp_SPFD5408Bspi) refers to lib.o(.constdata__ZTI20cHwDisp_SPFD5408Bspi) for typeinfo for cHwDisp_SPFD5408Bspi
    lib.o(.constdata__ZTV20cHwDisp_SPFD5408Bspi) refers to lib.o(i._ZN20cHwDisp_SPFD5408Bspi5clearEv) for cHwDisp_SPFD5408Bspi::clear()
    lib.o(.constdata__ZTV20cHwDisp_SPFD5408Bspi) refers to lib.o(i._ZN17cHwDisplayGraphic11gotoTextPosEhh) for cHwDisplayGraphic::gotoTextPos(unsigned char, unsigned char)
    lib.o(.constdata__ZTV20cHwDisp_SPFD5408Bspi) refers to lib.o(i._ZN17cHwDisplayGraphic7putCharEc) for cHwDisplayGraphic::putChar(char)
    lib.o(.constdata__ZTV20cHwDisp_SPFD5408Bspi) refers to lib.o(i._ZN10cHwDisplay16getNumberOfLinesEv) for cHwDisplay::getNumberOfLines()
    lib.o(.constdata__ZTV20cHwDisp_SPFD5408Bspi) refers to lib.o(i._ZN10cHwDisplay18getNumberOfColumnsEv) for cHwDisplay::getNumberOfColumns()
    lib.o(.constdata__ZTV20cHwDisp_SPFD5408Bspi) refers to lib.o(i._ZN17cHwDisplayGraphic7setFontE14cHwDisplayFonth) for cHwDisplayGraphic::setFont(cHwDisplayFont, unsigned char)
    lib.o(.constdata__ZTV20cHwDisp_SPFD5408Bspi) refers to lib.o(i._ZN17cHwDisplayGraphic7setZoomEh) for cHwDisplayGraphic::setZoom(unsigned char)
    lib.o(.constdata__ZTV20cHwDisp_SPFD5408Bspi) refers to lib.o(i._ZN17cHwDisplayGraphic12setBackColorEt) for cHwDisplayGraphic::setBackColor(unsigned short)
    lib.o(.constdata__ZTV20cHwDisp_SPFD5408Bspi) refers to lib.o(i._ZN17cHwDisplayGraphic13setPaintColorEt) for cHwDisplayGraphic::setPaintColor(unsigned short)
    lib.o(.constdata__ZTV20cHwDisp_SPFD5408Bspi) refers to lib.o(i._ZN17cHwDisplayGraphic12setTextColorEt) for cHwDisplayGraphic::setTextColor(unsigned short)
    lib.o(.constdata__ZTV20cHwDisp_SPFD5408Bspi) refers to lib.o(i._ZN17cHwDisplayGraphic12gotoPixelPosEtt) for cHwDisplayGraphic::gotoPixelPos(unsigned short, unsigned short)
    lib.o(.constdata__ZTV20cHwDisp_SPFD5408Bspi) refers to lib.o(i._ZN17cHwDisplayGraphic8putPixelEtt) for cHwDisplayGraphic::putPixel(unsigned short, unsigned short)
    lib.o(.constdata__ZTV20cHwDisp_SPFD5408Bspi) refers to lib.o(i._ZN17cHwDisplayGraphic12putRectangleEtttt) for cHwDisplayGraphic::putRectangle(unsigned short, unsigned short, unsigned short, unsigned short)
    lib.o(.constdata__ZTV20cHwDisp_SPFD5408Bspi) refers to lib.o(i._ZN17cHwDisplayGraphic9putBitmapEttttPKt) for cHwDisplayGraphic::putBitmap(unsigned short, unsigned short, unsigned short, unsigned short, const unsigned short*)
    lib.o(.constdata__ZTV20cHwDisp_SPFD5408Bspi) refers to lib.o(i._ZN17cHwDisplayGraphic14getDefaultFontEv) for cHwDisplayGraphic::getDefaultFont()
    lib.o(.constdata__ZTV20cHwDisp_SPFD5408Bspi) refers to lib.o(i._ZN20cHwDisp_SPFD5408Bspi7setAreaEtttt) for cHwDisp_SPFD5408Bspi::setArea(unsigned short, unsigned short, unsigned short, unsigned short)
    lib.o(.constdata__ZTV20cHwDisp_SPFD5408Bspi) refers to lib.o(i._ZN20cHwDisp_SPFD5408Bspi8setPixelEttt) for cHwDisp_SPFD5408Bspi::setPixel(unsigned short, unsigned short, unsigned short)
    lib.o(.constdata__ZTV20cHwDisp_SPFD5408Bspi) refers to lib.o(i._ZN20cHwDisp_SPFD5408Bspi8setPixelEt) for cHwDisp_SPFD5408Bspi::setPixel(unsigned short)
    lib.o(.constdata__ZTV16cHwEEPROM_24C256) refers to lib.o(.constdata__ZTI16cHwEEPROM_24C256) for typeinfo for cHwEEPROM_24C256
    lib.o(.constdata__ZTV16cHwEEPROM_24C256) refers to lib.o(i._ZN16cHwEEPROM_24C2566unlockEv) for cHwEEPROM_24C256::unlock()
    lib.o(.constdata__ZTV16cHwEEPROM_24C256) refers to lib.o(i._ZN16cHwEEPROM_24C2564lockEv) for cHwEEPROM_24C256::lock()
    lib.o(.constdata__ZTV16cHwEEPROM_24C256) refers to lib.o(i._ZN9cHwMemory5writeEjh) for cHwMemory::write(unsigned, unsigned char)
    lib.o(.constdata__ZTV16cHwEEPROM_24C256) refers to lib.o(i._ZN9cHwMemory4readEj) for cHwMemory::read(unsigned)
    lib.o(.constdata__ZTV16cHwEEPROM_24C256) refers to lib.o(i._ZN9cHwMemory5clearEj) for cHwMemory::clear(unsigned)
    lib.o(.constdata__ZTV16cHwEEPROM_24C256) refers to lib.o(i._ZN9cHwMemory7getSizeEv) for cHwMemory::getSize()
    lib.o(.constdata__ZTV16cHwEEPROM_24C256) refers to lib.o(i._ZN9cHwMemory7isFlashEv) for cHwMemory::isFlash()
    lib.o(.constdata__ZTV16cHwEEPROM_24C256) refers to lib.o(i._ZN16cHwEEPROM_24C2569writeByteEjh) for cHwEEPROM_24C256::writeByte(unsigned, unsigned char)
    lib.o(.constdata__ZTV16cHwEEPROM_24C256) refers to lib.o(i._ZN16cHwEEPROM_24C2568readByteEj) for cHwEEPROM_24C256::readByte(unsigned)
    lib.o(.constdata__ZTV20cHwEthernet_Enc28j60) refers to lib.o(.constdata__ZTI20cHwEthernet_Enc28j60) for typeinfo for cHwEthernet_Enc28j60
    lib.o(.constdata__ZTV20cHwEthernet_Enc28j60) refers to lib.o(i._ZN11cHwEthernet6updateEv) for cHwEthernet::update()
    lib.o(.constdata__ZTV20cHwEthernet_Enc28j60) refers to lib.o(i._ZN20cHwEthernet_Enc28j606createE8cNetAddrILh6EEt) for cHwEthernet_Enc28j60::create(cNetAddr<(unsigned char)6>, unsigned short)
    lib.o(.constdata__ZTV20cHwEthernet_Enc28j60) refers to lib.o(i._ZN20cHwEthernet_Enc28j6010PacketSendEPht) for cHwEthernet_Enc28j60::PacketSend(unsigned char*, unsigned short)
    lib.o(.constdata__ZTV20cHwEthernet_Enc28j60) refers to lib.o(i._ZN20cHwEthernet_Enc28j6013PacketReceiveEv) for cHwEthernet_Enc28j60::PacketReceive()
    lib.o(.constdata__ZTV20cHwEthernet_Enc28j60) refers to lib.o(i._ZN20cHwEthernet_Enc28j607getTypeEv) for cHwEthernet_Enc28j60::getType()
    lib.o(.constdata__ZTV15cHwPort_PCF8574) refers to lib.o(.constdata__ZTI15cHwPort_PCF8574) for typeinfo for cHwPort_PCF8574
    lib.o(.constdata__ZTV15cHwPort_PCF8574) refers to lib.o(i.__cxa_pure_virtual) for __cxa_pure_virtual
    lib.o(.constdata__ZTV15cHwPort_PCF8574) refers to lib.o(i._ZN15cHwPort_PCF85743setEj) for cHwPort_PCF8574::set(unsigned)
    lib.o(.constdata__ZTV15cHwPort_PCF8574) refers to lib.o(i._ZN15cHwPort_PCF85743setEjj) for cHwPort_PCF8574::set(unsigned, unsigned)
    lib.o(.constdata__ZTV15cHwPort_PCF8574) refers to lib.o(i._ZN15cHwPort_PCF85743clrEj) for cHwPort_PCF8574::clr(unsigned)
    lib.o(.constdata__ZTV15cHwPort_PCF8574) refers to lib.o(i._ZN15cHwPort_PCF85743getEv) for cHwPort_PCF8574::get()
    lib.o(.constdata__ZTV15cHwPort_PCF8574) refers to lib.o(i._ZN15cHwPort_PCF85746updateEv) for cHwPort_PCF8574::update()
    lib.o(.constdata__ZTV15cHwPort_PCF8574) refers to lib.o(i._ZN15cHwPort_PCF85746setDirEj) for cHwPort_PCF8574::setDir(unsigned)
    lib.o(.constdata__ZTV15cHwPort_PCF8574) refers to lib.o(i._ZN15cHwPort_PCF85746clrDirEj) for cHwPort_PCF8574::clrDir(unsigned)
    lib.o(.constdata__ZTV15cHwPort_PCF8574) refers to lib.o(i._ZThn4_N15cHwPort_PCF85746updateEv) for thunk{-4} to cHwPort_PCF8574::update()
    lib.o(.constdata__ZTV16cHwPort_Terminal) refers to lib.o(.constdata__ZTI16cHwPort_Terminal) for typeinfo for cHwPort_Terminal
    lib.o(.constdata__ZTV16cHwPort_Terminal) refers to lib.o(i._ZN16cHwPort_Terminal7setModeEjN7cHwPort4ModeE) for cHwPort_Terminal::setMode(unsigned, cHwPort::Mode)
    lib.o(.constdata__ZTV16cHwPort_Terminal) refers to lib.o(i._ZN16cHwPort_Terminal10setPinModeEhN7cHwPort4ModeE) for cHwPort_Terminal::setPinMode(unsigned char, cHwPort::Mode)
    lib.o(.constdata__ZTV16cHwPort_Terminal) refers to lib.o(i._ZN16cHwPort_Terminal3setEj) for cHwPort_Terminal::set(unsigned)
    lib.o(.constdata__ZTV16cHwPort_Terminal) refers to lib.o(i._ZN16cHwPort_Terminal3setEjj) for cHwPort_Terminal::set(unsigned, unsigned)
    lib.o(.constdata__ZTV16cHwPort_Terminal) refers to lib.o(i._ZN16cHwPort_Terminal3clrEj) for cHwPort_Terminal::clr(unsigned)
    lib.o(.constdata__ZTV16cHwPort_Terminal) refers to lib.o(i._ZN16cHwPort_Terminal3getEv) for cHwPort_Terminal::get()
    lib.o(.constdata__ZTV16cHwPort_Terminal) refers to lib.o(i._ZN16cHwPort_Terminal6updateEv) for cHwPort_Terminal::update()
    lib.o(.constdata__ZTV16cHwPort_Terminal) refers to lib.o(i._ZThn4_N16cHwPort_Terminal6updateEv) for thunk{-4} to cHwPort_Terminal::update()
    lib.o(.constdata__ZTV14cHwRAM_PCF8583) refers to lib.o(.constdata__ZTI14cHwRAM_PCF8583) for typeinfo for cHwRAM_PCF8583
    lib.o(.constdata__ZTV14cHwRAM_PCF8583) refers to lib.o(i.__cxa_pure_virtual) for __cxa_pure_virtual
    lib.o(.constdata__ZTV14cHwRAM_PCF8583) refers to lib.o(i._ZN9cHwMemory5writeEjh) for cHwMemory::write(unsigned, unsigned char)
    lib.o(.constdata__ZTV14cHwRAM_PCF8583) refers to lib.o(i._ZN9cHwMemory4readEj) for cHwMemory::read(unsigned)
    lib.o(.constdata__ZTV14cHwRAM_PCF8583) refers to lib.o(i._ZN9cHwMemory5clearEj) for cHwMemory::clear(unsigned)
    lib.o(.constdata__ZTV14cHwRAM_PCF8583) refers to lib.o(i._ZN9cHwMemory7getSizeEv) for cHwMemory::getSize()
    lib.o(.constdata__ZTV14cHwRAM_PCF8583) refers to lib.o(i._ZN9cHwMemory7isFlashEv) for cHwMemory::isFlash()
    lib.o(.constdata__ZTV14cHwRAM_PCF8583) refers to lib.o(i._ZN14cHwRAM_PCF85839writeByteEjh) for cHwRAM_PCF8583::writeByte(unsigned, unsigned char)
    lib.o(.constdata__ZTV14cHwRAM_PCF8583) refers to lib.o(i._ZN14cHwRAM_PCF85838readByteEj) for cHwRAM_PCF8583::readByte(unsigned)
    lib.o(.constdata__ZTV14cHwRTC_PCF8583) refers to lib.o(.constdata__ZTI14cHwRTC_PCF8583) for typeinfo for cHwRTC_PCF8583
    lib.o(.constdata__ZTV14cHwRTC_PCF8583) refers to lib.o(i._ZN14cHwRTC_PCF85833setERKN6cHwRTC10PropertiesE) for cHwRTC_PCF8583::set(const cHwRTC::Properties&)
    lib.o(.constdata__ZTV14cHwRTC_PCF8583) refers to lib.o(i._ZN14cHwRTC_PCF85833getERN6cHwRTC10PropertiesE) for cHwRTC_PCF8583::get(cHwRTC::Properties&)
    lib.o(.constdata__ZTV16cHwTouch_ADS7846) refers to lib.o(.constdata__ZTI16cHwTouch_ADS7846) for typeinfo for cHwTouch_ADS7846
    lib.o(.constdata__ZTV16cHwTouch_ADS7846) refers to lib.o(i._ZN16cHwTouch_ADS78466updateEv) for cHwTouch_ADS7846::update()
    lib.o(.constdata__ZTV16cHwTouch_ADS7846) refers to lib.o(i._ZN8cHwTouch7getPosXEv) for cHwTouch::getPosX()
    lib.o(.constdata__ZTV16cHwTouch_ADS7846) refers to lib.o(i._ZN8cHwTouch7getPosYEv) for cHwTouch::getPosY()
    lib.o(.constdata__ZTV16cHwTouch_ADS7846) refers to lib.o(i._ZN8cHwTouch9isTouchedEv) for cHwTouch::isTouched()
    lib.o(.constdata__ZTV20cHwTouch_STMPE811i2c) refers to lib.o(.constdata__ZTI20cHwTouch_STMPE811i2c) for typeinfo for cHwTouch_STMPE811i2c
    lib.o(.constdata__ZTV20cHwTouch_STMPE811i2c) refers to lib.o(i._ZN20cHwTouch_STMPE811i2c6updateEv) for cHwTouch_STMPE811i2c::update()
    lib.o(.constdata__ZTV20cHwTouch_STMPE811i2c) refers to lib.o(i._ZN8cHwTouch7getPosXEv) for cHwTouch::getPosX()
    lib.o(.constdata__ZTV20cHwTouch_STMPE811i2c) refers to lib.o(i._ZN8cHwTouch7getPosYEv) for cHwTouch::getPosY()
    lib.o(.constdata__ZTV20cHwTouch_STMPE811i2c) refers to lib.o(i._ZN8cHwTouch9isTouchedEv) for cHwTouch::isTouched()
    lib.o(.constdata__ZTV15cDevAnalogInADC) refers to lib.o(.constdata__ZTI15cDevAnalogInADC) for typeinfo for cDevAnalogInADC
    lib.o(.constdata__ZTV15cDevAnalogInADC) refers to lib.o(i._ZN12cDevAnalogIn3getEv) for cDevAnalogIn::get()
    lib.o(.constdata__ZTV15cDevAnalogInADC) refers to lib.o(i._ZN12cDevAnalogIncvfEv) for cDevAnalogIn::operator float()
    lib.o(.constdata__ZTV15cDevAnalogInADC) refers to lib.o(i._ZN15cDevAnalogInADC6getRawEv) for cDevAnalogInADC::getRaw()
    lib.o(.constdata__ZTV13cDevAnalogOut) refers to lib.o(.constdata__ZTI13cDevAnalogOut) for typeinfo for cDevAnalogOut
    lib.o(.constdata__ZTV13cDevAnalogOut) refers to lib.o(i._ZN13cDevAnalogOut3setEf) for cDevAnalogOut::set(float)
    lib.o(.constdata__ZTV13cDevAnalogOut) refers to lib.o(i._ZN13cDevAnalogOutaSEf) for cDevAnalogOut::operator =(float)
    lib.o(.constdata__ZTV13cDevAnalogOut) refers to lib.o(i.__cxa_pure_virtual) for __cxa_pure_virtual
    lib.o(.constdata__ZTV16cDevAnalogOutDAC) refers to lib.o(.constdata__ZTI16cDevAnalogOutDAC) for typeinfo for cDevAnalogOutDAC
    lib.o(.constdata__ZTV16cDevAnalogOutDAC) refers to lib.o(i._ZN13cDevAnalogOut3setEf) for cDevAnalogOut::set(float)
    lib.o(.constdata__ZTV16cDevAnalogOutDAC) refers to lib.o(i._ZN13cDevAnalogOutaSEf) for cDevAnalogOut::operator =(float)
    lib.o(.constdata__ZTV16cDevAnalogOutDAC) refers to lib.o(i._ZN16cDevAnalogOutDAC6setRawEt) for cDevAnalogOutDAC::setRaw(unsigned short)
    lib.o(.constdata__ZTV16cDevAnalogOutPWM) refers to lib.o(.constdata__ZTI16cDevAnalogOutPWM) for typeinfo for cDevAnalogOutPWM
    lib.o(.constdata__ZTV16cDevAnalogOutPWM) refers to lib.o(i._ZN13cDevAnalogOut3setEf) for cDevAnalogOut::set(float)
    lib.o(.constdata__ZTV16cDevAnalogOutPWM) refers to lib.o(i._ZN13cDevAnalogOutaSEf) for cDevAnalogOut::operator =(float)
    lib.o(.constdata__ZTV16cDevAnalogOutPWM) refers to lib.o(i._ZN16cDevAnalogOutPWM6setRawEt) for cDevAnalogOutPWM::setRaw(unsigned short)
    lib.o(.constdata__ZTV20cDevAnalogOutPWMemul) refers to lib.o(.constdata__ZTI20cDevAnalogOutPWMemul) for typeinfo for cDevAnalogOutPWMemul
    lib.o(.constdata__ZTV20cDevAnalogOutPWMemul) refers to lib.o(i._ZN13cDevAnalogOut3setEf) for cDevAnalogOut::set(float)
    lib.o(.constdata__ZTV20cDevAnalogOutPWMemul) refers to lib.o(i._ZN13cDevAnalogOutaSEf) for cDevAnalogOut::operator =(float)
    lib.o(.constdata__ZTV20cDevAnalogOutPWMemul) refers to lib.o(i._ZN20cDevAnalogOutPWMemul6setRawEt) for cDevAnalogOutPWMemul::setRaw(unsigned short)
    lib.o(.constdata__ZTV20cDevAnalogOutPWMemul) refers to lib.o(i._ZN20cDevAnalogOutPWMemul6updateEv) for cDevAnalogOutPWMemul::update()
    lib.o(.constdata__ZTV20cDevAnalogOutPWMemul) refers to lib.o(i._ZThn16_N20cDevAnalogOutPWMemul6updateEv) for thunk{-16} to cDevAnalogOutPWMemul::update()
    lib.o(.constdata__ZTV15cDevDisplayChar) refers to lib.o(.constdata__ZTI15cDevDisplayChar) for typeinfo for cDevDisplayChar
    lib.o(.constdata__ZTV15cDevDisplayChar) refers to lib.o(i._ZN15cDevDisplayChar5clearEv) for cDevDisplayChar::clear()
    lib.o(.constdata__ZTV15cDevDisplayChar) refers to lib.o(i._ZN15cDevDisplayChar6printfEhhhPKcz) for cDevDisplayChar::printf(unsigned char, unsigned char, unsigned char, const char*, ...)
    lib.o(.constdata__ZTV15cDevDisplayChar) refers to lib.o(i._ZN15cDevDisplayChar6printfEhhPKc) for cDevDisplayChar::printf(unsigned char, unsigned char, const char*)
    lib.o(.constdata__ZTV18cDevDisplayGraphic) refers to lib.o(.constdata__ZTI18cDevDisplayGraphic) for typeinfo for cDevDisplayGraphic
    lib.o(.constdata__ZTV18cDevDisplayGraphic) refers to lib.o(i._ZN18cDevDisplayGraphic5clearEv) for cDevDisplayGraphic::clear()
    lib.o(.constdata__ZTV18cDevDisplayGraphic) refers to lib.o(i._ZN18cDevDisplayGraphic6printfEhhhPKcz) for cDevDisplayGraphic::printf(unsigned char, unsigned char, unsigned char, const char*, ...)
    lib.o(.constdata__ZTV18cDevDisplayGraphic) refers to lib.o(i._ZN18cDevDisplayGraphic7setFontE14cHwDisplayFonth) for cDevDisplayGraphic::setFont(cHwDisplayFont, unsigned char)
    lib.o(.constdata__ZTV18cDevDisplayGraphic) refers to lib.o(i._ZN18cDevDisplayGraphic7setZoomEh) for cDevDisplayGraphic::setZoom(unsigned char)
    lib.o(.constdata__ZTV18cDevDisplayGraphic) refers to lib.o(i._ZN18cDevDisplayGraphic12setBackColorEt) for cDevDisplayGraphic::setBackColor(unsigned short)
    lib.o(.constdata__ZTV18cDevDisplayGraphic) refers to lib.o(i._ZN18cDevDisplayGraphic12setTextColorEt) for cDevDisplayGraphic::setTextColor(unsigned short)
    lib.o(.constdata__ZTV18cDevDisplayGraphic) refers to lib.o(i._ZN18cDevDisplayGraphic8drawTextEttPKc) for cDevDisplayGraphic::drawText(unsigned short, unsigned short, const char*)
    lib.o(.constdata__ZTV18cDevDisplayGraphic) refers to lib.o(i._ZN18cDevDisplayGraphic8drawTextEtthPKcz) for cDevDisplayGraphic::drawText(unsigned short, unsigned short, unsigned char, const char*, ...)
    lib.o(.constdata__ZTV18cDevDisplayGraphic) refers to lib.o(i._ZN18cDevDisplayGraphic9drawPixelEttt) for cDevDisplayGraphic::drawPixel(unsigned short, unsigned short, unsigned short)
    lib.o(.constdata__ZTV18cDevDisplayGraphic) refers to lib.o(i._ZN18cDevDisplayGraphic13drawRectangleEttttt) for cDevDisplayGraphic::drawRectangle(unsigned short, unsigned short, unsigned short, unsigned short, unsigned short)
    lib.o(.constdata__ZTV18cDevDisplayGraphic) refers to lib.o(i._ZN18cDevDisplayGraphic9drawFrameEtttttt) for cDevDisplayGraphic::drawFrame(unsigned short, unsigned short, unsigned short, unsigned short, unsigned short, unsigned short)
    lib.o(.constdata__ZTV18cDevDisplayGraphic) refers to lib.o(i._ZN18cDevDisplayGraphic10drawCircleEtttt) for cDevDisplayGraphic::drawCircle(unsigned short, unsigned short, unsigned short, unsigned short)
    lib.o(.constdata__ZTV18cDevDisplayGraphic) refers to lib.o(i._ZN18cDevDisplayGraphic8drawLineEtttttt) for cDevDisplayGraphic::drawLine(unsigned short, unsigned short, unsigned short, unsigned short, unsigned short, unsigned short)
    lib.o(.constdata__ZTV18cDevDisplayGraphic) refers to lib.o(i._ZN18cDevDisplayGraphic10drawBitmapEttttPKt) for cDevDisplayGraphic::drawBitmap(unsigned short, unsigned short, unsigned short, unsigned short, const unsigned short*)
    lib.o(.constdata__ZTV18cDevDisplayGraphic) refers to lib.o(i._ZN18cDevDisplayGraphic14getDefaultFontEv) for cDevDisplayGraphic::getDefaultFont()
    lib.o(.constdata__ZTV10cDevTextIO) refers to lib.o(.constdata__ZTI10cDevTextIO) for typeinfo for cDevTextIO
    lib.o(.constdata__ZTV10cDevTextIO) refers to lib.o(i._ZN10cDevTextIO6printfEPKcz) for cDevTextIO::printf(const char*, ...)
    lib.o(.constdata__ZTV10cDevTextIO) refers to lib.o(i.__cxa_pure_virtual) for __cxa_pure_virtual
    lib.o(.constdata__ZTV18cDevControlEncoder) refers to lib.o(.constdata__ZTI18cDevControlEncoder) for typeinfo for cDevControlEncoder
    lib.o(.constdata__ZTV18cDevControlEncoder) refers to lib.o(i._ZN18cDevControlEncoder6updateEv) for cDevControlEncoder::update()
    lib.o(.constdata__ZTV18cDevControlEncoder) refers to lib.o(i._ZN18cDevControlEncoder7getCtrlEv) for cDevControlEncoder::getCtrl()
    lib.o(.constdata__ZTV18cDevControlEncoder) refers to lib.o(i.__cxa_pure_virtual) for __cxa_pure_virtual
    lib.o(.constdata__ZTV26cDevControlEncoderJoystick) refers to lib.o(.constdata__ZTI26cDevControlEncoderJoystick) for typeinfo for cDevControlEncoderJoystick
    lib.o(.constdata__ZTV26cDevControlEncoderJoystick) refers to lib.o(i._ZN18cDevControlEncoder6updateEv) for cDevControlEncoder::update()
    lib.o(.constdata__ZTV26cDevControlEncoderJoystick) refers to lib.o(i._ZN18cDevControlEncoder7getCtrlEv) for cDevControlEncoder::getCtrl()
    lib.o(.constdata__ZTV26cDevControlEncoderJoystick) refers to lib.o(i._ZN26cDevControlEncoderJoystick12getIncrementEv) for cDevControlEncoderJoystick::getIncrement()
    lib.o(.constdata__ZTV28cDevControlEncoderRotaryKnob) refers to lib.o(.constdata__ZTI28cDevControlEncoderRotaryKnob) for typeinfo for cDevControlEncoderRotaryKnob
    lib.o(.constdata__ZTV28cDevControlEncoderRotaryKnob) refers to lib.o(i._ZN18cDevControlEncoder6updateEv) for cDevControlEncoder::update()
    lib.o(.constdata__ZTV28cDevControlEncoderRotaryKnob) refers to lib.o(i._ZN18cDevControlEncoder7getCtrlEv) for cDevControlEncoder::getCtrl()
    lib.o(.constdata__ZTV28cDevControlEncoderRotaryKnob) refers to lib.o(i._ZN28cDevControlEncoderRotaryKnob12getIncrementEv) for cDevControlEncoderRotaryKnob::getIncrement()
    lib.o(.constdata__ZTV18cDevControlPointer) refers to lib.o(.constdata__ZTI18cDevControlPointer) for typeinfo for cDevControlPointer
    lib.o(.constdata__ZTV18cDevControlPointer) refers to lib.o(i._ZN18cDevControlPointer3getEv) for cDevControlPointer::get()
    lib.o(.constdata__ZTV12cTaskHandler) refers to lib.o(.constdata__ZTI12cTaskHandler) for typeinfo for cTaskHandler
    lib.o(.constdata__ZTV12cTaskHandler) refers to lib.o(i._ZN12cTaskHandler6updateEv) for cTaskHandler::update()
    lib.o(.constdata__ZTV12cTaskHandler) refers to lib.o(i._ZN12cTaskHandler12getCycleTimeEv) for cTaskHandler::getCycleTime()
    lib.o(.constdata__ZTV12cTaskHandler) refers to lib.o(i._ZN12cTaskHandler7getTicsEv) for cTaskHandler::getTics()
    lib.o(.constdata__ZTV12cTaskHandler) refers to lib.o(i._ZN12cTaskHandler3runEv) for cTaskHandler::run()
    lib.o(.constdata__ZTV12cTaskHandler) refers to lib.o(i._ZN12cTaskHandler7addTaskEPNS_4TaskE) for cTaskHandler::addTask(cTaskHandler::Task*)
    lib.o(.constdata__ZTVN12cTaskHandler5TimerE) refers to lib.o(.constdata__ZTIN12cTaskHandler5TimerE) for typeinfo for cTaskHandler::Timer
    lib.o(.constdata__ZTVN12cTaskHandler5TimerE) refers to lib.o(i._ZN12cTaskHandler5Timer7getTicsEv) for cTaskHandler::Timer::getTics()
    lib.o(.constdata__ZTVN12cTaskHandler5TimerE) refers to lib.o(i._ZN12cTaskHandler5Timer12getTimeOfTicEv) for cTaskHandler::Timer::getTimeOfTic()
    lib.o(i._ZN8cHwUSB_03isrEv) refers to lib.o(i._ZN8cHwUSB_05WrCmdEj) for cHwUSB_0::WrCmd(unsigned)
    lib.o(i._ZN8cHwUSB_03isrEv) refers to lib.o(i._ZN8cHwUSB_08RdCmdDatEj) for cHwUSB_0::RdCmdDat(unsigned)
    lib.o(.ARM.exidx) refers to lib.o(i._ZN8cHwUSB_03isrEv) for i._ZN8cHwUSB_03isrEv
    lib.o(.ARM.exidx) refers to lib.o(t._Z5RANGEIiET_S0_S0_S0_) for t._Z5RANGEIiET_S0_S0_S0_
    lib.o(.ARM.exidx) refers to lib.o(i._ZN7cHwPort3Pin7setModeENS_4ModeE) for i._ZN7cHwPort3Pin7setModeENS_4ModeE
    lib.o(.ARM.exidx) refers to lib.o(i._ZN7cHwPort3Pin3setEb) for i._ZN7cHwPort3Pin3setEb
    lib.o(.ARM.exidx) refers to lib.o(i._ZN7cHwPort3Pin3getEv) for i._ZN7cHwPort3Pin3getEv
    lib.o(i._ZN12cHwI2Cmaster6DeviceC1ERS_h) refers to lib.o(.constdata__ZTVN12cHwI2Cmaster6DeviceE) for vtable for cHwI2Cmaster::Device
    lib.o(.ARM.exidx) refers to lib.o(i._ZN12cHwI2Cmaster6DeviceC1ERS_h) for i._ZN12cHwI2Cmaster6DeviceC1ERS_h
    lib.o(i._ZN12cHwSPImaster6Device5writeEt) refers to lib.o(i._ZN7cSystem16disableInterruptEv) for cSystem::disableInterrupt()
    lib.o(i._ZN12cHwSPImaster6Device5writeEt) refers to lib.o(i._ZN12cHwSPImaster6Device5startEv) for cHwSPImaster::Device::start()
    lib.o(i._ZN12cHwSPImaster6Device5writeEt) refers to lib.o(i._ZN12cHwSPImaster6Device4stopEv) for cHwSPImaster::Device::stop()
    lib.o(i._ZN12cHwSPImaster6Device5writeEt) refers to lib.o(i._ZN7cSystem15enableInterruptEv) for cSystem::enableInterrupt()
    lib.o(.ARM.exidx) refers to lib.o(i._ZN12cHwSPImaster6Device5writeEt) for i._ZN12cHwSPImaster6Device5writeEt
    lib.o(i._ZN12cHwSPImaster6Device5writeEPht) refers to lib.o(i._ZN7cSystem16disableInterruptEv) for cSystem::disableInterrupt()
    lib.o(i._ZN12cHwSPImaster6Device5writeEPht) refers to lib.o(i._ZN12cHwSPImaster6Device5startEv) for cHwSPImaster::Device::start()
    lib.o(i._ZN12cHwSPImaster6Device5writeEPht) refers to lib.o(i._ZN12cHwSPImaster6Device4stopEv) for cHwSPImaster::Device::stop()
    lib.o(i._ZN12cHwSPImaster6Device5writeEPht) refers to lib.o(i._ZN7cSystem15enableInterruptEv) for cSystem::enableInterrupt()
    lib.o(.ARM.exidx) refers to lib.o(i._ZN12cHwSPImaster6Device5writeEPht) for i._ZN12cHwSPImaster6Device5writeEPht
    lib.o(i._ZN12cHwSPImaster6Device8writeExtEhh) refers to lib.o(i._ZN7cSystem16disableInterruptEv) for cSystem::disableInterrupt()
    lib.o(i._ZN12cHwSPImaster6Device8writeExtEhh) refers to lib.o(i._ZN12cHwSPImaster6Device5startEv) for cHwSPImaster::Device::start()
    lib.o(i._ZN12cHwSPImaster6Device8writeExtEhh) refers to lib.o(i._ZN12cHwSPImaster6Device4stopEv) for cHwSPImaster::Device::stop()
    lib.o(i._ZN12cHwSPImaster6Device8writeExtEhh) refers to lib.o(i._ZN7cSystem15enableInterruptEv) for cSystem::enableInterrupt()
    lib.o(.ARM.exidx) refers to lib.o(i._ZN12cHwSPImaster6Device8writeExtEhh) for i._ZN12cHwSPImaster6Device8writeExtEhh
    lib.o(i._ZN12cHwSPImaster6Device8writeExtEht) refers to lib.o(i._ZN7cSystem16disableInterruptEv) for cSystem::disableInterrupt()
    lib.o(i._ZN12cHwSPImaster6Device8writeExtEht) refers to lib.o(i._ZN12cHwSPImaster6Device5startEv) for cHwSPImaster::Device::start()
    lib.o(i._ZN12cHwSPImaster6Device8writeExtEht) refers to lib.o(i._ZN12cHwSPImaster6Device4stopEv) for cHwSPImaster::Device::stop()
    lib.o(i._ZN12cHwSPImaster6Device8writeExtEht) refers to lib.o(i._ZN7cSystem15enableInterruptEv) for cSystem::enableInterrupt()
    lib.o(.ARM.exidx) refers to lib.o(i._ZN12cHwSPImaster6Device8writeExtEht) for i._ZN12cHwSPImaster6Device8writeExtEht
    lib.o(i._ZN12cHwSPImaster6DeviceC1ERKS0_) refers to lib.o(.constdata__ZTVN12cHwSPImaster6DeviceE) for vtable for cHwSPImaster::Device
    lib.o(i._ZN12cHwSPImaster6DeviceC1ERKS0_) refers to lib.o(.constdata__ZTVN7cHwPort3PinE) for vtable for cHwPort::Pin
    lib.o(.ARM.exidx) refers to lib.o(i._ZN12cHwSPImaster6DeviceC1ERKS0_) for i._ZN12cHwSPImaster6DeviceC1ERKS0_
    lib.o(t._ZN5cFifoIhEC1Eh) refers to lib.o(i._Znaj) for operator new[] (unsigned)
    lib.o(.ARM.exidx) refers to lib.o(t._ZN5cFifoIhEC1Eh) for t._ZN5cFifoIhEC1Eh
    lib.o(t._ZN5cFifoIhE6isFullEv) refers to lib.o(i._ZN7cSystem16disableInterruptEv) for cSystem::disableInterrupt()
    lib.o(t._ZN5cFifoIhE6isFullEv) refers to lib.o(i._ZN7cSystem15enableInterruptEv) for cSystem::enableInterrupt()
    lib.o(.ARM.exidx) refers to lib.o(t._ZN5cFifoIhE6isFullEv) for t._ZN5cFifoIhE6isFullEv
    lib.o(t._ZN5cFifoIhErsERh) refers to lib.o(i._ZN7cSystem16disableInterruptEv) for cSystem::disableInterrupt()
    lib.o(t._ZN5cFifoIhErsERh) refers to lib.o(i._ZN7cSystem15enableInterruptEv) for cSystem::enableInterrupt()
    lib.o(.ARM.exidx) refers to lib.o(t._ZN5cFifoIhErsERh) for t._ZN5cFifoIhErsERh
    lib.o(t._ZN5cFifoIhElsERKh) refers to lib.o(i._ZN7cSystem16disableInterruptEv) for cSystem::disableInterrupt()
    lib.o(t._ZN5cFifoIhElsERKh) refers to lib.o(i._ZN7cSystem15enableInterruptEv) for cSystem::enableInterrupt()
    lib.o(.ARM.exidx) refers to lib.o(t._ZN5cFifoIhElsERKh) for t._ZN5cFifoIhElsERKh
    lib.o(.ARM.exidx) refers to lib.o(i._ZN12cDataPointeraSERKS_) for i._ZN12cDataPointeraSERKS_
    lib.o(.ARM.exidx) refers to lib.o(i._ZN12cDataPointer5shiftEt) for i._ZN12cDataPointer5shiftEt
    lib.o(i._ZN10cHwUSBctrl11ReqEndpointEv) refers to lib.o(i._ZN10cHwUSBctrl5Setup7reqTypeEv) for cHwUSBctrl::Setup::reqType()
    lib.o(i._ZN10cHwUSBctrl11ReqEndpointEv) refers to lib.o(i._ZN10cHwUSBctrl5Setup7requestEv) for cHwUSBctrl::Setup::request()
    lib.o(i._ZN10cHwUSBctrl11ReqEndpointEv) refers to lib.o(i._ZN10cHwUSBctrl25ReqEndpointStd_ClrFeatureEv) for cHwUSBctrl::ReqEndpointStd_ClrFeature()
    lib.o(i._ZN10cHwUSBctrl11ReqEndpointEv) refers to lib.o(i._ZN10cHwUSBctrl5Setup8indexLowEv) for cHwUSBctrl::Setup::indexLow()
    lib.o(i._ZN10cHwUSBctrl11ReqEndpointEv) refers to lib.o(i._ZN10cHwUSBctrl5Setup8valueLowEv) for cHwUSBctrl::Setup::valueLow()
    lib.o(i._ZN10cHwUSBctrl11ReqEndpointEv) refers to lib.o(i._ZN14cHwUSBendpoint5stallEv) for cHwUSBendpoint::stall()
    lib.o(i._ZN10cHwUSBctrl11ReqEndpointEv) refers to lib.o(i._ZN14cHwUSBendpoint16writeAcknowledgeEv) for cHwUSBendpoint::writeAcknowledge()
    lib.o(.ARM.exidx) refers to lib.o(i._ZN10cHwUSBctrl11ReqEndpointEv) for i._ZN10cHwUSBctrl11ReqEndpointEv
    lib.o(i._ZN10cHwUSBctrl17ReqInterfaceClassEv) refers to lib.o(i._ZN12cDataPointerC1Ev) for cDataPointer::cDataPointer()
    lib.o(i._ZN10cHwUSBctrl17ReqInterfaceClassEv) refers to lib.o(i._ZN10cHwUSBctrl5Setup8indexLowEv) for cHwUSBctrl::Setup::indexLow()
    lib.o(i._ZN10cHwUSBctrl17ReqInterfaceClassEv) refers to lib.o(i._ZN10cHwUSBctrl5Setup6lengthEv) for cHwUSBctrl::Setup::length()
    lib.o(i._ZN10cHwUSBctrl17ReqInterfaceClassEv) refers to lib.o(i._ZN10cHwUSBctrl5Setup5valueEv) for cHwUSBctrl::Setup::value()
    lib.o(i._ZN10cHwUSBctrl17ReqInterfaceClassEv) refers to lib.o(i._ZN10cHwUSBctrl5Setup7requestEv) for cHwUSBctrl::Setup::request()
    lib.o(i._ZN10cHwUSBctrl17ReqInterfaceClassEv) refers to lib.o(i._ZN12cDataPointeraSERKS_) for cDataPointer::operator =(const cDataPointer&)
    lib.o(i._ZN10cHwUSBctrl17ReqInterfaceClassEv) refers to lib.o(i._ZN14cHwUSBendpoint9writeDataEv) for cHwUSBendpoint::writeData()
    lib.o(i._ZN10cHwUSBctrl17ReqInterfaceClassEv) refers to lib.o(i._ZN14cHwUSBendpoint16writeAcknowledgeEv) for cHwUSBendpoint::writeAcknowledge()
    lib.o(.ARM.exidx) refers to lib.o(i._ZN10cHwUSBctrl17ReqInterfaceClassEv) for i._ZN10cHwUSBctrl17ReqInterfaceClassEv
    lib.o(i._ZN10cHwUSBctrl12ReqInterfaceEv) refers to lib.o(i._ZN10cHwUSBctrl5Setup7reqTypeEv) for cHwUSBctrl::Setup::reqType()
    lib.o(i._ZN10cHwUSBctrl12ReqInterfaceEv) refers to lib.o(i._ZN10cHwUSBctrl5Setup7requestEv) for cHwUSBctrl::Setup::request()
    lib.o(i._ZN10cHwUSBctrl12ReqInterfaceEv) refers to lib.o(i._ZN10cHwUSBctrl29ReqInterfaceStd_GetDescriptorEv) for cHwUSBctrl::ReqInterfaceStd_GetDescriptor()
    lib.o(i._ZN10cHwUSBctrl12ReqInterfaceEv) refers to lib.o(i._ZN10cHwUSBctrl17ReqInterfaceClassEv) for cHwUSBctrl::ReqInterfaceClass()
    lib.o(.ARM.exidx) refers to lib.o(i._ZN10cHwUSBctrl12ReqInterfaceEv) for i._ZN10cHwUSBctrl12ReqInterfaceEv
    lib.o(i._ZN10cHwUSBctrl29ReqDeviceStd_SetConfigurationEv) refers to lib.o(i._ZN10cHwUSBctrl5Setup8valueLowEv) for cHwUSBctrl::Setup::valueLow()
    lib.o(i._ZN10cHwUSBctrl29ReqDeviceStd_SetConfigurationEv) refers to lib.o(t._ZN12cDataPointercvPT_IvEEv) for cDataPointer::operator T1<void>*()
    lib.o(i._ZN10cHwUSBctrl29ReqDeviceStd_SetConfigurationEv) refers to lib.o(i._ZN14cHwUSBendpoint16setConfigurationEv) for cHwUSBendpoint::setConfiguration()
    lib.o(i._ZN10cHwUSBctrl29ReqDeviceStd_SetConfigurationEv) refers to lib.o(t._ZN12cDataPointercvPT_IN10cHwUSBdesc9cEndpointEEEv) for cDataPointer::operator T1<cHwUSBdesc::cEndpoint>*()
    lib.o(i._ZN10cHwUSBctrl29ReqDeviceStd_SetConfigurationEv) refers to lib.o(i._ZN14cHwUSBendpoint16writeAcknowledgeEv) for cHwUSBendpoint::writeAcknowledge()
    lib.o(.ARM.exidx) refers to lib.o(i._ZN10cHwUSBctrl29ReqDeviceStd_SetConfigurationEv) for i._ZN10cHwUSBctrl29ReqDeviceStd_SetConfigurationEv
    lib.o(i._ZN10cHwUSBctrl26ReqDeviceStd_GetDescriptorEv) refers to lib.o(i._ZN10cHwUSBctrl5Setup6lengthEv) for cHwUSBctrl::Setup::length()
    lib.o(i._ZN10cHwUSBctrl26ReqDeviceStd_GetDescriptorEv) refers to lib.o(i._ZN14cHwUSBendpoint12writeDataLenERK12cDataPointert) for cHwUSBendpoint::writeDataLen(const cDataPointer&, unsigned short)
    lib.o(i._ZN10cHwUSBctrl26ReqDeviceStd_GetDescriptorEv) refers to lib.o(i._ZN10cHwUSBctrl5Setup8valueLowEv) for cHwUSBctrl::Setup::valueLow()
    lib.o(.ARM.exidx) refers to lib.o(i._ZN10cHwUSBctrl26ReqDeviceStd_GetDescriptorEv) for i._ZN10cHwUSBctrl26ReqDeviceStd_GetDescriptorEv
    lib.o(i._ZN10cHwUSBctrl9ReqDeviceEv) refers to lib.o(i._ZN10cHwUSBctrl5Setup7reqTypeEv) for cHwUSBctrl::Setup::reqType()
    lib.o(i._ZN10cHwUSBctrl9ReqDeviceEv) refers to lib.o(i._ZN10cHwUSBctrl5Setup7requestEv) for cHwUSBctrl::Setup::request()
    lib.o(i._ZN10cHwUSBctrl9ReqDeviceEv) refers to lib.o(i._ZN10cHwUSBctrl5Setup6lengthEv) for cHwUSBctrl::Setup::length()
    lib.o(i._ZN10cHwUSBctrl9ReqDeviceEv) refers to lib.o(i._ZN12cDataPointerC1EPht) for cDataPointer::cDataPointer(unsigned char*, unsigned short)
    lib.o(i._ZN10cHwUSBctrl9ReqDeviceEv) refers to lib.o(i._ZN14cHwUSBendpoint9writeDataERK12cDataPointer) for cHwUSBendpoint::writeData(const cDataPointer&)
    lib.o(i._ZN10cHwUSBctrl9ReqDeviceEv) refers to lib.o(i._ZN10cHwUSBctrl5Setup8valueLowEv) for cHwUSBctrl::Setup::valueLow()
    lib.o(i._ZN10cHwUSBctrl9ReqDeviceEv) refers to lib.o(i._ZN10cHwUSBctrl26ReqDeviceStd_GetDescriptorEv) for cHwUSBctrl::ReqDeviceStd_GetDescriptor()
    lib.o(i._ZN10cHwUSBctrl9ReqDeviceEv) refers to lib.o(i._ZN10cHwUSBctrl29ReqDeviceStd_SetConfigurationEv) for cHwUSBctrl::ReqDeviceStd_SetConfiguration()
    lib.o(.ARM.exidx) refers to lib.o(i._ZN10cHwUSBctrl9ReqDeviceEv) for i._ZN10cHwUSBctrl9ReqDeviceEv
    lib.o(i._ZN20cHwDisp_SPFD5408Bspi8writeDatEt) refers to lib.o(i._ZN12cHwSPImaster6Device5writeEPht) for cHwSPImaster::Device::write(unsigned char*, unsigned short)
    lib.o(.ARM.exidx) refers to lib.o(i._ZN20cHwDisp_SPFD5408Bspi8writeDatEt) for i._ZN20cHwDisp_SPFD5408Bspi8writeDatEt
    lib.o(i._ZN20cHwDisp_SPFD5408Bspi8writeCmdEt) refers to lib.o(i._ZN12cHwSPImaster6Device5writeEPht) for cHwSPImaster::Device::write(unsigned char*, unsigned short)
    lib.o(.ARM.exidx) refers to lib.o(i._ZN20cHwDisp_SPFD5408Bspi8writeCmdEt) for i._ZN20cHwDisp_SPFD5408Bspi8writeCmdEt
    lib.o(i._ZN20cHwDisp_SPFD5408Bspi9maxWindowEv) refers to lib.o(i._ZN20cHwDisp_SPFD5408Bspi8writeRegEht) for cHwDisp_SPFD5408Bspi::writeReg(unsigned char, unsigned short)
    lib.o(.ARM.exidx) refers to lib.o(i._ZN20cHwDisp_SPFD5408Bspi9maxWindowEv) for i._ZN20cHwDisp_SPFD5408Bspi9maxWindowEv
    lib.o(.ARM.exidx) refers to lib.o(i._ZN13cNetTransport6Socket4fillEc) for i._ZN13cNetTransport6Socket4fillEc
    lib.o(i._ZN13cNetTransport6Socket4fillEPKc) refers to strlen.o(.text) for strlen
    lib.o(.ARM.exidx) refers to lib.o(i._ZN13cNetTransport6Socket4fillEPKc) for i._ZN13cNetTransport6Socket4fillEPKc
    lib.o(.ARM.exidx) refers to lib.o(i._ZN13cNetTransport6Socket10setTimeoutEtt) for i._ZN13cNetTransport6Socket10setTimeoutEtt
    lib.o(i._ZN17cHwSensMag_LSM3038readWordEh) refers to lib.o(i._ZN12cHwI2Cmaster6Device4readEh) for cHwI2Cmaster::Device::read(unsigned char)
    lib.o(.ARM.exidx) refers to lib.o(i._ZN17cHwSensMag_LSM3038readWordEh) for i._ZN17cHwSensMag_LSM3038readWordEh
    lib.o(i._ZN18cHwSensGyro_L3GD208readWordEh) refers to lib.o(i._ZN12cHwI2Cmaster6Device4readEh) for cHwI2Cmaster::Device::read(unsigned char)
    lib.o(.ARM.exidx) refers to lib.o(i._ZN18cHwSensGyro_L3GD208readWordEh) for i._ZN18cHwSensGyro_L3GD208readWordEh
    lib.o(i._ZN17cHwSensAcc_LSM3038readWordEh) refers to lib.o(i._ZN12cHwI2Cmaster6Device4readEh) for cHwI2Cmaster::Device::read(unsigned char)
    lib.o(.ARM.exidx) refers to lib.o(i._ZN17cHwSensAcc_LSM3038readWordEh) for i._ZN17cHwSensAcc_LSM3038readWordEh
    lib.o(.ARM.exidx) refers to lib.o(i._ZN4cCRC9tabMethodEh) for i._ZN4cCRC9tabMethodEh
    lib.o(.ARM.exidx) refers to lib.o(i._ZN20cDevDigitalIndicator3clrEv) for i._ZN20cDevDigitalIndicator3clrEv
    lib.o(t._ZN5cFifoIN18cDevControlEncoder6tEventEElsERKS1_) refers to lib.o(i._ZN7cSystem16disableInterruptEv) for cSystem::disableInterrupt()
    lib.o(t._ZN5cFifoIN18cDevControlEncoder6tEventEElsERKS1_) refers to lib.o(i._ZN7cSystem15enableInterruptEv) for cSystem::enableInterrupt()
    lib.o(.ARM.exidx) refers to lib.o(t._ZN5cFifoIN18cDevControlEncoder6tEventEElsERKS1_) for t._ZN5cFifoIN18cDevControlEncoder6tEventEElsERKS1_
    lib.o(t._ZN5cFifoIN18cDevControlEncoder6tEventEE6isFullEv) refers to lib.o(i._ZN7cSystem16disableInterruptEv) for cSystem::disableInterrupt()
    lib.o(t._ZN5cFifoIN18cDevControlEncoder6tEventEE6isFullEv) refers to lib.o(i._ZN7cSystem15enableInterruptEv) for cSystem::enableInterrupt()
    lib.o(.ARM.exidx) refers to lib.o(t._ZN5cFifoIN18cDevControlEncoder6tEventEE6isFullEv) for t._ZN5cFifoIN18cDevControlEncoder6tEventEE6isFullEv
    lib.o(i._Znaj) refers to h1_alloc.o(.text) for malloc
    lib.o(.ARM.exidx) refers to lib.o(i._Znaj) for i._Znaj
    lib.o(.ARM.exidx) refers to lib.o(t._Z3MINItET_S0_S0_) for t._Z3MINItET_S0_S0_
    lib.o(i._ZN8cHwTimer10isrHandlerEv) refers to lib.o(i._ZN5cList9updateAllEv) for cList::updateAll()
    lib.o(.ARM.exidx) refers to lib.o(i._ZN8cHwTimer10isrHandlerEv) for i._ZN8cHwTimer10isrHandlerEv
    lib.o(i._ZN6cHwADC3getEh) refers to lib.o(i._ZN7cSystem16disableInterruptEv) for cSystem::disableInterrupt()
    lib.o(i._ZN6cHwADC3getEh) refers to lib.o(i._ZN7cSystem15enableInterruptEv) for cSystem::enableInterrupt()
    lib.o(.ARM.exidx) refers to lib.o(i._ZN6cHwADC3getEh) for i._ZN6cHwADC3getEh
    lib.o(.ARM.exidx) refers to lib.o(i._ZN6cHwADC19getNumberOfChannelsEv) for i._ZN6cHwADC19getNumberOfChannelsEv
    lib.o(.ARM.exidx) refers to lib.o(i._ZN6cHwADC6updateEv) for i._ZN6cHwADC6updateEv
    lib.o(.ARM.exidx) refers to lib.o(i._ZN6cHwADC3isrEv) for i._ZN6cHwADC3isrEv
    lib.o(.ARM.exidx) refers to lib.o(i._ZN8cHwADC_09getResultEv) for i._ZN8cHwADC_09getResultEv
    lib.o(.ARM.exidx) refers to lib.o(i._ZN8cHwADC_07startChEh) for i._ZN8cHwADC_07startChEh
    lib.o(.ARM.exidx) refers to lib.o(i._ZN6cHwDAC19getNumberOfChannelsEv) for i._ZN6cHwDAC19getNumberOfChannelsEv
    lib.o(t._ZNK8cNetAddrILh4EEeqERKS0_) refers to memcmp.o(.text) for memcmp
    lib.o(.ARM.exidx) refers to lib.o(t._ZNK8cNetAddrILh4EEeqERKS0_) for t._ZNK8cNetAddrILh4EEeqERKS0_
    lib.o(t._ZNK8cNetAddrILh6EEeqERKS0_) refers to memcmp.o(.text) for memcmp
    lib.o(.ARM.exidx) refers to lib.o(t._ZNK8cNetAddrILh6EEeqERKS0_) for t._ZNK8cNetAddrILh6EEeqERKS0_
    lib.o(t._ZN8cNetTYPEItEaSEt) refers to lib.o(i._Z4htont) for hton(unsigned short)
    lib.o(.ARM.exidx) refers to lib.o(t._ZN8cNetTYPEItEaSEt) for t._ZN8cNetTYPEItEaSEt
    lib.o(t._ZN8cNetTYPEItEcvtEv) refers to lib.o(i._Z4ntoht) for ntoh(unsigned short)
    lib.o(.ARM.exidx) refers to lib.o(t._ZN8cNetTYPEItEcvtEv) for t._ZN8cNetTYPEItEcvtEv
    lib.o(i._ZN7cHwPortC2Ev) refers to lib.o(.constdata__ZTV7cHwPort) for vtable for cHwPort
    lib.o(.ARM.exidx) refers to lib.o(i._ZN7cHwPortC2Ev) for i._ZN7cHwPortC2Ev
    lib.o(.ARM.exidx) refers to lib.o(i._ZN9cHwMemory5writeEjh) for i._ZN9cHwMemory5writeEjh
    lib.o(.ARM.exidx) refers to lib.o(i._ZN9cHwMemory4readEj) for i._ZN9cHwMemory4readEj
    lib.o(.ARM.exidx) refers to lib.o(i._ZN9cHwMemory5clearEj) for i._ZN9cHwMemory5clearEj
    lib.o(.ARM.exidx) refers to lib.o(i._ZN9cHwMemory7getSizeEv) for i._ZN9cHwMemory7getSizeEv
    lib.o(.ARM.exidx) refers to lib.o(i._ZN9cHwMemory7isFlashEv) for i._ZN9cHwMemory7isFlashEv
    lib.o(.ARM.exidx) refers to lib.o(i._ZN13cHwMemory_RAM9writeByteEjh) for i._ZN13cHwMemory_RAM9writeByteEjh
    lib.o(.ARM.exidx) refers to lib.o(i._ZN13cHwMemory_RAM8readByteEj) for i._ZN13cHwMemory_RAM8readByteEj
    lib.o(.ARM.exidx) refers to lib.o(i._ZN9cHwPort_N3setEj) for i._ZN9cHwPort_N3setEj
    lib.o(.ARM.exidx) refers to lib.o(i._ZN9cHwPort_N3setEjj) for i._ZN9cHwPort_N3setEjj
    lib.o(.ARM.exidx) refers to lib.o(i._ZN9cHwPort_N3clrEj) for i._ZN9cHwPort_N3clrEj
    lib.o(.ARM.exidx) refers to lib.o(i._ZN9cHwPort_N3getEv) for i._ZN9cHwPort_N3getEv
    lib.o(i._ZN12cHwSPImaster6Device5startEv) refers to lib.o(i._ZN7cHwPort3Pin3clrEv) for cHwPort::Pin::clr()
    lib.o(.ARM.exidx) refers to lib.o(i._ZN12cHwSPImaster6Device5startEv) for i._ZN12cHwSPImaster6Device5startEv
    lib.o(i._ZN12cHwSPImaster6Device4stopEv) refers to lib.o(i._ZN7cHwPort3Pin3setEv) for cHwPort::Pin::set()
    lib.o(.ARM.exidx) refers to lib.o(i._ZN12cHwSPImaster6Device4stopEv) for i._ZN12cHwSPImaster6Device4stopEv
    lib.o(.ARM.exidx) refers to lib.o(i._ZN12cHwSPImaster6Device4readEv) for i._ZN12cHwSPImaster6Device4readEv
    lib.o(i._ZN12cHwSPImaster6Device4readEPht) refers to lib.o(i._ZN7cSystem16disableInterruptEv) for cSystem::disableInterrupt()
    lib.o(i._ZN12cHwSPImaster6Device4readEPht) refers to lib.o(i._ZN12cHwSPImaster6Device5startEv) for cHwSPImaster::Device::start()
    lib.o(i._ZN12cHwSPImaster6Device4readEPht) refers to lib.o(i._ZN12cHwSPImaster6Device4stopEv) for cHwSPImaster::Device::stop()
    lib.o(i._ZN12cHwSPImaster6Device4readEPht) refers to lib.o(i._ZN7cSystem15enableInterruptEv) for cSystem::enableInterrupt()
    lib.o(.ARM.exidx) refers to lib.o(i._ZN12cHwSPImaster6Device4readEPht) for i._ZN12cHwSPImaster6Device4readEPht
    lib.o(.ARM.exidx) refers to lib.o(i._ZN12cHwSPImaster6Device5writeEh) for i._ZN12cHwSPImaster6Device5writeEh
    lib.o(i._ZN7cHwUART14isTxBufferFullEv) refers to lib.o(t._ZN5cFifoIhE6isFullEv) for cFifo<unsigned char>::isFull()
    lib.o(.ARM.exidx) refers to lib.o(i._ZN7cHwUART14isTxBufferFullEv) for i._ZN7cHwUART14isTxBufferFullEv
    lib.o(i._ZN7cHwUART5isrRxEv) refers to lib.o(t._ZN5cFifoIhElsERKh) for cFifo<unsigned char>::operator <<(const unsigned char&)
    lib.o(.ARM.exidx) refers to lib.o(i._ZN7cHwUART5isrRxEv) for i._ZN7cHwUART5isrRxEv
    lib.o(i._ZN7cHwUART5isrTxEv) refers to lib.o(i._ZN7cSystem16disableInterruptEv) for cSystem::disableInterrupt()
    lib.o(i._ZN7cHwUART5isrTxEv) refers to lib.o(i._ZN7cSystem15enableInterruptEv) for cSystem::enableInterrupt()
    lib.o(i._ZN7cHwUART5isrTxEv) refers to lib.o(t._ZN5cFifoIhErsERh) for cFifo<unsigned char>::operator >>(unsigned char&)
    lib.o(.ARM.exidx) refers to lib.o(i._ZN7cHwUART5isrTxEv) for i._ZN7cHwUART5isrTxEv
    lib.o(.ARM.exidx) refers to lib.o(i._ZN9cHwUART_N7getByteEv) for i._ZN9cHwUART_N7getByteEv
    lib.o(.ARM.exidx) refers to lib.o(i._ZN9cHwUART_N7setByteEh) for i._ZN9cHwUART_N7setByteEh
    lib.o(.ARM.exidx) refers to lib.o(i._ZN12cDataPointerC1Ev) for i._ZN12cDataPointerC1Ev
    lib.o(.ARM.exidx) refers to lib.o(i._ZN12cDataPointerC1EPht) for i._ZN12cDataPointerC1EPht
    lib.o(.ARM.exidx) refers to lib.o(i._ZNK12cDataPointer6getPtrEv) for i._ZNK12cDataPointer6getPtrEv
    lib.o(.ARM.exidx) refers to lib.o(i._ZN12cDataPointer7isEmptyEv) for i._ZN12cDataPointer7isEmptyEv
    lib.o(.ARM.exidx) refers to lib.o(i._ZN12cDataPointer7getSizeEv) for i._ZN12cDataPointer7getSizeEv
    lib.o(t._ZN12cDataPointercvPT_IvEEv) refers to lib.o(i._ZNK12cDataPointer6getPtrEv) for cDataPointer::getPtr() const
    lib.o(.ARM.exidx) refers to lib.o(t._ZN12cDataPointercvPT_IvEEv) for t._ZN12cDataPointercvPT_IvEEv
    lib.o(t._ZN12cDataPointercvPT_IN10cHwUSBdesc9cEndpointEEEv) refers to lib.o(i._ZNK12cDataPointer6getPtrEv) for cDataPointer::getPtr() const
    lib.o(.ARM.exidx) refers to lib.o(t._ZN12cDataPointercvPT_IN10cHwUSBdesc9cEndpointEEEv) for t._ZN12cDataPointercvPT_IN10cHwUSBdesc9cEndpointEEEv
    lib.o(.ARM.exidx) refers to lib.o(i._ZN10cHwUSBdesc5getIdEhhhh) for i._ZN10cHwUSBdesc5getIdEhhhh
    lib.o(.ARM.exidx) refers to lib.o(i._ZN10cHwUSBctrl5Setup8valueLowEv) for i._ZN10cHwUSBctrl5Setup8valueLowEv
    lib.o(.ARM.exidx) refers to lib.o(i._ZN10cHwUSBctrl5Setup8indexLowEv) for i._ZN10cHwUSBctrl5Setup8indexLowEv
    lib.o(.ARM.exidx) refers to lib.o(i._ZN10cHwUSBctrl5Setup5valueEv) for i._ZN10cHwUSBctrl5Setup5valueEv
    lib.o(i._ZN10cHwUSBctrl25ReqEndpointStd_ClrFeatureEv) refers to lib.o(i._ZN10cHwUSBctrl5Setup8indexLowEv) for cHwUSBctrl::Setup::indexLow()
    lib.o(i._ZN10cHwUSBctrl25ReqEndpointStd_ClrFeatureEv) refers to lib.o(i._ZN10cHwUSBctrl5Setup5valueEv) for cHwUSBctrl::Setup::value()
    lib.o(i._ZN10cHwUSBctrl25ReqEndpointStd_ClrFeatureEv) refers to lib.o(i._ZN14cHwUSBendpoint8clrStallEv) for cHwUSBendpoint::clrStall()
    lib.o(i._ZN10cHwUSBctrl25ReqEndpointStd_ClrFeatureEv) refers to lib.o(i._ZN14cHwUSBendpoint10clrFeatureEv) for cHwUSBendpoint::clrFeature()
    lib.o(i._ZN10cHwUSBctrl25ReqEndpointStd_ClrFeatureEv) refers to lib.o(i._ZN14cHwUSBendpoint16writeAcknowledgeEv) for cHwUSBendpoint::writeAcknowledge()
    lib.o(.ARM.exidx) refers to lib.o(i._ZN10cHwUSBctrl25ReqEndpointStd_ClrFeatureEv) for i._ZN10cHwUSBctrl25ReqEndpointStd_ClrFeatureEv
    lib.o(.ARM.exidx) refers to lib.o(i._ZN10cHwUSBctrl5Setup7requestEv) for i._ZN10cHwUSBctrl5Setup7requestEv
    lib.o(.ARM.exidx) refers to lib.o(i._ZN10cHwUSBctrl5Setup7reqTypeEv) for i._ZN10cHwUSBctrl5Setup7reqTypeEv
    lib.o(.ARM.exidx) refers to lib.o(i._ZN10cHwUSBctrl5Setup6lengthEv) for i._ZN10cHwUSBctrl5Setup6lengthEv
    lib.o(i._ZN10cHwUSBctrl29ReqInterfaceStd_GetDescriptorEv) refers to lib.o(i._ZN10cHwUSBctrl5Setup8indexLowEv) for cHwUSBctrl::Setup::indexLow()
    lib.o(i._ZN10cHwUSBctrl29ReqInterfaceStd_GetDescriptorEv) refers to lib.o(i._ZN10cHwUSBctrl5Setup8valueLowEv) for cHwUSBctrl::Setup::valueLow()
    lib.o(i._ZN10cHwUSBctrl29ReqInterfaceStd_GetDescriptorEv) refers to lib.o(i._ZN10cHwUSBctrl5Setup6lengthEv) for cHwUSBctrl::Setup::length()
    lib.o(i._ZN10cHwUSBctrl29ReqInterfaceStd_GetDescriptorEv) refers to lib.o(i._ZN10cHwUSBctrl5Setup5valueEv) for cHwUSBctrl::Setup::value()
    lib.o(i._ZN10cHwUSBctrl29ReqInterfaceStd_GetDescriptorEv) refers to lib.o(i._ZN14cHwUSBendpoint12writeDataLenERK12cDataPointert) for cHwUSBendpoint::writeDataLen(const cDataPointer&, unsigned short)
    lib.o(.ARM.exidx) refers to lib.o(i._ZN10cHwUSBctrl29ReqInterfaceStd_GetDescriptorEv) for i._ZN10cHwUSBctrl29ReqInterfaceStd_GetDescriptorEv
    lib.o(i._ZN10cHwUSBctrl5StallEv) refers to lib.o(i._ZN14cHwUSBendpoint5stallEv) for cHwUSBendpoint::stall()
    lib.o(.ARM.exidx) refers to lib.o(i._ZN10cHwUSBctrl5StallEv) for i._ZN10cHwUSBctrl5StallEv
    lib.o(.ARM.exidx) refers to lib.o(i._ZN8cHwUSB_012epAddr2IndexEh) for i._ZN8cHwUSB_012epAddr2IndexEh
    lib.o(.ARM.exidx) refers to lib.o(i._ZN14cHwDAC_MAX53086enableEh) for i._ZN14cHwDAC_MAX53086enableEh
    lib.o(.ARM.exidx) refers to lib.o(i._ZN14cHwDAC_MCP44416enableEh) for i._ZN14cHwDAC_MCP44416enableEh
    lib.o(.ARM.exidx) refers to lib.o(i._ZN14cHwDAC_MCP49226enableEh) for i._ZN14cHwDAC_MCP49226enableEh
    lib.o(.ARM.exidx) refers to lib.o(i._ZN10cHwDisplay16getNumberOfLinesEv) for i._ZN10cHwDisplay16getNumberOfLinesEv
    lib.o(.ARM.exidx) refers to lib.o(i._ZN10cHwDisplay18getNumberOfColumnsEv) for i._ZN10cHwDisplay18getNumberOfColumnsEv
    lib.o(.ARM.exidx) refers to lib.o(i._ZN17cHwDisplayGraphic14getDefaultFontEv) for i._ZN17cHwDisplayGraphic14getDefaultFontEv
    lib.o(i._ZN20cHwDisp_SPFD5408Bspi8writeRegEht) refers to lib.o(i._ZN20cHwDisp_SPFD5408Bspi8writeCmdEt) for cHwDisp_SPFD5408Bspi::writeCmd(unsigned short)
    lib.o(i._ZN20cHwDisp_SPFD5408Bspi8writeRegEht) refers to lib.o(i._ZN20cHwDisp_SPFD5408Bspi8writeDatEt) for cHwDisp_SPFD5408Bspi::writeDat(unsigned short)
    lib.o(.ARM.exidx) refers to lib.o(i._ZN20cHwDisp_SPFD5408Bspi8writeRegEht) for i._ZN20cHwDisp_SPFD5408Bspi8writeRegEht
    lib.o(i._ZN20cHwDisp_SPFD5408Bspi7setAreaEtttt) refers to lib.o(i._ZN20cHwDisp_SPFD5408Bspi8writeRegEht) for cHwDisp_SPFD5408Bspi::writeReg(unsigned char, unsigned short)
    lib.o(i._ZN20cHwDisp_SPFD5408Bspi7setAreaEtttt) refers to lib.o(i._ZN20cHwDisp_SPFD5408Bspi8writeCmdEt) for cHwDisp_SPFD5408Bspi::writeCmd(unsigned short)
    lib.o(.ARM.exidx) refers to lib.o(i._ZN20cHwDisp_SPFD5408Bspi7setAreaEtttt) for i._ZN20cHwDisp_SPFD5408Bspi7setAreaEtttt
    lib.o(i._ZN20cHwDisp_SPFD5408Bspi8setPixelEttt) refers to lib.o(i._ZN20cHwDisp_SPFD5408Bspi9maxWindowEv) for cHwDisp_SPFD5408Bspi::maxWindow()
    lib.o(i._ZN20cHwDisp_SPFD5408Bspi8setPixelEttt) refers to lib.o(i._ZN20cHwDisp_SPFD5408Bspi8writeRegEht) for cHwDisp_SPFD5408Bspi::writeReg(unsigned char, unsigned short)
    lib.o(.ARM.exidx) refers to lib.o(i._ZN20cHwDisp_SPFD5408Bspi8setPixelEttt) for i._ZN20cHwDisp_SPFD5408Bspi8setPixelEttt
    lib.o(i._ZN20cHwDisp_SPFD5408Bspi8setPixelEt) refers to lib.o(i._ZN20cHwDisp_SPFD5408Bspi8writeDatEt) for cHwDisp_SPFD5408Bspi::writeDat(unsigned short)
    lib.o(.ARM.exidx) refers to lib.o(i._ZN20cHwDisp_SPFD5408Bspi8setPixelEt) for i._ZN20cHwDisp_SPFD5408Bspi8setPixelEt
    lib.o(i._ZN18cHwDisp_ILI9341spi8writeCmdEh) refers to lib.o(i._ZN12cHwSPImaster6Device8writeExtEhh) for cHwSPImaster::Device::writeExt(unsigned char, unsigned char)
    lib.o(.ARM.exidx) refers to lib.o(i._ZN18cHwDisp_ILI9341spi8writeCmdEh) for i._ZN18cHwDisp_ILI9341spi8writeCmdEh
    lib.o(i._ZN18cHwDisp_ILI9341spi8writeDatEh) refers to lib.o(i._ZN12cHwSPImaster6Device8writeExtEhh) for cHwSPImaster::Device::writeExt(unsigned char, unsigned char)
    lib.o(.ARM.exidx) refers to lib.o(i._ZN18cHwDisp_ILI9341spi8writeDatEh) for i._ZN18cHwDisp_ILI9341spi8writeDatEh
    lib.o(i._ZN18cHwDisp_ILI9341spi12writeDatWordEt) refers to lib.o(i._ZN12cHwSPImaster6Device8writeExtEht) for cHwSPImaster::Device::writeExt(unsigned char, unsigned short)
    lib.o(.ARM.exidx) refers to lib.o(i._ZN18cHwDisp_ILI9341spi12writeDatWordEt) for i._ZN18cHwDisp_ILI9341spi12writeDatWordEt
    lib.o(i._ZN16cHwDisp_Terminal5clearEv) refers to lib.o(i._ZN16cHwDisp_Terminal7sendESCEPKc) for cHwDisp_Terminal::sendESC(const char*)
    lib.o(i._ZN16cHwDisp_Terminal5clearEv) refers to lib.o(.constdata) for .constdata
    lib.o(.ARM.exidx) refers to lib.o(i._ZN16cHwDisp_Terminal5clearEv) for i._ZN16cHwDisp_Terminal5clearEv
    lib.o(.ARM.exidx) refers to lib.o(i._ZN14cHwRTC_PCF858310Dual_2_BCDEh) for i._ZN14cHwRTC_PCF858310Dual_2_BCDEh
    lib.o(.ARM.exidx) refers to lib.o(i._ZN14cHwRTC_PCF858310BCD_2_DualEh) for i._ZN14cHwRTC_PCF858310BCD_2_DualEh
    lib.o(.ARM.exidx) refers to lib.o(i._ZN8cHwTouch7getPosXEv) for i._ZN8cHwTouch7getPosXEv
    lib.o(.ARM.exidx) refers to lib.o(i._ZN8cHwTouch7getPosYEv) for i._ZN8cHwTouch7getPosYEv
    lib.o(.ARM.exidx) refers to lib.o(i._ZN8cHwTouch9isTouchedEv) for i._ZN8cHwTouch9isTouchedEv
    lib.o(i._ZN13cNetTransport6Socket11openDefaultEv) refers to lib.o(t._ZN8cNetTYPEItEcvtEv) for cNetTYPE<unsigned short>::operator unsigned short()
    lib.o(.ARM.exidx) refers to lib.o(i._ZN13cNetTransport6Socket11openDefaultEv) for i._ZN13cNetTransport6Socket11openDefaultEv
    lib.o(.ARM.exidx) refers to lib.o(i._ZN13cNetTransport6Socket6updateEv) for i._ZN13cNetTransport6Socket6updateEv
    lib.o(.ARM.exidx) refers to lib.o(i._ZN13cNetTransport6Socket4fillEPKct) for i._ZN13cNetTransport6Socket4fillEPKct
    lib.o(.ARM.exidx) refers to lib.o(i._ZN7cNetUDP7getAddrEv) for i._ZN7cNetUDP7getAddrEv
    lib.o(.ARM.exidx) refers to lib.o(i._ZN7cNetUDP10getAddrPhyEv) for i._ZN7cNetUDP10getAddrPhyEv
    lib.o(t._ZN8cNetTYPEIjEaSEj) refers to lib.o(i._Z4htonj) for hton(unsigned)
    lib.o(.ARM.exidx) refers to lib.o(t._ZN8cNetTYPEIjEaSEj) for t._ZN8cNetTYPEIjEaSEj
    lib.o(t._ZN8cNetTYPEIjEcvjEv) refers to lib.o(i._Z4ntohj) for ntoh(unsigned)
    lib.o(.ARM.exidx) refers to lib.o(t._ZN8cNetTYPEIjEcvjEv) for t._ZN8cNetTYPEIjEcvjEv
    lib.o(.ARM.exidx) refers to lib.o(i._ZN8cNetDHCP6updateEv) for i._ZN8cNetDHCP6updateEv
    lib.o(.ARM.exidx) refers to lib.o(i._ZN14cNetTCP_Header13getDataOffsetEv) for i._ZN14cNetTCP_Header13getDataOffsetEv
    lib.o(.ARM.exidx) refers to lib.o(i._ZN14cNetTCP_Header13setDataOffsetEh) for i._ZN14cNetTCP_Header13setDataOffsetEh
    lib.o(.ARM.exidx) refers to lib.o(i._ZN7cNetTCP7getAddrEv) for i._ZN7cNetTCP7getAddrEv
    lib.o(.ARM.exidx) refers to lib.o(i._ZN7cNetTCP10getAddrPhyEv) for i._ZN7cNetTCP10getAddrPhyEv
    lib.o(i._ZN12cDevAnalogIn3getEv) refers to fflt_clz.o(x$fpl$ffltu) for __aeabi_ui2f
    lib.o(i._ZN12cDevAnalogIn3getEv) refers to fmul.o(x$fpl$fmul) for __aeabi_fmul
    lib.o(i._ZN12cDevAnalogIn3getEv) refers to faddsub_clz.o(x$fpl$fadd) for __aeabi_fadd
    lib.o(.ARM.exidx) refers to lib.o(i._ZN12cDevAnalogIn3getEv) for i._ZN12cDevAnalogIn3getEv
    lib.o(.ARM.exidx) refers to lib.o(i._ZN12cDevAnalogIncvfEv) for i._ZN12cDevAnalogIncvfEv
    lib.o(.ARM.exidx) refers to lib.o(i._ZN13cDevAnalogOutaSEf) for i._ZN13cDevAnalogOutaSEf
    lib.o(.ARM.exidx) refers to lib.o(i._ZN11cDevDigital3setEv) for i._ZN11cDevDigital3setEv
    lib.o(.ARM.exidx) refers to lib.o(i._ZN11cDevDigital3clrEv) for i._ZN11cDevDigital3clrEv
    lib.o(.ARM.exidx) refers to lib.o(i._ZN11cDevDigital6toggleEv) for i._ZN11cDevDigital6toggleEv
    lib.o(.ARM.exidx) refers to lib.o(i._ZN11cDevDigital6updateEv) for i._ZN11cDevDigital6updateEv
    lib.o(.ARM.exidx) refers to lib.o(i._ZN11cDevDigital5isSetEv) for i._ZN11cDevDigital5isSetEv
    lib.o(.ARM.exidx) refers to lib.o(i._ZN11cDevDigital5isClrEv) for i._ZN11cDevDigital5isClrEv
    lib.o(.ARM.exidx) refers to lib.o(i._ZN11cDevDigital10isReleasedEv) for i._ZN11cDevDigital10isReleasedEv
    lib.o(.ARM.exidx) refers to lib.o(i._ZN11cDevDigital11isActivatedEv) for i._ZN11cDevDigital11isActivatedEv
    lib.o(.ARM.exidx) refers to lib.o(i._ZN11cDevDigital9isChangedEv) for i._ZN11cDevDigital9isChangedEv
    lib.o(.ARM.exidx) refers to lib.o(i._ZN11cDevDigitalaSEb) for i._ZN11cDevDigitalaSEb
    lib.o(.ARM.exidx) refers to lib.o(i._ZN11cDevDigitalaSERS_) for i._ZN11cDevDigitalaSERS_
    lib.o(.ARM.exidx) refers to lib.o(i._ZN11cDevDigitalcvbEv) for i._ZN11cDevDigitalcvbEv
    lib.o(.ARM.exidx) refers to lib.o(i._ZN20cDevDigitalIndicator3setEv) for i._ZN20cDevDigitalIndicator3setEv
    lib.o(.ARM.exidx) refers to lib.o(i._ZN20cDevDigitalIndicator7triggerEt) for i._ZN20cDevDigitalIndicator7triggerEt
    lib.o(.ARM.exidx) refers to lib.o(i._ZN12cTaskHandler12getCycleTimeEv) for i._ZN12cTaskHandler12getCycleTimeEv
    lib.o(.ARM.exidx) refers to lib.o(i._ZN12cTaskHandler7getTicsEv) for i._ZN12cTaskHandler7getTicsEv
    lib.o(i._ZN12cTaskHandler3runEv) refers to lib.o(i._ZN7cSystem16disableInterruptEv) for cSystem::disableInterrupt()
    lib.o(i._ZN12cTaskHandler3runEv) refers to lib.o(i._ZN7cSystem15enableInterruptEv) for cSystem::enableInterrupt()
    lib.o(i._ZN12cTaskHandler3runEv) refers to lib.o(i._ZN5cList9updateAllEv) for cList::updateAll()
    lib.o(.ARM.exidx) refers to lib.o(i._ZN12cTaskHandler3runEv) for i._ZN12cTaskHandler3runEv
    lib.o(.ARM.exidx) refers to lib.o(i._ZN12cTaskHandler6updateEv) for i._ZN12cTaskHandler6updateEv
    lib.o(.ARM.exidx) refers to lib.o(i._ZN7cHwPort3Pin3setEv) for i._ZN7cHwPort3Pin3setEv
    lib.o(.ARM.exidx) refers to lib.o(i._ZN7cHwPort3Pin3clrEv) for i._ZN7cHwPort3Pin3clrEv
    lib.o(.constdata__ZTVN5cList4ItemE) refers to lib.o(.constdata__ZTIN5cList4ItemE) for typeinfo for cList::Item
    lib.o(.constdata__ZTVN5cList4ItemE) refers to lib.o(i._ZN5cList4Item6updateEv) for cList::Item::update()
    lib.o(.constdata__ZTV6cHwDAC) refers to lib.o(.constdata__ZTI6cHwDAC) for typeinfo for cHwDAC
    lib.o(.constdata__ZTV6cHwDAC) refers to lib.o(i.__cxa_pure_virtual) for __cxa_pure_virtual
    lib.o(.constdata__ZTV6cHwDAC) refers to lib.o(i._ZN6cHwDAC19getNumberOfChannelsEv) for cHwDAC::getNumberOfChannels()
    lib.o(.constdata__ZTV8cHwDAC_0) refers to lib.o(.constdata__ZTI8cHwDAC_0) for typeinfo for cHwDAC_0
    lib.o(.constdata__ZTV8cHwDAC_0) refers to lib.o(i._ZN8cHwDAC_03setEth) for cHwDAC_0::set(unsigned short, unsigned char)
    lib.o(.constdata__ZTV8cHwDAC_0) refers to lib.o(i._ZN8cHwDAC_06enableEh) for cHwDAC_0::enable(unsigned char)
    lib.o(.constdata__ZTV8cHwDAC_0) refers to lib.o(i._ZN6cHwDAC19getNumberOfChannelsEv) for cHwDAC::getNumberOfChannels()
    lib.o(.constdata__ZTVN7cHwPort3PinE) refers to lib.o(.constdata__ZTIN7cHwPort3PinE) for typeinfo for cHwPort::Pin
    lib.o(.constdata__ZTVN7cHwPort3PinE) refers to lib.o(i._ZN7cHwPort3Pin7setModeENS_4ModeE) for cHwPort::Pin::setMode(cHwPort::Mode)
    lib.o(.constdata__ZTVN7cHwPort3PinE) refers to lib.o(i._ZN7cHwPort3Pin3setEv) for cHwPort::Pin::set()
    lib.o(.constdata__ZTVN7cHwPort3PinE) refers to lib.o(i._ZN7cHwPort3Pin3setEb) for cHwPort::Pin::set(bool)
    lib.o(.constdata__ZTVN7cHwPort3PinE) refers to lib.o(i._ZN7cHwPort3Pin3clrEv) for cHwPort::Pin::clr()
    lib.o(.constdata__ZTVN7cHwPort3PinE) refers to lib.o(i._ZN7cHwPort3Pin3getEv) for cHwPort::Pin::get()
    lib.o(.constdata__ZTV7cHwPort) refers to lib.o(.constdata__ZTI7cHwPort) for typeinfo for cHwPort
    lib.o(.constdata__ZTV7cHwPort) refers to lib.o(i.__cxa_pure_virtual) for __cxa_pure_virtual
    lib.o(.constdata__ZTV12cHwUSBinterf) refers to lib.o(.constdata__ZTI12cHwUSBinterf) for typeinfo for cHwUSBinterf
    lib.o(.constdata__ZTV12cHwUSBinterf) refers to lib.o(i.__cxa_pure_virtual) for __cxa_pure_virtual
    lib.o(.constdata__ZTV12cHwUSBinterf) refers to lib.o(i._ZN12cHwUSBinterf13GetDescriptorEt) for cHwUSBinterf::GetDescriptor(unsigned short)
    lib.o(.constdata__ZTV12cHwUSBinterf) refers to lib.o(i._ZN12cHwUSBinterf10clrFeatureEv) for cHwUSBinterf::clrFeature()
    lib.o(.constdata__ZTV12cHwUSBinterf) refers to lib.o(i._ZN12cHwUSBinterf10setFeatureEv) for cHwUSBinterf::setFeature()
    lib.o(.constdata__ZTV13cHwDAC_MAX521) refers to lib.o(.constdata__ZTI13cHwDAC_MAX521) for typeinfo for cHwDAC_MAX521
    lib.o(.constdata__ZTV13cHwDAC_MAX521) refers to lib.o(i._ZN13cHwDAC_MAX5213setEth) for cHwDAC_MAX521::set(unsigned short, unsigned char)
    lib.o(.constdata__ZTV13cHwDAC_MAX521) refers to lib.o(i._ZN13cHwDAC_MAX5216enableEh) for cHwDAC_MAX521::enable(unsigned char)
    lib.o(.constdata__ZTV13cHwDAC_MAX521) refers to lib.o(i._ZN6cHwDAC19getNumberOfChannelsEv) for cHwDAC::getNumberOfChannels()
    lib.o(.constdata__ZTV10cHwDisplay) refers to lib.o(.constdata__ZTI10cHwDisplay) for typeinfo for cHwDisplay
    lib.o(.constdata__ZTV10cHwDisplay) refers to lib.o(i.__cxa_pure_virtual) for __cxa_pure_virtual
    lib.o(.constdata__ZTV10cHwDisplay) refers to lib.o(i._ZN10cHwDisplay16getNumberOfLinesEv) for cHwDisplay::getNumberOfLines()
    lib.o(.constdata__ZTV10cHwDisplay) refers to lib.o(i._ZN10cHwDisplay18getNumberOfColumnsEv) for cHwDisplay::getNumberOfColumns()
    lib.o(.constdata__ZTV15cNetApplication) refers to lib.o(.constdata__ZTI15cNetApplication) for typeinfo for cNetApplication
    lib.o(.constdata__ZTV15cNetApplication) refers to lib.o(i.__cxa_pure_virtual) for __cxa_pure_virtual
    lib.o(.constdata__ZTIN13cNetTransport6SocketE) refers to lib_rtti_impl.o(.constdata__ZTVN10__cxxabiv120__si_class_type_infoE) for vtable for __cxxabiv1::__si_class_type_info
    lib.o(.constdata__ZTIN13cNetTransport6SocketE) refers to lib.o(.constdata__ZTSN13cNetTransport6SocketE) for typeinfo name for cNetTransport::Socket
    lib.o(.constdata__ZTIN13cNetTransport6SocketE) refers to lib.o(.constdata__ZTIN5cList4ItemE) for typeinfo for cList::Item
    lib.o(.constdata__ZTVN6cNetIP13cTimeOutTimerE) refers to lib.o(.constdata__ZTIN6cNetIP13cTimeOutTimerE) for typeinfo for cNetIP::cTimeOutTimer
    lib.o(.constdata__ZTVN6cNetIP13cTimeOutTimerE) refers to lib.o(i._ZN6cNetIP13cTimeOutTimer6updateEv) for cNetIP::cTimeOutTimer::update()
    lib.o(.constdata__ZTI8cHwTimer) refers to lib_rtti_impl.o(.constdata__ZTVN10__cxxabiv117__class_type_infoE) for vtable for __cxxabiv1::__class_type_info
    lib.o(.constdata__ZTI8cHwTimer) refers to lib.o(.constdata__ZTS8cHwTimer) for typeinfo name for cHwTimer
    lib.o(.constdata__ZTI11cDevDigital) refers to lib_rtti_impl.o(.constdata__ZTVN10__cxxabiv117__class_type_infoE) for vtable for __cxxabiv1::__class_type_info
    lib.o(.constdata__ZTI11cDevDigital) refers to lib.o(.constdata__ZTS11cDevDigital) for typeinfo name for cDevDigital
    lib.o(.constdata__ZTV9cHwMemory) refers to lib.o(.constdata__ZTI9cHwMemory) for typeinfo for cHwMemory
    lib.o(.constdata__ZTV9cHwMemory) refers to lib.o(i.__cxa_pure_virtual) for __cxa_pure_virtual
    lib.o(.constdata__ZTV9cHwMemory) refers to lib.o(i._ZN9cHwMemory5writeEjh) for cHwMemory::write(unsigned, unsigned char)
    lib.o(.constdata__ZTV9cHwMemory) refers to lib.o(i._ZN9cHwMemory4readEj) for cHwMemory::read(unsigned)
    lib.o(.constdata__ZTV9cHwMemory) refers to lib.o(i._ZN9cHwMemory5clearEj) for cHwMemory::clear(unsigned)
    lib.o(.constdata__ZTV9cHwMemory) refers to lib.o(i._ZN9cHwMemory7getSizeEv) for cHwMemory::getSize()
    lib.o(.constdata__ZTV9cHwMemory) refers to lib.o(i._ZN9cHwMemory7isFlashEv) for cHwMemory::isFlash()
    lib.o(.constdata__ZTI6cHwADC) refers to lib_rtti_impl.o(.constdata__ZTVN10__cxxabiv120__si_class_type_infoE) for vtable for __cxxabiv1::__si_class_type_info
    lib.o(.constdata__ZTI6cHwADC) refers to lib.o(.constdata__ZTS6cHwADC) for typeinfo name for cHwADC
    lib.o(.constdata__ZTI6cHwADC) refers to lib.o(.constdata__ZTIN5cList4ItemE) for typeinfo for cList::Item
    lib.o(.constdata__ZTI17cHwDisplayGraphic) refers to lib_rtti_impl.o(.constdata__ZTVN10__cxxabiv120__si_class_type_infoE) for vtable for __cxxabiv1::__si_class_type_info
    lib.o(.constdata__ZTI17cHwDisplayGraphic) refers to lib.o(.constdata__ZTS17cHwDisplayGraphic) for typeinfo name for cHwDisplayGraphic
    lib.o(.constdata__ZTI17cHwDisplayGraphic) refers to lib.o(.constdata__ZTI10cHwDisplay) for typeinfo for cHwDisplay
    lib.o(.constdata__ZTI11cHwEthernet) refers to lib_rtti_impl.o(.constdata__ZTVN10__cxxabiv117__class_type_infoE) for vtable for __cxxabiv1::__class_type_info
    lib.o(.constdata__ZTI11cHwEthernet) refers to lib.o(.constdata__ZTS11cHwEthernet) for typeinfo name for cHwEthernet
    lib.o(.constdata__ZTI12cHwI2Cmaster) refers to lib_rtti_impl.o(.constdata__ZTVN10__cxxabiv117__class_type_infoE) for vtable for __cxxabiv1::__class_type_info
    lib.o(.constdata__ZTI12cHwI2Cmaster) refers to lib.o(.constdata__ZTS12cHwI2Cmaster) for typeinfo name for cHwI2Cmaster
    lib.o(.constdata__ZTI17cHwI2Cmaster_Emul) refers to lib_rtti_impl.o(.constdata__ZTVN10__cxxabiv120__si_class_type_infoE) for vtable for __cxxabiv1::__si_class_type_info
    lib.o(.constdata__ZTI17cHwI2Cmaster_Emul) refers to lib.o(.constdata__ZTS17cHwI2Cmaster_Emul) for typeinfo name for cHwI2Cmaster_Emul
    lib.o(.constdata__ZTI17cHwI2Cmaster_Emul) refers to lib.o(.constdata__ZTI12cHwI2Cmaster) for typeinfo for cHwI2Cmaster
    lib.o(.constdata__ZTI7cNetTCP) refers to lib_rtti_impl.o(.constdata__ZTVN10__cxxabiv120__si_class_type_infoE) for vtable for __cxxabiv1::__si_class_type_info
    lib.o(.constdata__ZTI7cNetTCP) refers to lib.o(.constdata__ZTS7cNetTCP) for typeinfo name for cNetTCP
    lib.o(.constdata__ZTI7cNetTCP) refers to lib.o(.constdata__ZTI13cNetTransport) for typeinfo for cNetTransport
    lib.o(.constdata__ZTI7cNetUDP) refers to lib_rtti_impl.o(.constdata__ZTVN10__cxxabiv120__si_class_type_infoE) for vtable for __cxxabiv1::__si_class_type_info
    lib.o(.constdata__ZTI7cNetUDP) refers to lib.o(.constdata__ZTS7cNetUDP) for typeinfo name for cNetUDP
    lib.o(.constdata__ZTI7cNetUDP) refers to lib.o(.constdata__ZTI13cNetTransport) for typeinfo for cNetTransport
    lib.o(.constdata__ZTI13cNetTransport) refers to lib_rtti_impl.o(.constdata__ZTVN10__cxxabiv117__class_type_infoE) for vtable for __cxxabiv1::__class_type_info
    lib.o(.constdata__ZTI13cNetTransport) refers to lib.o(.constdata__ZTS13cNetTransport) for typeinfo name for cNetTransport
    lib.o(.constdata__ZTIN7cNetTCP6SocketE) refers to lib_rtti_impl.o(.constdata__ZTVN10__cxxabiv120__si_class_type_infoE) for vtable for __cxxabiv1::__si_class_type_info
    lib.o(.constdata__ZTIN7cNetTCP6SocketE) refers to lib.o(.constdata__ZTSN7cNetTCP6SocketE) for typeinfo name for cNetTCP::Socket
    lib.o(.constdata__ZTIN7cNetTCP6SocketE) refers to lib.o(.constdata__ZTIN13cNetTransport6SocketE) for typeinfo for cNetTransport::Socket
    lib.o(.constdata__ZTIN7cNetUDP6SocketE) refers to lib_rtti_impl.o(.constdata__ZTVN10__cxxabiv120__si_class_type_infoE) for vtable for __cxxabiv1::__si_class_type_info
    lib.o(.constdata__ZTIN7cNetUDP6SocketE) refers to lib.o(.constdata__ZTSN7cNetUDP6SocketE) for typeinfo name for cNetUDP::Socket
    lib.o(.constdata__ZTIN7cNetUDP6SocketE) refers to lib.o(.constdata__ZTIN13cNetTransport6SocketE) for typeinfo for cNetTransport::Socket
    lib.o(.constdata__ZTV6cHwRTC) refers to lib.o(.constdata__ZTI6cHwRTC) for typeinfo for cHwRTC
    lib.o(.constdata__ZTV6cHwRTC) refers to lib.o(i.__cxa_pure_virtual) for __cxa_pure_virtual
    lib.o(.constdata__ZTV12cHwSPImaster) refers to lib.o(.constdata__ZTI12cHwSPImaster) for typeinfo for cHwSPImaster
    lib.o(.constdata__ZTV12cHwSPImaster) refers to lib.o(i.__cxa_pure_virtual) for __cxa_pure_virtual
    lib.o(.constdata__ZTIN12cHwSPImaster6DeviceE) refers to lib_rtti_impl.o(.constdata__ZTVN10__cxxabiv117__class_type_infoE) for vtable for __cxxabiv1::__class_type_info
    lib.o(.constdata__ZTIN12cHwSPImaster6DeviceE) refers to lib.o(.constdata__ZTSN12cHwSPImaster6DeviceE) for typeinfo name for cHwSPImaster::Device
    lib.o(.constdata__ZTV8cHwTouch) refers to lib.o(.constdata__ZTI8cHwTouch) for typeinfo for cHwTouch
    lib.o(.constdata__ZTV8cHwTouch) refers to lib.o(i.__cxa_pure_virtual) for __cxa_pure_virtual
    lib.o(.constdata__ZTV8cHwTouch) refers to lib.o(i._ZN8cHwTouch7getPosXEv) for cHwTouch::getPosX()
    lib.o(.constdata__ZTV8cHwTouch) refers to lib.o(i._ZN8cHwTouch7getPosYEv) for cHwTouch::getPosY()
    lib.o(.constdata__ZTV8cHwTouch) refers to lib.o(i._ZN8cHwTouch9isTouchedEv) for cHwTouch::isTouched()
    lib.o(.constdata__ZTI7cHwUART) refers to lib_rtti_impl.o(.constdata__ZTVN10__cxxabiv117__class_type_infoE) for vtable for __cxxabiv1::__class_type_info
    lib.o(.constdata__ZTI7cHwUART) refers to lib.o(.constdata__ZTS7cHwUART) for typeinfo name for cHwUART
    lib.o(.constdata__ZTI10cHwUSBdesc) refers to lib_rtti_impl.o(.constdata__ZTVN10__cxxabiv117__class_type_infoE) for vtable for __cxxabiv1::__class_type_info
    lib.o(.constdata__ZTI10cHwUSBdesc) refers to lib.o(.constdata__ZTS10cHwUSBdesc) for typeinfo name for cHwUSBdesc
    lib.o(.constdata__ZTI6cHwUSB) refers to lib_rtti_impl.o(.constdata__ZTVN10__cxxabiv117__class_type_infoE) for vtable for __cxxabiv1::__class_type_info
    lib.o(.constdata__ZTI6cHwUSB) refers to lib.o(.constdata__ZTS6cHwUSB) for typeinfo name for cHwUSB
    lib.o(.constdata__ZTI10cHwUSBctrl) refers to lib_rtti_impl.o(.constdata__ZTVN10__cxxabiv117__class_type_infoE) for vtable for __cxxabiv1::__class_type_info
    lib.o(.constdata__ZTI10cHwUSBctrl) refers to lib.o(.constdata__ZTS10cHwUSBctrl) for typeinfo name for cHwUSBctrl
    lib.o(.constdata__ZTV14cHwI2Cmaster_N) refers to lib.o(.constdata__ZTI14cHwI2Cmaster_N) for typeinfo for cHwI2Cmaster_N
    lib.o(.constdata__ZTV14cHwI2Cmaster_N) refers to lib.o(i._ZN12cHwI2Cmaster5writeEhPhhS0_h) for cHwI2Cmaster::write(unsigned char, unsigned char*, unsigned char, unsigned char*, unsigned char)
    lib.o(.constdata__ZTV14cHwI2Cmaster_N) refers to lib.o(i._ZN12cHwI2Cmaster4readEhPhhS0_h) for cHwI2Cmaster::read(unsigned char, unsigned char*, unsigned char, unsigned char*, unsigned char)
    lib.o(.constdata__ZTV14cHwI2Cmaster_N) refers to lib.o(i._ZN14cHwI2Cmaster_N5startEv) for cHwI2Cmaster_N::start()
    lib.o(.constdata__ZTV14cHwI2Cmaster_N) refers to lib.o(i._ZN14cHwI2Cmaster_N4stopEv) for cHwI2Cmaster_N::stop()
    lib.o(.constdata__ZTV14cHwI2Cmaster_N) refers to lib.o(i._ZN14cHwI2Cmaster_N8sendAddrEh) for cHwI2Cmaster_N::sendAddr(unsigned char)
    lib.o(.constdata__ZTV14cHwI2Cmaster_N) refers to lib.o(i._ZN14cHwI2Cmaster_N9writeByteEh) for cHwI2Cmaster_N::writeByte(unsigned char)
    lib.o(.constdata__ZTV14cHwI2Cmaster_N) refers to lib.o(i._ZN14cHwI2Cmaster_N11readByteAckEv) for cHwI2Cmaster_N::readByteAck()
    lib.o(.constdata__ZTV14cHwI2Cmaster_N) refers to lib.o(i._ZN14cHwI2Cmaster_N12readByteNackEv) for cHwI2Cmaster_N::readByteNack()
    lib.o(.constdata__ZTV14cHwI2Cmaster_N) refers to lib.o(i._ZN14cHwI2Cmaster_N11waitForAcknEh) for cHwI2Cmaster_N::waitForAckn(unsigned char)
    lib.o(.constdata__ZTI9cHwPort_N) refers to lib_rtti_impl.o(.constdata__ZTVN10__cxxabiv120__si_class_type_infoE) for vtable for __cxxabiv1::__si_class_type_info
    lib.o(.constdata__ZTI9cHwPort_N) refers to lib.o(.constdata__ZTS9cHwPort_N) for typeinfo name for cHwPort_N
    lib.o(.constdata__ZTI9cHwPort_N) refers to lib.o(.constdata__ZTI7cHwPort) for typeinfo for cHwPort
    lib.o(.constdata__ZTI9cHwUART_N) refers to lib_rtti_impl.o(.constdata__ZTVN10__cxxabiv120__si_class_type_infoE) for vtable for __cxxabiv1::__si_class_type_info
    lib.o(.constdata__ZTI9cHwUART_N) refers to lib.o(.constdata__ZTS9cHwUART_N) for typeinfo name for cHwUART_N
    lib.o(.constdata__ZTI9cHwUART_N) refers to lib.o(.constdata__ZTI7cHwUART) for typeinfo for cHwUART
    lib.o(.constdata__ZTI8cHwUSB_0) refers to lib_rtti_impl.o(.constdata__ZTVN10__cxxabiv120__si_class_type_infoE) for vtable for __cxxabiv1::__si_class_type_info
    lib.o(.constdata__ZTI8cHwUSB_0) refers to lib.o(.constdata__ZTS8cHwUSB_0) for typeinfo name for cHwUSB_0
    lib.o(.constdata__ZTI8cHwUSB_0) refers to lib.o(.constdata__ZTI6cHwUSB) for typeinfo for cHwUSB
    lib.o(.constdata__ZTI18cHwDisp_ILI9341spi) refers to lib_rtti_impl.o(.constdata__ZTVN10__cxxabiv120__si_class_type_infoE) for vtable for __cxxabiv1::__si_class_type_info
    lib.o(.constdata__ZTI18cHwDisp_ILI9341spi) refers to lib.o(.constdata__ZTS18cHwDisp_ILI9341spi) for typeinfo name for cHwDisp_ILI9341spi
    lib.o(.constdata__ZTI18cHwDisp_ILI9341spi) refers to lib.o(.constdata__ZTI17cHwDisplayGraphic) for typeinfo for cHwDisplayGraphic
    lib.o(.constdata__ZTI20cHwDisp_SPFD5408Bspi) refers to lib_rtti_impl.o(.constdata__ZTVN10__cxxabiv120__si_class_type_infoE) for vtable for __cxxabiv1::__si_class_type_info
    lib.o(.constdata__ZTI20cHwDisp_SPFD5408Bspi) refers to lib.o(.constdata__ZTS20cHwDisp_SPFD5408Bspi) for typeinfo name for cHwDisp_SPFD5408Bspi
    lib.o(.constdata__ZTI20cHwDisp_SPFD5408Bspi) refers to lib.o(.constdata__ZTI17cHwDisplayGraphic) for typeinfo for cHwDisplayGraphic
    lib.o(.constdata__ZTV16cHwDisp_Terminal) refers to lib.o(.constdata__ZTI16cHwDisp_Terminal) for typeinfo for cHwDisp_Terminal
    lib.o(.constdata__ZTV16cHwDisp_Terminal) refers to lib.o(i._ZN16cHwDisp_Terminal5clearEv) for cHwDisp_Terminal::clear()
    lib.o(.constdata__ZTV16cHwDisp_Terminal) refers to lib.o(i._ZN16cHwDisp_Terminal11gotoTextPosEhh) for cHwDisp_Terminal::gotoTextPos(unsigned char, unsigned char)
    lib.o(.constdata__ZTV16cHwDisp_Terminal) refers to lib.o(i._ZN16cHwDisp_Terminal7putCharEc) for cHwDisp_Terminal::putChar(char)
    lib.o(.constdata__ZTV16cHwDisp_Terminal) refers to lib.o(i._ZN10cHwDisplay16getNumberOfLinesEv) for cHwDisplay::getNumberOfLines()
    lib.o(.constdata__ZTV16cHwDisp_Terminal) refers to lib.o(i._ZN10cHwDisplay18getNumberOfColumnsEv) for cHwDisplay::getNumberOfColumns()
    lib.o(.constdata__ZTI16cHwPort_Terminal) refers to lib_rtti_impl.o(.constdata__ZTVN10__cxxabiv121__vmi_class_type_infoE) for vtable for __cxxabiv1::__vmi_class_type_info
    lib.o(.constdata__ZTI16cHwPort_Terminal) refers to lib.o(.constdata__ZTS16cHwPort_Terminal) for typeinfo name for cHwPort_Terminal
    lib.o(.constdata__ZTI16cHwPort_Terminal) refers to lib.o(.constdata__ZTI7cHwPort) for typeinfo for cHwPort
    lib.o(.constdata__ZTI16cHwPort_Terminal) refers to lib.o(.constdata__ZTIN5cList4ItemE) for typeinfo for cList::Item
    lib.o(.constdata__ZTV17cHwSensMag_LSM303) refers to lib.o(.constdata__ZTI17cHwSensMag_LSM303) for typeinfo for cHwSensMag_LSM303
    lib.o(.constdata__ZTV17cHwSensMag_LSM303) refers to lib.o(i._ZN17cHwSensMag_LSM3034getXEv) for cHwSensMag_LSM303::getX()
    lib.o(.constdata__ZTV17cHwSensMag_LSM303) refers to lib.o(i._ZN17cHwSensMag_LSM3034getYEv) for cHwSensMag_LSM303::getY()
    lib.o(.constdata__ZTV17cHwSensMag_LSM303) refers to lib.o(i._ZN17cHwSensMag_LSM3034getZEv) for cHwSensMag_LSM303::getZ()
    lib.o(.constdata__ZTV17cHwSensAcc_LSM303) refers to lib.o(.constdata__ZTI17cHwSensAcc_LSM303) for typeinfo for cHwSensAcc_LSM303
    lib.o(.constdata__ZTV17cHwSensAcc_LSM303) refers to lib.o(i._ZN17cHwSensAcc_LSM3034getXEv) for cHwSensAcc_LSM303::getX()
    lib.o(.constdata__ZTV17cHwSensAcc_LSM303) refers to lib.o(i._ZN17cHwSensAcc_LSM3034getYEv) for cHwSensAcc_LSM303::getY()
    lib.o(.constdata__ZTV17cHwSensAcc_LSM303) refers to lib.o(i._ZN17cHwSensAcc_LSM3034getZEv) for cHwSensAcc_LSM303::getZ()
    lib.o(.constdata__ZTV18cHwSensGyro_L3GD20) refers to lib.o(.constdata__ZTI18cHwSensGyro_L3GD20) for typeinfo for cHwSensGyro_L3GD20
    lib.o(.constdata__ZTV18cHwSensGyro_L3GD20) refers to lib.o(i._ZN18cHwSensGyro_L3GD204getXEv) for cHwSensGyro_L3GD20::getX()
    lib.o(.constdata__ZTV18cHwSensGyro_L3GD20) refers to lib.o(i._ZN18cHwSensGyro_L3GD204getYEv) for cHwSensGyro_L3GD20::getY()
    lib.o(.constdata__ZTV18cHwSensGyro_L3GD20) refers to lib.o(i._ZN18cHwSensGyro_L3GD204getZEv) for cHwSensGyro_L3GD20::getZ()
    lib.o(.constdata__ZTV12cDevAnalogIn) refers to lib.o(.constdata__ZTI12cDevAnalogIn) for typeinfo for cDevAnalogIn
    lib.o(.constdata__ZTV12cDevAnalogIn) refers to lib.o(i._ZN12cDevAnalogIn3getEv) for cDevAnalogIn::get()
    lib.o(.constdata__ZTV12cDevAnalogIn) refers to lib.o(i._ZN12cDevAnalogIncvfEv) for cDevAnalogIn::operator float()
    lib.o(.constdata__ZTV12cDevAnalogIn) refers to lib.o(i.__cxa_pure_virtual) for __cxa_pure_virtual
    lib.o(.constdata__ZTI13cDevAnalogOut) refers to lib_rtti_impl.o(.constdata__ZTVN10__cxxabiv121__vmi_class_type_infoE) for vtable for __cxxabiv1::__vmi_class_type_info
    lib.o(.constdata__ZTI13cDevAnalogOut) refers to lib.o(.constdata__ZTS13cDevAnalogOut) for typeinfo name for cDevAnalogOut
    lib.o(.constdata__ZTI13cDevAnalogOut) refers to lib.o(.constdata__ZTI10cDevAnalog) for typeinfo for cDevAnalog
    lib.o(.constdata__ZTI20cDevDigitalIndicator) refers to lib_rtti_impl.o(.constdata__ZTVN10__cxxabiv120__si_class_type_infoE) for vtable for __cxxabiv1::__si_class_type_info
    lib.o(.constdata__ZTI20cDevDigitalIndicator) refers to lib.o(.constdata__ZTS20cDevDigitalIndicator) for typeinfo name for cDevDigitalIndicator
    lib.o(.constdata__ZTI20cDevDigitalIndicator) refers to lib.o(.constdata__ZTIN5cList4ItemE) for typeinfo for cList::Item
    lib.o(.constdata__ZTV11cDevDisplay) refers to lib.o(.constdata__ZTI11cDevDisplay) for typeinfo for cDevDisplay
    lib.o(.constdata__ZTV11cDevDisplay) refers to lib.o(i.__cxa_pure_virtual) for __cxa_pure_virtual
    lib.o(.constdata__ZTI18cDevDisplayGraphic) refers to lib_rtti_impl.o(.constdata__ZTVN10__cxxabiv120__si_class_type_infoE) for vtable for __cxxabiv1::__si_class_type_info
    lib.o(.constdata__ZTI18cDevDisplayGraphic) refers to lib.o(.constdata__ZTS18cDevDisplayGraphic) for typeinfo name for cDevDisplayGraphic
    lib.o(.constdata__ZTI18cDevDisplayGraphic) refers to lib.o(.constdata__ZTI11cDevDisplay) for typeinfo for cDevDisplay
    lib.o(.constdata__ZTI10cDevTextIO) refers to lib_rtti_impl.o(.constdata__ZTVN10__cxxabiv117__class_type_infoE) for vtable for __cxxabiv1::__class_type_info
    lib.o(.constdata__ZTI10cDevTextIO) refers to lib.o(.constdata__ZTS10cDevTextIO) for typeinfo name for cDevTextIO
    lib.o(.constdata__ZTV15cDevTextIO_UART) refers to lib.o(.constdata__ZTI15cDevTextIO_UART) for typeinfo for cDevTextIO_UART
    lib.o(.constdata__ZTV15cDevTextIO_UART) refers to lib.o(i._ZN10cDevTextIO6printfEPKcz) for cDevTextIO::printf(const char*, ...)
    lib.o(.constdata__ZTV15cDevTextIO_UART) refers to lib.o(i._ZN15cDevTextIO_UART3setEPhh) for cDevTextIO_UART::set(unsigned char*, unsigned char)
    lib.o(.constdata__ZTV15cDevTextIO_UART) refers to lib.o(i._ZN15cDevTextIO_UART3getEPh) for cDevTextIO_UART::get(unsigned char*)
    lib.o(.constdata__ZTI18cDevControlEncoder) refers to lib_rtti_impl.o(.constdata__ZTVN10__cxxabiv120__si_class_type_infoE) for vtable for __cxxabiv1::__si_class_type_info
    lib.o(.constdata__ZTI18cDevControlEncoder) refers to lib.o(.constdata__ZTS18cDevControlEncoder) for typeinfo name for cDevControlEncoder
    lib.o(.constdata__ZTI18cDevControlEncoder) refers to lib.o(.constdata__ZTIN5cList4ItemE) for typeinfo for cList::Item
    lib.o(.constdata__ZTV6cTimer) refers to lib.o(.constdata__ZTI6cTimer) for typeinfo for cTimer
    lib.o(.constdata__ZTV6cTimer) refers to lib.o(i.__cxa_pure_virtual) for __cxa_pure_virtual
    lib.o(.constdata__ZTI12cTaskHandler) refers to lib_rtti_impl.o(.constdata__ZTVN10__cxxabiv120__si_class_type_infoE) for vtable for __cxxabiv1::__si_class_type_info
    lib.o(.constdata__ZTI12cTaskHandler) refers to lib.o(.constdata__ZTS12cTaskHandler) for typeinfo name for cTaskHandler
    lib.o(.constdata__ZTI12cTaskHandler) refers to lib.o(.constdata__ZTIN5cList4ItemE) for typeinfo for cList::Item
    lib.o(.constdata__ZTVN12cTaskHandler4TaskE) refers to lib.o(.constdata__ZTIN12cTaskHandler4TaskE) for typeinfo for cTaskHandler::Task
    lib.o(.constdata__ZTVN12cTaskHandler4TaskE) refers to lib.o(i.__cxa_pure_virtual) for __cxa_pure_virtual
    lib.o(.constdata__ZTI8cHwADC_0) refers to lib_rtti_impl.o(.constdata__ZTVN10__cxxabiv120__si_class_type_infoE) for vtable for __cxxabiv1::__si_class_type_info
    lib.o(.constdata__ZTI8cHwADC_0) refers to lib.o(.constdata__ZTS8cHwADC_0) for typeinfo name for cHwADC_0
    lib.o(.constdata__ZTI8cHwADC_0) refers to lib.o(.constdata__ZTI6cHwADC) for typeinfo for cHwADC
    lib.o(.constdata__ZTI16cHwEthernet_EMAC) refers to lib_rtti_impl.o(.constdata__ZTVN10__cxxabiv120__si_class_type_infoE) for vtable for __cxxabiv1::__si_class_type_info
    lib.o(.constdata__ZTI16cHwEthernet_EMAC) refers to lib.o(.constdata__ZTS16cHwEthernet_EMAC) for typeinfo name for cHwEthernet_EMAC
    lib.o(.constdata__ZTI16cHwEthernet_EMAC) refers to lib.o(.constdata__ZTI11cHwEthernet) for typeinfo for cHwEthernet
    lib.o(.constdata__ZTIN12cHwI2Cmaster6DeviceE) refers to lib_rtti_impl.o(.constdata__ZTVN10__cxxabiv117__class_type_infoE) for vtable for __cxxabiv1::__class_type_info
    lib.o(.constdata__ZTIN12cHwI2Cmaster6DeviceE) refers to lib.o(.constdata__ZTSN12cHwI2Cmaster6DeviceE) for typeinfo name for cHwI2Cmaster::Device
    lib.o(.constdata__ZTI15cHwMemory_Flash) refers to lib_rtti_impl.o(.constdata__ZTVN10__cxxabiv120__si_class_type_infoE) for vtable for __cxxabiv1::__si_class_type_info
    lib.o(.constdata__ZTI15cHwMemory_Flash) refers to lib.o(.constdata__ZTS15cHwMemory_Flash) for typeinfo name for cHwMemory_Flash
    lib.o(.constdata__ZTI15cHwMemory_Flash) refers to lib.o(.constdata__ZTI9cHwMemory) for typeinfo for cHwMemory
    lib.o(.constdata__ZTI13cHwMemory_RAM) refers to lib_rtti_impl.o(.constdata__ZTVN10__cxxabiv120__si_class_type_infoE) for vtable for __cxxabiv1::__si_class_type_info
    lib.o(.constdata__ZTI13cHwMemory_RAM) refers to lib.o(.constdata__ZTS13cHwMemory_RAM) for typeinfo name for cHwMemory_RAM
    lib.o(.constdata__ZTI13cHwMemory_RAM) refers to lib.o(.constdata__ZTI9cHwMemory) for typeinfo for cHwMemory
    lib.o(.constdata__ZTI8cHwRTC_0) refers to lib_rtti_impl.o(.constdata__ZTVN10__cxxabiv120__si_class_type_infoE) for vtable for __cxxabiv1::__si_class_type_info
    lib.o(.constdata__ZTI8cHwRTC_0) refers to lib.o(.constdata__ZTS8cHwRTC_0) for typeinfo name for cHwRTC_0
    lib.o(.constdata__ZTI8cHwRTC_0) refers to lib.o(.constdata__ZTI6cHwRTC) for typeinfo for cHwRTC
    lib.o(.constdata__ZTI14cHwSPImaster_0) refers to lib_rtti_impl.o(.constdata__ZTVN10__cxxabiv120__si_class_type_infoE) for vtable for __cxxabiv1::__si_class_type_info
    lib.o(.constdata__ZTI14cHwSPImaster_0) refers to lib.o(.constdata__ZTS14cHwSPImaster_0) for typeinfo name for cHwSPImaster_0
    lib.o(.constdata__ZTI14cHwSPImaster_0) refers to lib.o(.constdata__ZTI12cHwSPImaster) for typeinfo for cHwSPImaster
    lib.o(.constdata__ZTI14cHwSPImaster_1) refers to lib_rtti_impl.o(.constdata__ZTVN10__cxxabiv120__si_class_type_infoE) for vtable for __cxxabiv1::__si_class_type_info
    lib.o(.constdata__ZTI14cHwSPImaster_1) refers to lib.o(.constdata__ZTS14cHwSPImaster_1) for typeinfo name for cHwSPImaster_1
    lib.o(.constdata__ZTI14cHwSPImaster_1) refers to lib.o(.constdata__ZTI12cHwSPImaster) for typeinfo for cHwSPImaster
    lib.o(.constdata__ZTI10cHwTimer_N) refers to lib_rtti_impl.o(.constdata__ZTVN10__cxxabiv120__si_class_type_infoE) for vtable for __cxxabiv1::__si_class_type_info
    lib.o(.constdata__ZTI10cHwTimer_N) refers to lib.o(.constdata__ZTS10cHwTimer_N) for typeinfo name for cHwTimer_N
    lib.o(.constdata__ZTI10cHwTimer_N) refers to lib.o(.constdata__ZTI8cHwTimer) for typeinfo for cHwTimer
    lib.o(.constdata__ZTI14cHwDAC_MAX5308) refers to lib_rtti_impl.o(.constdata__ZTVN10__cxxabiv120__si_class_type_infoE) for vtable for __cxxabiv1::__si_class_type_info
    lib.o(.constdata__ZTI14cHwDAC_MAX5308) refers to lib.o(.constdata__ZTS14cHwDAC_MAX5308) for typeinfo name for cHwDAC_MAX5308
    lib.o(.constdata__ZTI14cHwDAC_MAX5308) refers to lib.o(.constdata__ZTI6cHwDAC) for typeinfo for cHwDAC
    lib.o(.constdata__ZTI14cHwDAC_MCP4441) refers to lib_rtti_impl.o(.constdata__ZTVN10__cxxabiv120__si_class_type_infoE) for vtable for __cxxabiv1::__si_class_type_info
    lib.o(.constdata__ZTI14cHwDAC_MCP4441) refers to lib.o(.constdata__ZTS14cHwDAC_MCP4441) for typeinfo name for cHwDAC_MCP4441
    lib.o(.constdata__ZTI14cHwDAC_MCP4441) refers to lib.o(.constdata__ZTI6cHwDAC) for typeinfo for cHwDAC
    lib.o(.constdata__ZTI14cHwDAC_MCP4922) refers to lib_rtti_impl.o(.constdata__ZTVN10__cxxabiv120__si_class_type_infoE) for vtable for __cxxabiv1::__si_class_type_info
    lib.o(.constdata__ZTI14cHwDAC_MCP4922) refers to lib.o(.constdata__ZTS14cHwDAC_MCP4922) for typeinfo name for cHwDAC_MCP4922
    lib.o(.constdata__ZTI14cHwDAC_MCP4922) refers to lib.o(.constdata__ZTI6cHwDAC) for typeinfo for cHwDAC
    lib.o(.constdata__ZTI14cHwDisp_DIP204) refers to lib_rtti_impl.o(.constdata__ZTVN10__cxxabiv120__si_class_type_infoE) for vtable for __cxxabiv1::__si_class_type_info
    lib.o(.constdata__ZTI14cHwDisp_DIP204) refers to lib.o(.constdata__ZTS14cHwDisp_DIP204) for typeinfo name for cHwDisp_DIP204
    lib.o(.constdata__ZTI14cHwDisp_DIP204) refers to lib.o(.constdata__ZTI10cHwDisplay) for typeinfo for cHwDisplay
    lib.o(.constdata__ZTI17cHwDisp_DIP204spi) refers to lib_rtti_impl.o(.constdata__ZTVN10__cxxabiv120__si_class_type_infoE) for vtable for __cxxabiv1::__si_class_type_info
    lib.o(.constdata__ZTI17cHwDisp_DIP204spi) refers to lib.o(.constdata__ZTS17cHwDisp_DIP204spi) for typeinfo name for cHwDisp_DIP204spi
    lib.o(.constdata__ZTI17cHwDisp_DIP204spi) refers to lib.o(.constdata__ZTI10cHwDisplay) for typeinfo for cHwDisplay
    lib.o(.constdata__ZTI16cHwEEPROM_24C256) refers to lib_rtti_impl.o(.constdata__ZTVN10__cxxabiv120__si_class_type_infoE) for vtable for __cxxabiv1::__si_class_type_info
    lib.o(.constdata__ZTI16cHwEEPROM_24C256) refers to lib.o(.constdata__ZTS16cHwEEPROM_24C256) for typeinfo name for cHwEEPROM_24C256
    lib.o(.constdata__ZTI16cHwEEPROM_24C256) refers to lib.o(.constdata__ZTI9cHwMemory) for typeinfo for cHwMemory
    lib.o(.constdata__ZTI20cHwEthernet_Enc28j60) refers to lib_rtti_impl.o(.constdata__ZTVN10__cxxabiv120__si_class_type_infoE) for vtable for __cxxabiv1::__si_class_type_info
    lib.o(.constdata__ZTI20cHwEthernet_Enc28j60) refers to lib.o(.constdata__ZTS20cHwEthernet_Enc28j60) for typeinfo name for cHwEthernet_Enc28j60
    lib.o(.constdata__ZTI20cHwEthernet_Enc28j60) refers to lib.o(.constdata__ZTI11cHwEthernet) for typeinfo for cHwEthernet
    lib.o(.constdata__ZTI15cHwPort_PCF8574) refers to lib_rtti_impl.o(.constdata__ZTVN10__cxxabiv121__vmi_class_type_infoE) for vtable for __cxxabiv1::__vmi_class_type_info
    lib.o(.constdata__ZTI15cHwPort_PCF8574) refers to lib.o(.constdata__ZTS15cHwPort_PCF8574) for typeinfo name for cHwPort_PCF8574
    lib.o(.constdata__ZTI15cHwPort_PCF8574) refers to lib.o(.constdata__ZTI7cHwPort) for typeinfo for cHwPort
    lib.o(.constdata__ZTI15cHwPort_PCF8574) refers to lib.o(.constdata__ZTIN5cList4ItemE) for typeinfo for cList::Item
    lib.o(.constdata__ZTI14cHwRAM_PCF8583) refers to lib_rtti_impl.o(.constdata__ZTVN10__cxxabiv120__si_class_type_infoE) for vtable for __cxxabiv1::__si_class_type_info
    lib.o(.constdata__ZTI14cHwRAM_PCF8583) refers to lib.o(.constdata__ZTS14cHwRAM_PCF8583) for typeinfo name for cHwRAM_PCF8583
    lib.o(.constdata__ZTI14cHwRAM_PCF8583) refers to lib.o(.constdata__ZTI9cHwMemory) for typeinfo for cHwMemory
    lib.o(.constdata__ZTI14cHwRTC_PCF8583) refers to lib_rtti_impl.o(.constdata__ZTVN10__cxxabiv120__si_class_type_infoE) for vtable for __cxxabiv1::__si_class_type_info
    lib.o(.constdata__ZTI14cHwRTC_PCF8583) refers to lib.o(.constdata__ZTS14cHwRTC_PCF8583) for typeinfo name for cHwRTC_PCF8583
    lib.o(.constdata__ZTI14cHwRTC_PCF8583) refers to lib.o(.constdata__ZTI6cHwRTC) for typeinfo for cHwRTC
    lib.o(.constdata__ZTI16cHwTouch_ADS7846) refers to lib_rtti_impl.o(.constdata__ZTVN10__cxxabiv120__si_class_type_infoE) for vtable for __cxxabiv1::__si_class_type_info
    lib.o(.constdata__ZTI16cHwTouch_ADS7846) refers to lib.o(.constdata__ZTS16cHwTouch_ADS7846) for typeinfo name for cHwTouch_ADS7846
    lib.o(.constdata__ZTI16cHwTouch_ADS7846) refers to lib.o(.constdata__ZTI8cHwTouch) for typeinfo for cHwTouch
    lib.o(.constdata__ZTI20cHwTouch_STMPE811i2c) refers to lib_rtti_impl.o(.constdata__ZTVN10__cxxabiv120__si_class_type_infoE) for vtable for __cxxabiv1::__si_class_type_info
    lib.o(.constdata__ZTI20cHwTouch_STMPE811i2c) refers to lib.o(.constdata__ZTS20cHwTouch_STMPE811i2c) for typeinfo name for cHwTouch_STMPE811i2c
    lib.o(.constdata__ZTI20cHwTouch_STMPE811i2c) refers to lib.o(.constdata__ZTI8cHwTouch) for typeinfo for cHwTouch
    lib.o(.constdata__ZTI8cNetDHCP) refers to lib_rtti_impl.o(.constdata__ZTVN10__cxxabiv120__si_class_type_infoE) for vtable for __cxxabiv1::__si_class_type_info
    lib.o(.constdata__ZTI8cNetDHCP) refers to lib.o(.constdata__ZTS8cNetDHCP) for typeinfo name for cNetDHCP
    lib.o(.constdata__ZTI8cNetDHCP) refers to lib.o(.constdata__ZTI15cNetApplication) for typeinfo for cNetApplication
    lib.o(.constdata__ZTI15cDevAnalogInADC) refers to lib_rtti_impl.o(.constdata__ZTVN10__cxxabiv120__si_class_type_infoE) for vtable for __cxxabiv1::__si_class_type_info
    lib.o(.constdata__ZTI15cDevAnalogInADC) refers to lib.o(.constdata__ZTS15cDevAnalogInADC) for typeinfo name for cDevAnalogInADC
    lib.o(.constdata__ZTI15cDevAnalogInADC) refers to lib.o(.constdata__ZTI12cDevAnalogIn) for typeinfo for cDevAnalogIn
    lib.o(.constdata__ZTI16cDevAnalogOutDAC) refers to lib_rtti_impl.o(.constdata__ZTVN10__cxxabiv120__si_class_type_infoE) for vtable for __cxxabiv1::__si_class_type_info
    lib.o(.constdata__ZTI16cDevAnalogOutDAC) refers to lib.o(.constdata__ZTS16cDevAnalogOutDAC) for typeinfo name for cDevAnalogOutDAC
    lib.o(.constdata__ZTI16cDevAnalogOutDAC) refers to lib.o(.constdata__ZTI13cDevAnalogOut) for typeinfo for cDevAnalogOut
    lib.o(.constdata__ZTI16cDevAnalogOutPWM) refers to lib_rtti_impl.o(.constdata__ZTVN10__cxxabiv120__si_class_type_infoE) for vtable for __cxxabiv1::__si_class_type_info
    lib.o(.constdata__ZTI16cDevAnalogOutPWM) refers to lib.o(.constdata__ZTS16cDevAnalogOutPWM) for typeinfo name for cDevAnalogOutPWM
    lib.o(.constdata__ZTI16cDevAnalogOutPWM) refers to lib.o(.constdata__ZTI13cDevAnalogOut) for typeinfo for cDevAnalogOut
    lib.o(.constdata__ZTI20cDevAnalogOutPWMemul) refers to lib_rtti_impl.o(.constdata__ZTVN10__cxxabiv121__vmi_class_type_infoE) for vtable for __cxxabiv1::__vmi_class_type_info
    lib.o(.constdata__ZTI20cDevAnalogOutPWMemul) refers to lib.o(.constdata__ZTS20cDevAnalogOutPWMemul) for typeinfo name for cDevAnalogOutPWMemul
    lib.o(.constdata__ZTI20cDevAnalogOutPWMemul) refers to lib.o(.constdata__ZTI13cDevAnalogOut) for typeinfo for cDevAnalogOut
    lib.o(.constdata__ZTI20cDevAnalogOutPWMemul) refers to lib.o(.constdata__ZTIN5cList4ItemE) for typeinfo for cList::Item
    lib.o(.constdata__ZTI15cDevDisplayChar) refers to lib_rtti_impl.o(.constdata__ZTVN10__cxxabiv120__si_class_type_infoE) for vtable for __cxxabiv1::__si_class_type_info
    lib.o(.constdata__ZTI15cDevDisplayChar) refers to lib.o(.constdata__ZTS15cDevDisplayChar) for typeinfo name for cDevDisplayChar
    lib.o(.constdata__ZTI15cDevDisplayChar) refers to lib.o(.constdata__ZTI11cDevDisplay) for typeinfo for cDevDisplay
    lib.o(.constdata__ZTI26cDevControlEncoderJoystick) refers to lib_rtti_impl.o(.constdata__ZTVN10__cxxabiv120__si_class_type_infoE) for vtable for __cxxabiv1::__si_class_type_info
    lib.o(.constdata__ZTI26cDevControlEncoderJoystick) refers to lib.o(.constdata__ZTS26cDevControlEncoderJoystick) for typeinfo name for cDevControlEncoderJoystick
    lib.o(.constdata__ZTI26cDevControlEncoderJoystick) refers to lib.o(.constdata__ZTI18cDevControlEncoder) for typeinfo for cDevControlEncoder
    lib.o(.constdata__ZTI28cDevControlEncoderRotaryKnob) refers to lib_rtti_impl.o(.constdata__ZTVN10__cxxabiv120__si_class_type_infoE) for vtable for __cxxabiv1::__si_class_type_info
    lib.o(.constdata__ZTI28cDevControlEncoderRotaryKnob) refers to lib.o(.constdata__ZTS28cDevControlEncoderRotaryKnob) for typeinfo name for cDevControlEncoderRotaryKnob
    lib.o(.constdata__ZTI28cDevControlEncoderRotaryKnob) refers to lib.o(.constdata__ZTI18cDevControlEncoder) for typeinfo for cDevControlEncoder
    lib.o(.constdata__ZTI18cDevControlPointer) refers to lib_rtti_impl.o(.constdata__ZTVN10__cxxabiv117__class_type_infoE) for vtable for __cxxabiv1::__class_type_info
    lib.o(.constdata__ZTI18cDevControlPointer) refers to lib.o(.constdata__ZTS18cDevControlPointer) for typeinfo name for cDevControlPointer
    lib.o(.constdata__ZTIN12cTaskHandler5TimerE) refers to lib_rtti_impl.o(.constdata__ZTVN10__cxxabiv120__si_class_type_infoE) for vtable for __cxxabiv1::__si_class_type_info
    lib.o(.constdata__ZTIN12cTaskHandler5TimerE) refers to lib.o(.constdata__ZTSN12cTaskHandler5TimerE) for typeinfo name for cTaskHandler::Timer
    lib.o(.constdata__ZTIN12cTaskHandler5TimerE) refers to lib.o(.constdata__ZTI6cTimer) for typeinfo for cTimer
    lib.o(.constdata__ZTI7cHwPort) refers to lib_rtti_impl.o(.constdata__ZTVN10__cxxabiv117__class_type_infoE) for vtable for __cxxabiv1::__class_type_info
    lib.o(.constdata__ZTI7cHwPort) refers to lib.o(.constdata__ZTS7cHwPort) for typeinfo name for cHwPort
    lib.o(.constdata__ZTIN7cHwPort3PinE) refers to lib_rtti_impl.o(.constdata__ZTVN10__cxxabiv117__class_type_infoE) for vtable for __cxxabiv1::__class_type_info
    lib.o(.constdata__ZTIN7cHwPort3PinE) refers to lib.o(.constdata__ZTSN7cHwPort3PinE) for typeinfo name for cHwPort::Pin
    lib.o(.constdata__ZTI9cHwMemory) refers to lib_rtti_impl.o(.constdata__ZTVN10__cxxabiv117__class_type_infoE) for vtable for __cxxabiv1::__class_type_info
    lib.o(.constdata__ZTI9cHwMemory) refers to lib.o(.constdata__ZTS9cHwMemory) for typeinfo name for cHwMemory
    lib.o(.constdata__ZTI15cNetApplication) refers to lib_rtti_impl.o(.constdata__ZTVN10__cxxabiv120__si_class_type_infoE) for vtable for __cxxabiv1::__si_class_type_info
    lib.o(.constdata__ZTI15cNetApplication) refers to lib.o(.constdata__ZTS15cNetApplication) for typeinfo name for cNetApplication
    lib.o(.constdata__ZTI15cNetApplication) refers to lib.o(.constdata__ZTIN5cList4ItemE) for typeinfo for cList::Item
    lib.o(.constdata__ZTI12cHwSPImaster) refers to lib_rtti_impl.o(.constdata__ZTVN10__cxxabiv117__class_type_infoE) for vtable for __cxxabiv1::__class_type_info
    lib.o(.constdata__ZTI12cHwSPImaster) refers to lib.o(.constdata__ZTS12cHwSPImaster) for typeinfo name for cHwSPImaster
    lib.o(.constdata__ZTI12cHwUSBinterf) refers to lib_rtti_impl.o(.constdata__ZTVN10__cxxabiv117__class_type_infoE) for vtable for __cxxabiv1::__class_type_info
    lib.o(.constdata__ZTI12cHwUSBinterf) refers to lib.o(.constdata__ZTS12cHwUSBinterf) for typeinfo name for cHwUSBinterf
    lib.o(.constdata__ZTI14cHwI2Cmaster_N) refers to lib_rtti_impl.o(.constdata__ZTVN10__cxxabiv120__si_class_type_infoE) for vtable for __cxxabiv1::__si_class_type_info
    lib.o(.constdata__ZTI14cHwI2Cmaster_N) refers to lib.o(.constdata__ZTS14cHwI2Cmaster_N) for typeinfo name for cHwI2Cmaster_N
    lib.o(.constdata__ZTI14cHwI2Cmaster_N) refers to lib.o(.constdata__ZTI12cHwI2Cmaster) for typeinfo for cHwI2Cmaster
    lib.o(.constdata__ZTI12cDevAnalogIn) refers to lib_rtti_impl.o(.constdata__ZTVN10__cxxabiv121__vmi_class_type_infoE) for vtable for __cxxabiv1::__vmi_class_type_info
    lib.o(.constdata__ZTI12cDevAnalogIn) refers to lib.o(.constdata__ZTS12cDevAnalogIn) for typeinfo name for cDevAnalogIn
    lib.o(.constdata__ZTI12cDevAnalogIn) refers to lib.o(.constdata__ZTI10cDevAnalog) for typeinfo for cDevAnalog
    lib.o(.constdata__ZTI6cHwDAC) refers to lib_rtti_impl.o(.constdata__ZTVN10__cxxabiv117__class_type_infoE) for vtable for __cxxabiv1::__class_type_info
    lib.o(.constdata__ZTI6cHwDAC) refers to lib.o(.constdata__ZTS6cHwDAC) for typeinfo name for cHwDAC
    lib.o(.constdata__ZTI10cHwDisplay) refers to lib_rtti_impl.o(.constdata__ZTVN10__cxxabiv117__class_type_infoE) for vtable for __cxxabiv1::__class_type_info
    lib.o(.constdata__ZTI10cHwDisplay) refers to lib.o(.constdata__ZTS10cHwDisplay) for typeinfo name for cHwDisplay
    lib.o(.constdata__ZTI8cHwTouch) refers to lib_rtti_impl.o(.constdata__ZTVN10__cxxabiv117__class_type_infoE) for vtable for __cxxabiv1::__class_type_info
    lib.o(.constdata__ZTI8cHwTouch) refers to lib.o(.constdata__ZTS8cHwTouch) for typeinfo name for cHwTouch
    lib.o(.constdata__ZTIN5cList4ItemE) refers to lib_rtti_impl.o(.constdata__ZTVN10__cxxabiv117__class_type_infoE) for vtable for __cxxabiv1::__class_type_info
    lib.o(.constdata__ZTIN5cList4ItemE) refers to lib.o(.constdata__ZTSN5cList4ItemE) for typeinfo name for cList::Item
    lib.o(.constdata__ZTI6cTimer) refers to lib_rtti_impl.o(.constdata__ZTVN10__cxxabiv117__class_type_infoE) for vtable for __cxxabiv1::__class_type_info
    lib.o(.constdata__ZTI6cTimer) refers to lib.o(.constdata__ZTS6cTimer) for typeinfo name for cTimer
    lib.o(.constdata__ZTI8cHwDAC_0) refers to lib_rtti_impl.o(.constdata__ZTVN10__cxxabiv120__si_class_type_infoE) for vtable for __cxxabiv1::__si_class_type_info
    lib.o(.constdata__ZTI8cHwDAC_0) refers to lib.o(.constdata__ZTS8cHwDAC_0) for typeinfo name for cHwDAC_0
    lib.o(.constdata__ZTI8cHwDAC_0) refers to lib.o(.constdata__ZTI6cHwDAC) for typeinfo for cHwDAC
    lib.o(.constdata__ZTI6cHwRTC) refers to lib_rtti_impl.o(.constdata__ZTVN10__cxxabiv117__class_type_infoE) for vtable for __cxxabiv1::__class_type_info
    lib.o(.constdata__ZTI6cHwRTC) refers to lib.o(.constdata__ZTS6cHwRTC) for typeinfo name for cHwRTC
    lib.o(.constdata__ZTI13cHwDAC_MAX521) refers to lib_rtti_impl.o(.constdata__ZTVN10__cxxabiv120__si_class_type_infoE) for vtable for __cxxabiv1::__si_class_type_info
    lib.o(.constdata__ZTI13cHwDAC_MAX521) refers to lib.o(.constdata__ZTS13cHwDAC_MAX521) for typeinfo name for cHwDAC_MAX521
    lib.o(.constdata__ZTI13cHwDAC_MAX521) refers to lib.o(.constdata__ZTI6cHwDAC) for typeinfo for cHwDAC
    lib.o(.constdata__ZTI16cHwDisp_Terminal) refers to lib_rtti_impl.o(.constdata__ZTVN10__cxxabiv120__si_class_type_infoE) for vtable for __cxxabiv1::__si_class_type_info
    lib.o(.constdata__ZTI16cHwDisp_Terminal) refers to lib.o(.constdata__ZTS16cHwDisp_Terminal) for typeinfo name for cHwDisp_Terminal
    lib.o(.constdata__ZTI16cHwDisp_Terminal) refers to lib.o(.constdata__ZTI10cHwDisplay) for typeinfo for cHwDisplay
    lib.o(.constdata__ZTIN6cNetIP13cTimeOutTimerE) refers to lib_rtti_impl.o(.constdata__ZTVN10__cxxabiv120__si_class_type_infoE) for vtable for __cxxabiv1::__si_class_type_info
    lib.o(.constdata__ZTIN6cNetIP13cTimeOutTimerE) refers to lib.o(.constdata__ZTSN6cNetIP13cTimeOutTimerE) for typeinfo name for cNetIP::cTimeOutTimer
    lib.o(.constdata__ZTIN6cNetIP13cTimeOutTimerE) refers to lib.o(.constdata__ZTIN5cList4ItemE) for typeinfo for cList::Item
    lib.o(.constdata__ZTI17cHwSensMag_LSM303) refers to lib_rtti_impl.o(.constdata__ZTVN10__cxxabiv117__class_type_infoE) for vtable for __cxxabiv1::__class_type_info
    lib.o(.constdata__ZTI17cHwSensMag_LSM303) refers to lib.o(.constdata__ZTS17cHwSensMag_LSM303) for typeinfo name for cHwSensMag_LSM303
    lib.o(.constdata__ZTI18cHwSensGyro_L3GD20) refers to lib_rtti_impl.o(.constdata__ZTVN10__cxxabiv117__class_type_infoE) for vtable for __cxxabiv1::__class_type_info
    lib.o(.constdata__ZTI18cHwSensGyro_L3GD20) refers to lib.o(.constdata__ZTS18cHwSensGyro_L3GD20) for typeinfo name for cHwSensGyro_L3GD20
    lib.o(.constdata__ZTI17cHwSensAcc_LSM303) refers to lib_rtti_impl.o(.constdata__ZTVN10__cxxabiv117__class_type_infoE) for vtable for __cxxabiv1::__class_type_info
    lib.o(.constdata__ZTI17cHwSensAcc_LSM303) refers to lib.o(.constdata__ZTS17cHwSensAcc_LSM303) for typeinfo name for cHwSensAcc_LSM303
    lib.o(.constdata__ZTI11cDevDisplay) refers to lib_rtti_impl.o(.constdata__ZTVN10__cxxabiv117__class_type_infoE) for vtable for __cxxabiv1::__class_type_info
    lib.o(.constdata__ZTI11cDevDisplay) refers to lib.o(.constdata__ZTS11cDevDisplay) for typeinfo name for cDevDisplay
    lib.o(.constdata__ZTI15cDevTextIO_UART) refers to lib_rtti_impl.o(.constdata__ZTVN10__cxxabiv120__si_class_type_infoE) for vtable for __cxxabiv1::__si_class_type_info
    lib.o(.constdata__ZTI15cDevTextIO_UART) refers to lib.o(.constdata__ZTS15cDevTextIO_UART) for typeinfo name for cDevTextIO_UART
    lib.o(.constdata__ZTI15cDevTextIO_UART) refers to lib.o(.constdata__ZTI10cDevTextIO) for typeinfo for cDevTextIO
    lib.o(.constdata__ZTIN12cTaskHandler4TaskE) refers to lib_rtti_impl.o(.constdata__ZTVN10__cxxabiv120__si_class_type_infoE) for vtable for __cxxabiv1::__si_class_type_info
    lib.o(.constdata__ZTIN12cTaskHandler4TaskE) refers to lib.o(.constdata__ZTSN12cTaskHandler4TaskE) for typeinfo name for cTaskHandler::Task
    lib.o(.constdata__ZTIN12cTaskHandler4TaskE) refers to lib.o(.constdata__ZTIN5cList4ItemE) for typeinfo for cList::Item
    lib.o(.constdata__ZTI10cDevAnalog) refers to lib_rtti_impl.o(.constdata__ZTVN10__cxxabiv117__class_type_infoE) for vtable for __cxxabiv1::__class_type_info
    lib.o(.constdata__ZTI10cDevAnalog) refers to lib.o(.constdata__ZTS10cDevAnalog) for typeinfo name for cDevAnalog
    lib.o(.ARM.exidx) refers to lib.o(i._ZN5cList4Item6updateEv) for i._ZN5cList4Item6updateEv
    lib.o(.ARM.exidx) refers to lib.o(i._ZN8cHwDAC_03setEth) for i._ZN8cHwDAC_03setEth
    lib.o(.ARM.exidx) refers to lib.o(i._ZN8cHwDAC_06enableEh) for i._ZN8cHwDAC_06enableEh
    lib.o(.ARM.exidx) refers to lib.o(i._ZN14cHwI2Cmaster_N11waitForAcknEh) for i._ZN14cHwI2Cmaster_N11waitForAcknEh
    lib.o(.ARM.exidx) refers to lib.o(i._ZN14cHwI2Cmaster_N5startEv) for i._ZN14cHwI2Cmaster_N5startEv
    lib.o(.ARM.exidx) refers to lib.o(i._ZN14cHwI2Cmaster_N4stopEv) for i._ZN14cHwI2Cmaster_N4stopEv
    lib.o(.ARM.exidx) refers to lib.o(i._ZN14cHwI2Cmaster_N8sendAddrEh) for i._ZN14cHwI2Cmaster_N8sendAddrEh
    lib.o(.ARM.exidx) refers to lib.o(i._ZN14cHwI2Cmaster_N9writeByteEh) for i._ZN14cHwI2Cmaster_N9writeByteEh
    lib.o(.ARM.exidx) refers to lib.o(i._ZN14cHwI2Cmaster_N11readByteAckEv) for i._ZN14cHwI2Cmaster_N11readByteAckEv
    lib.o(.ARM.exidx) refers to lib.o(i._ZN14cHwI2Cmaster_N12readByteNackEv) for i._ZN14cHwI2Cmaster_N12readByteNackEv
    lib.o(i._ZN12cHwUSBinterf13GetDescriptorEt) refers to lib.o(i._ZN12cDataPointerC1Ev) for cDataPointer::cDataPointer()
    lib.o(.ARM.exidx) refers to lib.o(i._ZN12cHwUSBinterf13GetDescriptorEt) for i._ZN12cHwUSBinterf13GetDescriptorEt
    lib.o(.ARM.exidx) refers to lib.o(i._ZN12cHwUSBinterf10clrFeatureEv) for i._ZN12cHwUSBinterf10clrFeatureEv
    lib.o(.ARM.exidx) refers to lib.o(i._ZN12cHwUSBinterf10setFeatureEv) for i._ZN12cHwUSBinterf10setFeatureEv
    lib.o(i._ZN13cHwDAC_MAX5213setEth) refers to lib.o(i._ZN12cHwI2Cmaster6Device5writeEhh) for cHwI2Cmaster::Device::write(unsigned char, unsigned char)
    lib.o(.ARM.exidx) refers to lib.o(i._ZN13cHwDAC_MAX5213setEth) for i._ZN13cHwDAC_MAX5213setEth
    lib.o(.ARM.exidx) refers to lib.o(i._ZN13cHwDAC_MAX5216enableEh) for i._ZN13cHwDAC_MAX5216enableEh
    lib.o(i._ZN16cHwDisp_Terminal11gotoTextPosEhh) refers to _printf_pad.o(.text) for _printf_pre_padding
    lib.o(i._ZN16cHwDisp_Terminal11gotoTextPosEhh) refers to _printf_percent.o(.ARM.Collect$$_printf_percent$$00000000) for _printf_percent
    lib.o(i._ZN16cHwDisp_Terminal11gotoTextPosEhh) refers to _printf_d.o(.ARM.Collect$$_printf_percent$$00000009) for _printf_d
    lib.o(i._ZN16cHwDisp_Terminal11gotoTextPosEhh) refers to _printf_dec.o(.text) for _printf_int_dec
    lib.o(i._ZN16cHwDisp_Terminal11gotoTextPosEhh) refers to __2sprintf.o(.text) for __2sprintf
    lib.o(i._ZN16cHwDisp_Terminal11gotoTextPosEhh) refers to lib.o(i._ZN16cHwDisp_Terminal7sendESCEPKc) for cHwDisp_Terminal::sendESC(const char*)
    lib.o(.ARM.exidx) refers to lib.o(i._ZN16cHwDisp_Terminal11gotoTextPosEhh) for i._ZN16cHwDisp_Terminal11gotoTextPosEhh
    lib.o(.ARM.exidx) refers to lib.o(i._ZN16cHwDisp_Terminal7putCharEc) for i._ZN16cHwDisp_Terminal7putCharEc
    lib.o(.ARM.exidx) refers to lib.o(i._ZN6cNetIP13cTimeOutTimer6updateEv) for i._ZN6cNetIP13cTimeOutTimer6updateEv
    lib.o(i._ZN17cHwSensMag_LSM3034getXEv) refers to lib.o(i._ZN17cHwSensMag_LSM3038readWordEh) for cHwSensMag_LSM303::readWord(unsigned char)
    lib.o(.ARM.exidx) refers to lib.o(i._ZN17cHwSensMag_LSM3034getXEv) for i._ZN17cHwSensMag_LSM3034getXEv
    lib.o(i._ZN17cHwSensMag_LSM3034getYEv) refers to lib.o(i._ZN17cHwSensMag_LSM3038readWordEh) for cHwSensMag_LSM303::readWord(unsigned char)
    lib.o(.ARM.exidx) refers to lib.o(i._ZN17cHwSensMag_LSM3034getYEv) for i._ZN17cHwSensMag_LSM3034getYEv
    lib.o(i._ZN17cHwSensMag_LSM3034getZEv) refers to lib.o(i._ZN17cHwSensMag_LSM3038readWordEh) for cHwSensMag_LSM303::readWord(unsigned char)
    lib.o(.ARM.exidx) refers to lib.o(i._ZN17cHwSensMag_LSM3034getZEv) for i._ZN17cHwSensMag_LSM3034getZEv
    lib.o(i._ZN18cHwSensGyro_L3GD204getXEv) refers to lib.o(i._ZN18cHwSensGyro_L3GD208readWordEh) for cHwSensGyro_L3GD20::readWord(unsigned char)
    lib.o(.ARM.exidx) refers to lib.o(i._ZN18cHwSensGyro_L3GD204getXEv) for i._ZN18cHwSensGyro_L3GD204getXEv
    lib.o(i._ZN18cHwSensGyro_L3GD204getYEv) refers to lib.o(i._ZN18cHwSensGyro_L3GD208readWordEh) for cHwSensGyro_L3GD20::readWord(unsigned char)
    lib.o(.ARM.exidx) refers to lib.o(i._ZN18cHwSensGyro_L3GD204getYEv) for i._ZN18cHwSensGyro_L3GD204getYEv
    lib.o(i._ZN18cHwSensGyro_L3GD204getZEv) refers to lib.o(i._ZN18cHwSensGyro_L3GD208readWordEh) for cHwSensGyro_L3GD20::readWord(unsigned char)
    lib.o(.ARM.exidx) refers to lib.o(i._ZN18cHwSensGyro_L3GD204getZEv) for i._ZN18cHwSensGyro_L3GD204getZEv
    lib.o(i._ZN17cHwSensAcc_LSM3034getXEv) refers to lib.o(i._ZN17cHwSensAcc_LSM3038readWordEh) for cHwSensAcc_LSM303::readWord(unsigned char)
    lib.o(.ARM.exidx) refers to lib.o(i._ZN17cHwSensAcc_LSM3034getXEv) for i._ZN17cHwSensAcc_LSM3034getXEv
    lib.o(i._ZN17cHwSensAcc_LSM3034getYEv) refers to lib.o(i._ZN17cHwSensAcc_LSM3038readWordEh) for cHwSensAcc_LSM303::readWord(unsigned char)
    lib.o(.ARM.exidx) refers to lib.o(i._ZN17cHwSensAcc_LSM3034getYEv) for i._ZN17cHwSensAcc_LSM3034getYEv
    lib.o(i._ZN17cHwSensAcc_LSM3034getZEv) refers to lib.o(i._ZN17cHwSensAcc_LSM3038readWordEh) for cHwSensAcc_LSM303::readWord(unsigned char)
    lib.o(.ARM.exidx) refers to lib.o(i._ZN17cHwSensAcc_LSM3034getZEv) for i._ZN17cHwSensAcc_LSM3034getZEv
    lib.o(.ARM.exidx) refers to lib.o(i._ZN15cDevTextIO_UART3setEPhh) for i._ZN15cDevTextIO_UART3setEPhh
    lib.o(.ARM.exidx) refers to lib.o(i._ZN15cDevTextIO_UART3getEPh) for i._ZN15cDevTextIO_UART3getEPh
    rtos.o(.constdata__ZTVN5cRTOS4TaskE) refers to rtos.o(.constdata__ZTIN5cRTOS4TaskE) for typeinfo for cRTOS::Task
    rtos.o(.constdata__ZTVN5cRTOS4TaskE) refers to rtos.o(i._ZN5cRTOS4TaskD2Ev) for cRTOS::Task::~Task__sub_object()
    rtos.o(.constdata__ZTVN5cRTOS4TaskE) refers to rtos.o(i._ZN5cRTOS4TaskD0Ev) for cRTOS::Task::~Task__deallocating()
    rtos.o(.constdata__ZTVN5cRTOS4TaskE) refers to rtos.o(i._ZN5cRTOS4Task4StopEv) for cRTOS::Task::Stop()
    rtos.o(.constdata__ZTVN5cRTOS4TaskE) refers to rtos.o(i._ZN5cRTOS4Task5PauseEt) for cRTOS::Task::Pause(unsigned short)
    rtos.o(.constdata__ZTVN5cRTOS4TaskE) refers to rtos.o(i._ZN5cRTOS4Task5StartEv) for cRTOS::Task::Start()
    rtos.o(.constdata__ZTVN5cRTOS4TaskE) refers to rtos.o(i._ZN5cRTOS4Task6FinishEv) for cRTOS::Task::Finish()
    rtos.o(.constdata__ZTVN5cRTOS4TaskE) refers to rtos.o(i._ZN5cRTOS4Task8isActiveEv) for cRTOS::Task::isActive()
    rtos.o(.constdata__ZTVN5cRTOS4TaskE) refers to lib.o(i.__cxa_pure_virtual) for __cxa_pure_virtual
    rtos.o(.constdata__ZTVN5cRTOS4TaskE) refers to rtos.o(i._ZN5cRTOS4Task7OnStartEv) for cRTOS::Task::OnStart()
    rtos.o(.constdata__ZTVN5cRTOS4TaskE) refers to rtos.o(i._ZN5cRTOS4Task6OnStopEv) for cRTOS::Task::OnStop()
    rtos.o(.constdata__ZTVN5cRTOS5TimerE) refers to rtos.o(.constdata__ZTIN5cRTOS5TimerE) for typeinfo for cRTOS::Timer
    rtos.o(.constdata__ZTVN5cRTOS5TimerE) refers to rtos.o(i._ZN5cRTOS5Timer7getTicsEv) for cRTOS::Timer::getTics()
    rtos.o(.constdata__ZTVN5cRTOS5TimerE) refers to rtos.o(i._ZN5cRTOS5Timer12getTimeOfTicEv) for cRTOS::Timer::getTimeOfTic()
    rtos.o(i._ZN11cHwRTOS_MCU10getSysTimeEv) refers to lludivv7m.o(.text) for __aeabi_uldivmod
    rtos.o(i._ZN11cHwRTOS_MCU10getSysTimeEv) refers to lib.o(.data) for cHwRTOS_MCU::sysTic
    rtos.o(.ARM.exidx) refers to rtos.o(i._ZN11cHwRTOS_MCU10getSysTimeEv) for i._ZN11cHwRTOS_MCU10getSysTimeEv
    rtos.o(i._ZdlPv) refers to h1_free.o(.text) for free
    rtos.o(.ARM.exidx) refers to rtos.o(i._ZdlPv) for i._ZdlPv
    rtos.o(i._ZN11cHwRTOS_MCU5startEPcjPvPFjS1_E) refers to rtos.o(i._ZN11cHwRTOS_MCU11del_processEv) for cHwRTOS_MCU::del_process()
    rtos.o(.ARM.exidx) refers to rtos.o(i._ZN11cHwRTOS_MCU5startEPcjPvPFjS1_E) for i._ZN11cHwRTOS_MCU5startEPcjPvPFjS1_E
    rtos.o(.ARM.exidx) refers to rtos.o(i._ZN5cRTOS4Task8isActiveEv) for i._ZN5cRTOS4Task8isActiveEv
    rtos.o(.ARM.exidx) refers to rtos.o(i._ZN5cRTOS4Task7OnStartEv) for i._ZN5cRTOS4Task7OnStartEv
    rtos.o(.ARM.exidx) refers to rtos.o(i._ZN5cRTOS4Task6OnStopEv) for i._ZN5cRTOS4Task6OnStopEv
    rtos.o(.ARM.exidx) refers to rtos.o(i._ZN11cHwRTOS_MCU11del_processEv) for i._ZN11cHwRTOS_MCU11del_processEv
    rtos.o(.constdata__ZTV5cRTOS) refers to rtos.o(.constdata__ZTI5cRTOS) for typeinfo for cRTOS
    rtos.o(.constdata__ZTV5cRTOS) refers to lib.o(i.__cxa_pure_virtual) for __cxa_pure_virtual
    rtos.o(.constdata__ZTIN5cRTOS4TaskE) refers to lib_rtti_impl.o(.constdata__ZTVN10__cxxabiv117__class_type_infoE) for vtable for __cxxabiv1::__class_type_info
    rtos.o(.constdata__ZTIN5cRTOS4TaskE) refers to rtos.o(.constdata__ZTSN5cRTOS4TaskE) for typeinfo name for cRTOS::Task
    rtos.o(.constdata__ZTIN5cRTOS5TimerE) refers to lib_rtti_impl.o(.constdata__ZTVN10__cxxabiv120__si_class_type_infoE) for vtable for __cxxabiv1::__si_class_type_info
    rtos.o(.constdata__ZTIN5cRTOS5TimerE) refers to rtos.o(.constdata__ZTSN5cRTOS5TimerE) for typeinfo name for cRTOS::Timer
    rtos.o(.constdata__ZTIN5cRTOS5TimerE) refers to lib.o(.constdata__ZTI6cTimer) for typeinfo for cTimer
    rtos.o(.constdata__ZTI5cRTOS) refers to lib_rtti_impl.o(.constdata__ZTVN10__cxxabiv117__class_type_infoE) for vtable for __cxxabiv1::__class_type_info
    rtos.o(.constdata__ZTI5cRTOS) refers to rtos.o(.constdata__ZTS5cRTOS) for typeinfo name for cRTOS
    main.o(.ARM.exidx) refers to main.o(i._ZN4RectC1Eiiii) for i._ZN4RectC1Eiiii
    main.o(i._ZN3GUI11getInstanceEv) refers to cxa_guard_acquire.o(i.__cxa_guard_acquire) for __cxa_guard_acquire
    main.o(i._ZN3GUI11getInstanceEv) refers to main.o(.data__ZZN3GUI11getInstanceEvE8instance) for guard variable for GUI::getInstance()::instance
    main.o(.ARM.exidx) refers to main.o(i._ZN3GUI11getInstanceEv) for i._ZN3GUI11getInstanceEv
    main.o(i._ZN3GUI8drawRectE4Rectt) refers to main.o(i._ZN3GUI11getInstanceEv) for GUI::getInstance()
    main.o(.ARM.exidx) refers to main.o(i._ZN3GUI8drawRectE4Rectt) for i._ZN3GUI8drawRectE4Rectt
    main.o(i._ZN12cHwSPImaster6DeviceC1ERS_R7cHwPorth) refers to lib.o(i._ZN7cHwPort3PinC1ERS_h) for cHwPort::Pin::Pin(cHwPort&, unsigned char)
    main.o(i._ZN12cHwSPImaster6DeviceC1ERS_R7cHwPorth) refers to lib.o(.constdata__ZTVN12cHwSPImaster6DeviceE) for vtable for cHwSPImaster::Device
    main.o(.ARM.exidx) refers to main.o(i._ZN12cHwSPImaster6DeviceC1ERS_R7cHwPorth) for i._ZN12cHwSPImaster6DeviceC1ERS_R7cHwPorth
    main.o(i._ZN12TimerHandlerC1Ev) refers to lib.o(i._ZN5cList4ItemC1EPS_) for cList::Item::Item(cList*)
    main.o(i._ZN12TimerHandlerC1Ev) refers to fmul.o(x$fpl$fmul) for __aeabi_fmul
    main.o(i._ZN12TimerHandlerC1Ev) refers to fdiv.o(x$fpl$fdiv) for __aeabi_fdiv
    main.o(i._ZN12TimerHandlerC1Ev) refers to expf.o(i.expf) for expf
    main.o(i._ZN12TimerHandlerC1Ev) refers to faddsub_clz.o(x$fpl$fsub) for __aeabi_fsub
    main.o(i._ZN12TimerHandlerC1Ev) refers to main.o(.constdata__ZTV12TimerHandler) for vtable for TimerHandler
    main.o(.ARM.exidx) refers to main.o(i._ZN12TimerHandlerC1Ev) for i._ZN12TimerHandlerC1Ev
    main.o(.constdata__ZTV12TimerHandler) refers to main.o(.constdata__ZTI12TimerHandler) for typeinfo for TimerHandler
    main.o(.constdata__ZTV12TimerHandler) refers to main.o(i._ZN12TimerHandler6updateEv) for TimerHandler::update()
    main.o(.constdata__ZTI12TimerHandler) refers to lib_rtti_impl.o(.constdata__ZTVN10__cxxabiv120__si_class_type_infoE) for vtable for __cxxabiv1::__si_class_type_info
    main.o(.constdata__ZTI12TimerHandler) refers to main.o(.constdata__ZTS12TimerHandler) for typeinfo name for TimerHandler
    main.o(.constdata__ZTI12TimerHandler) refers to lib.o(.constdata__ZTIN5cList4ItemE) for typeinfo for cList::Item
    main.o(i._ZN12TimerHandler6updateEv) refers to lib.o(i._ZN6cHwADC3getEh) for cHwADC::get(unsigned char)
    main.o(i._ZN12TimerHandler6updateEv) refers to fflt_clz.o(x$fpl$ffltu) for __aeabi_ui2f
    main.o(i._ZN12TimerHandler6updateEv) refers to fdiv.o(x$fpl$fdiv) for __aeabi_fdiv
    main.o(i._ZN12TimerHandler6updateEv) refers to fmul.o(x$fpl$fmul) for __aeabi_fmul
    main.o(i._ZN12TimerHandler6updateEv) refers to faddsub_clz.o(x$fpl$fadd) for __aeabi_fadd
    main.o(i._ZN12TimerHandler6updateEv) refers to fleqf.o(x$fpl$fleqf) for __aeabi_cfcmple
    main.o(i._ZN12TimerHandler6updateEv) refers to frleqf.o(x$fpl$frleqf) for __aeabi_cfrcmple
    main.o(i._ZN12TimerHandler6updateEv) refers to main.o(.bss) for adc0
    main.o(.ARM.exidx) refers to main.o(i._ZN12TimerHandler6updateEv) for i._ZN12TimerHandler6updateEv
    lib_rtti_impl.o(.constdata__ZTVN10__cxxabiv123__fundamental_type_infoE) refers to lib_rtti_impl.o(.constdata__ZTIN10__cxxabiv123__fundamental_type_infoE) for typeinfo for __cxxabiv1::__fundamental_type_info
    lib_rtti_impl.o(.constdata__ZTVN10__cxxabiv123__fundamental_type_infoE) refers to lib_rtti_impl.o(i._ZN10__cxxabiv123__fundamental_type_infoD1Ev) for __cxxabiv1::__fundamental_type_info::~__fundamental_type_info()
    lib_rtti_impl.o(.constdata__ZTVN10__cxxabiv123__fundamental_type_infoE) refers to lib_rtti_impl.o(i._ZN10__cxxabiv123__fundamental_type_infoD0Ev) for __cxxabiv1::__fundamental_type_info::~__fundamental_type_info__deallocating()
    lib_rtti_impl.o(.constdata__ZTVN10__cxxabiv117__array_type_infoE) refers to lib_rtti_impl.o(.constdata__ZTIN10__cxxabiv117__array_type_infoE) for typeinfo for __cxxabiv1::__array_type_info
    lib_rtti_impl.o(.constdata__ZTVN10__cxxabiv117__array_type_infoE) refers to lib_rtti_impl.o(i._ZN10__cxxabiv117__array_type_infoD1Ev) for __cxxabiv1::__array_type_info::~__array_type_info()
    lib_rtti_impl.o(.constdata__ZTVN10__cxxabiv117__array_type_infoE) refers to lib_rtti_impl.o(i._ZN10__cxxabiv117__array_type_infoD0Ev) for __cxxabiv1::__array_type_info::~__array_type_info__deallocating()
    lib_rtti_impl.o(.constdata__ZTVN10__cxxabiv120__function_type_infoE) refers to lib_rtti_impl.o(.constdata__ZTIN10__cxxabiv120__function_type_infoE) for typeinfo for __cxxabiv1::__function_type_info
    lib_rtti_impl.o(.constdata__ZTVN10__cxxabiv120__function_type_infoE) refers to lib_rtti_impl.o(i._ZN10__cxxabiv120__function_type_infoD1Ev) for __cxxabiv1::__function_type_info::~__function_type_info()
    lib_rtti_impl.o(.constdata__ZTVN10__cxxabiv120__function_type_infoE) refers to lib_rtti_impl.o(i._ZN10__cxxabiv120__function_type_infoD0Ev) for __cxxabiv1::__function_type_info::~__function_type_info__deallocating()
    lib_rtti_impl.o(.constdata__ZTVN10__cxxabiv116__enum_type_infoE) refers to lib_rtti_impl.o(.constdata__ZTIN10__cxxabiv116__enum_type_infoE) for typeinfo for __cxxabiv1::__enum_type_info
    lib_rtti_impl.o(.constdata__ZTVN10__cxxabiv116__enum_type_infoE) refers to lib_rtti_impl.o(i._ZN10__cxxabiv116__enum_type_infoD1Ev) for __cxxabiv1::__enum_type_info::~__enum_type_info()
    lib_rtti_impl.o(.constdata__ZTVN10__cxxabiv116__enum_type_infoE) refers to lib_rtti_impl.o(i._ZN10__cxxabiv116__enum_type_infoD0Ev) for __cxxabiv1::__enum_type_info::~__enum_type_info__deallocating()
    lib_rtti_impl.o(.constdata__ZTVN10__cxxabiv117__class_type_infoE) refers to lib_rtti_impl.o(.constdata__ZTIN10__cxxabiv117__class_type_infoE) for typeinfo for __cxxabiv1::__class_type_info
    lib_rtti_impl.o(.constdata__ZTVN10__cxxabiv117__class_type_infoE) refers to lib_rtti_impl.o(i._ZN10__cxxabiv117__class_type_infoD1Ev) for __cxxabiv1::__class_type_info::~__class_type_info()
    lib_rtti_impl.o(.constdata__ZTVN10__cxxabiv117__class_type_infoE) refers to lib_rtti_impl.o(i._ZN10__cxxabiv117__class_type_infoD0Ev) for __cxxabiv1::__class_type_info::~__class_type_info__deallocating()
    lib_rtti_impl.o(.constdata__ZTVN10__cxxabiv120__si_class_type_infoE) refers to lib_rtti_impl.o(.constdata__ZTIN10__cxxabiv120__si_class_type_infoE) for typeinfo for __cxxabiv1::__si_class_type_info
    lib_rtti_impl.o(.constdata__ZTVN10__cxxabiv120__si_class_type_infoE) refers to lib_rtti_impl.o(i._ZN10__cxxabiv120__si_class_type_infoD1Ev) for __cxxabiv1::__si_class_type_info::~__si_class_type_info()
    lib_rtti_impl.o(.constdata__ZTVN10__cxxabiv120__si_class_type_infoE) refers to lib_rtti_impl.o(i._ZN10__cxxabiv120__si_class_type_infoD0Ev) for __cxxabiv1::__si_class_type_info::~__si_class_type_info__deallocating()
    lib_rtti_impl.o(.constdata__ZTVN10__cxxabiv121__vmi_class_type_infoE) refers to lib_rtti_impl.o(.constdata__ZTIN10__cxxabiv121__vmi_class_type_infoE) for typeinfo for __cxxabiv1::__vmi_class_type_info
    lib_rtti_impl.o(.constdata__ZTVN10__cxxabiv121__vmi_class_type_infoE) refers to lib_rtti_impl.o(i._ZN10__cxxabiv121__vmi_class_type_infoD1Ev) for __cxxabiv1::__vmi_class_type_info::~__vmi_class_type_info()
    lib_rtti_impl.o(.constdata__ZTVN10__cxxabiv121__vmi_class_type_infoE) refers to lib_rtti_impl.o(i._ZN10__cxxabiv121__vmi_class_type_infoD0Ev) for __cxxabiv1::__vmi_class_type_info::~__vmi_class_type_info__deallocating()
    lib_rtti_impl.o(.constdata__ZTVN10__cxxabiv117__pbase_type_infoE) refers to lib_rtti_impl.o(.constdata__ZTIN10__cxxabiv117__pbase_type_infoE) for typeinfo for __cxxabiv1::__pbase_type_info
    lib_rtti_impl.o(.constdata__ZTVN10__cxxabiv117__pbase_type_infoE) refers to lib_rtti_impl.o(i._ZN10__cxxabiv117__pbase_type_infoD1Ev) for __cxxabiv1::__pbase_type_info::~__pbase_type_info()
    lib_rtti_impl.o(.constdata__ZTVN10__cxxabiv117__pbase_type_infoE) refers to lib_rtti_impl.o(i._ZN10__cxxabiv117__pbase_type_infoD0Ev) for __cxxabiv1::__pbase_type_info::~__pbase_type_info__deallocating()
    lib_rtti_impl.o(.constdata__ZTVN10__cxxabiv119__pointer_type_infoE) refers to lib_rtti_impl.o(.constdata__ZTIN10__cxxabiv119__pointer_type_infoE) for typeinfo for __cxxabiv1::__pointer_type_info
    lib_rtti_impl.o(.constdata__ZTVN10__cxxabiv119__pointer_type_infoE) refers to lib_rtti_impl.o(i._ZN10__cxxabiv119__pointer_type_infoD1Ev) for __cxxabiv1::__pointer_type_info::~__pointer_type_info()
    lib_rtti_impl.o(.constdata__ZTVN10__cxxabiv119__pointer_type_infoE) refers to lib_rtti_impl.o(i._ZN10__cxxabiv119__pointer_type_infoD0Ev) for __cxxabiv1::__pointer_type_info::~__pointer_type_info__deallocating()
    lib_rtti_impl.o(.constdata__ZTVN10__cxxabiv129__pointer_to_member_type_infoE) refers to lib_rtti_impl.o(.constdata__ZTIN10__cxxabiv129__pointer_to_member_type_infoE) for typeinfo for __cxxabiv1::__pointer_to_member_type_info
    lib_rtti_impl.o(.constdata__ZTVN10__cxxabiv129__pointer_to_member_type_infoE) refers to lib_rtti_impl.o(i._ZN10__cxxabiv129__pointer_to_member_type_infoD1Ev) for __cxxabiv1::__pointer_to_member_type_info::~__pointer_to_member_type_info()
    lib_rtti_impl.o(.constdata__ZTVN10__cxxabiv129__pointer_to_member_type_infoE) refers to lib_rtti_impl.o(i._ZN10__cxxabiv129__pointer_to_member_type_infoD0Ev) for __cxxabiv1::__pointer_to_member_type_info::~__pointer_to_member_type_info__deallocating()
    lib_rtti_impl.o(.constdata__ZTIN10__cxxabiv123__fundamental_type_infoE) refers to lib_rtti_impl.o(.constdata__ZTVN10__cxxabiv120__si_class_type_infoE) for vtable for __cxxabiv1::__si_class_type_info
    lib_rtti_impl.o(.constdata__ZTIN10__cxxabiv123__fundamental_type_infoE) refers to lib_rtti_impl.o(.constdata__ZTSN10__cxxabiv123__fundamental_type_infoE) for typeinfo name for __cxxabiv1::__fundamental_type_info
    lib_rtti_impl.o(.constdata__ZTIN10__cxxabiv123__fundamental_type_infoE) refers to type_info_dtor.o(.constdata__ZTISt9type_info) for typeinfo for std::type_info
    lib_rtti_impl.o(.constdata__ZTIN10__cxxabiv117__array_type_infoE) refers to lib_rtti_impl.o(.constdata__ZTVN10__cxxabiv120__si_class_type_infoE) for vtable for __cxxabiv1::__si_class_type_info
    lib_rtti_impl.o(.constdata__ZTIN10__cxxabiv117__array_type_infoE) refers to lib_rtti_impl.o(.constdata__ZTSN10__cxxabiv117__array_type_infoE) for typeinfo name for __cxxabiv1::__array_type_info
    lib_rtti_impl.o(.constdata__ZTIN10__cxxabiv117__array_type_infoE) refers to type_info_dtor.o(.constdata__ZTISt9type_info) for typeinfo for std::type_info
    lib_rtti_impl.o(.constdata__ZTIN10__cxxabiv120__function_type_infoE) refers to lib_rtti_impl.o(.constdata__ZTVN10__cxxabiv120__si_class_type_infoE) for vtable for __cxxabiv1::__si_class_type_info
    lib_rtti_impl.o(.constdata__ZTIN10__cxxabiv120__function_type_infoE) refers to lib_rtti_impl.o(.constdata__ZTSN10__cxxabiv120__function_type_infoE) for typeinfo name for __cxxabiv1::__function_type_info
    lib_rtti_impl.o(.constdata__ZTIN10__cxxabiv120__function_type_infoE) refers to type_info_dtor.o(.constdata__ZTISt9type_info) for typeinfo for std::type_info
    lib_rtti_impl.o(.constdata__ZTIN10__cxxabiv116__enum_type_infoE) refers to lib_rtti_impl.o(.constdata__ZTVN10__cxxabiv120__si_class_type_infoE) for vtable for __cxxabiv1::__si_class_type_info
    lib_rtti_impl.o(.constdata__ZTIN10__cxxabiv116__enum_type_infoE) refers to lib_rtti_impl.o(.constdata__ZTSN10__cxxabiv116__enum_type_infoE) for typeinfo name for __cxxabiv1::__enum_type_info
    lib_rtti_impl.o(.constdata__ZTIN10__cxxabiv116__enum_type_infoE) refers to type_info_dtor.o(.constdata__ZTISt9type_info) for typeinfo for std::type_info
    lib_rtti_impl.o(.constdata__ZTIN10__cxxabiv117__class_type_infoE) refers to lib_rtti_impl.o(.constdata__ZTVN10__cxxabiv120__si_class_type_infoE) for vtable for __cxxabiv1::__si_class_type_info
    lib_rtti_impl.o(.constdata__ZTIN10__cxxabiv117__class_type_infoE) refers to lib_rtti_impl.o(.constdata__ZTSN10__cxxabiv117__class_type_infoE) for typeinfo name for __cxxabiv1::__class_type_info
    lib_rtti_impl.o(.constdata__ZTIN10__cxxabiv117__class_type_infoE) refers to type_info_dtor.o(.constdata__ZTISt9type_info) for typeinfo for std::type_info
    lib_rtti_impl.o(.constdata__ZTIN10__cxxabiv120__si_class_type_infoE) refers to lib_rtti_impl.o(.constdata__ZTVN10__cxxabiv120__si_class_type_infoE) for vtable for __cxxabiv1::__si_class_type_info
    lib_rtti_impl.o(.constdata__ZTIN10__cxxabiv120__si_class_type_infoE) refers to lib_rtti_impl.o(.constdata__ZTSN10__cxxabiv120__si_class_type_infoE) for typeinfo name for __cxxabiv1::__si_class_type_info
    lib_rtti_impl.o(.constdata__ZTIN10__cxxabiv120__si_class_type_infoE) refers to lib_rtti_impl.o(.constdata__ZTIN10__cxxabiv117__class_type_infoE) for typeinfo for __cxxabiv1::__class_type_info
    lib_rtti_impl.o(.constdata__ZTIN10__cxxabiv121__vmi_class_type_infoE) refers to lib_rtti_impl.o(.constdata__ZTVN10__cxxabiv120__si_class_type_infoE) for vtable for __cxxabiv1::__si_class_type_info
    lib_rtti_impl.o(.constdata__ZTIN10__cxxabiv121__vmi_class_type_infoE) refers to lib_rtti_impl.o(.constdata__ZTSN10__cxxabiv121__vmi_class_type_infoE) for typeinfo name for __cxxabiv1::__vmi_class_type_info
    lib_rtti_impl.o(.constdata__ZTIN10__cxxabiv121__vmi_class_type_infoE) refers to lib_rtti_impl.o(.constdata__ZTIN10__cxxabiv117__class_type_infoE) for typeinfo for __cxxabiv1::__class_type_info
    lib_rtti_impl.o(.constdata__ZTIN10__cxxabiv117__pbase_type_infoE) refers to lib_rtti_impl.o(.constdata__ZTVN10__cxxabiv120__si_class_type_infoE) for vtable for __cxxabiv1::__si_class_type_info
    lib_rtti_impl.o(.constdata__ZTIN10__cxxabiv117__pbase_type_infoE) refers to lib_rtti_impl.o(.constdata__ZTSN10__cxxabiv117__pbase_type_infoE) for typeinfo name for __cxxabiv1::__pbase_type_info
    lib_rtti_impl.o(.constdata__ZTIN10__cxxabiv117__pbase_type_infoE) refers to type_info_dtor.o(.constdata__ZTISt9type_info) for typeinfo for std::type_info
    lib_rtti_impl.o(.constdata__ZTIN10__cxxabiv119__pointer_type_infoE) refers to lib_rtti_impl.o(.constdata__ZTVN10__cxxabiv120__si_class_type_infoE) for vtable for __cxxabiv1::__si_class_type_info
    lib_rtti_impl.o(.constdata__ZTIN10__cxxabiv119__pointer_type_infoE) refers to lib_rtti_impl.o(.constdata__ZTSN10__cxxabiv119__pointer_type_infoE) for typeinfo name for __cxxabiv1::__pointer_type_info
    lib_rtti_impl.o(.constdata__ZTIN10__cxxabiv119__pointer_type_infoE) refers to lib_rtti_impl.o(.constdata__ZTIN10__cxxabiv117__pbase_type_infoE) for typeinfo for __cxxabiv1::__pbase_type_info
    lib_rtti_impl.o(.constdata__ZTIN10__cxxabiv129__pointer_to_member_type_infoE) refers to lib_rtti_impl.o(.constdata__ZTVN10__cxxabiv120__si_class_type_infoE) for vtable for __cxxabiv1::__si_class_type_info
    lib_rtti_impl.o(.constdata__ZTIN10__cxxabiv129__pointer_to_member_type_infoE) refers to lib_rtti_impl.o(.constdata__ZTSN10__cxxabiv129__pointer_to_member_type_infoE) for typeinfo name for __cxxabiv1::__pointer_to_member_type_info
    lib_rtti_impl.o(.constdata__ZTIN10__cxxabiv129__pointer_to_member_type_infoE) refers to lib_rtti_impl.o(.constdata__ZTIN10__cxxabiv117__pbase_type_infoE) for typeinfo for __cxxabiv1::__pbase_type_info
    type_info_dtor.o(.constdata__ZTVSt9type_info) refers to type_info_dtor.o(.constdata__ZTISt9type_info) for typeinfo for std::type_info
    type_info_dtor.o(.constdata__ZTVSt9type_info) refers to type_info_dtor.o(i._ZNSt9type_infoD1Ev) for std::type_info::~type_info()
    type_info_dtor.o(.constdata__ZTVSt9type_info) refers to type_info_dtor.o(i._ZNSt9type_infoD0Ev) for std::type_info::~type_info__deallocating()
    type_info_dtor.o(.constdata__ZTISt9type_info) refers to lib_rtti_impl.o(.constdata__ZTVN10__cxxabiv117__class_type_infoE) for vtable for __cxxabiv1::__class_type_info
    type_info_dtor.o(.constdata__ZTISt9type_info) refers to type_info_dtor.o(.constdata__ZTSSt9type_info) for typeinfo name for std::type_info


==============================================================================

Removing Unused input sections from the image.

    Removing lib.o(.rev16_text), (4 bytes).
    Removing lib.o(.revsh_text), (4 bytes).
    Removing lib.o(i._Z4htonj), (26 bytes).
    Removing lib.o(i._Z4htont), (12 bytes).
    Removing lib.o(i._Z4ntohj), (12 bytes).
    Removing lib.o(i._Z4ntoht), (12 bytes).
    Removing lib.o(i._Z8ChecksumPhtj), (62 bytes).
    Removing lib.o(i._ZN10cDevAnalogC1Ehff), (8 bytes).
    Removing lib.o(i._ZN10cDevMemory4readEPhtt), (44 bytes).
    Removing lib.o(i._ZN10cDevMemory5clearEv), (32 bytes).
    Removing lib.o(i._ZN10cDevMemory5writeEPhtt), (68 bytes).
    Removing lib.o(i._ZN10cDevMemory7isValidEv), (26 bytes).
    Removing lib.o(i._ZN10cDevMemory8allocateEt), (12 bytes).
    Removing lib.o(i._ZN10cDevMemory8setValidEv), (34 bytes).
    Removing lib.o(i._ZN10cDevMemoryC1ER9cHwMemoryt), (10 bytes).
    Removing lib.o(i._ZN10cDevTextIO6printfEPKcz), (52 bytes).
    Removing lib.o(i._ZN10cDevTextIO9getStringEv), (232 bytes).
    Removing lib.o(i._ZN10cDevTextIOC2EhhPKcS1_), (68 bytes).
    Removing lib.o(i._ZN10cHwTimer_N6setPWMEth), (144 bytes).
    Removing lib.o(i._ZN10cHwTimer_N9enablePWMEhN8cHwTimer4ModeE), (180 bytes).
    Removing lib.o(i._ZN10cHwUSBctrl2inEv), (52 bytes).
    Removing lib.o(i._ZN10cHwUSBctrl3outEv), (54 bytes).
    Removing lib.o(i._ZN10cHwUSBctrl5setupEv), (84 bytes).
    Removing lib.o(i._ZN10cHwUSBctrlC1ER6cHwUSB), (96 bytes).
    Removing lib.o(i._ZN10cHwUSBdesc16getDescriptorHIDEhhh), (68 bytes).
    Removing lib.o(i._ZN10cHwUSBdesc17getMaxPacketSize0Ev), (56 bytes).
    Removing lib.o(i._ZN10cHwUSBdesc19getDescriptorConfigEh), (62 bytes).
    Removing lib.o(i._ZN10cHwUSBdesc19getDescriptorDeviceEv), (60 bytes).
    Removing lib.o(i._ZN10cHwUSBdesc19getDescriptorStringEh), (62 bytes).
    Removing lib.o(i._ZN10cHwUSBdesc21getConfigDeviceStatusEh), (88 bytes).
    Removing lib.o(i._ZN10cHwUSBdesc21getDescriptorEndpointEhhh), (68 bytes).
    Removing lib.o(i._ZN10cHwUSBdesc22getDescriptorHIDreportEhhh), (72 bytes).
    Removing lib.o(i._ZN10cHwUSBdesc22getDescriptorInterfaceEhh), (64 bytes).
    Removing lib.o(i._ZN11cDevDigital3setEb), (32 bytes).
    Removing lib.o(i._ZN11cDevDigital7setModeENS_4ModeE), (18 bytes).
    Removing lib.o(i._ZN11cHwEthernet5getIPEv), (32 bytes).
    Removing lib.o(i._ZN11cHwEthernet5setIPEP6cNetIP), (8 bytes).
    Removing lib.o(i._ZN11cHwEthernet6setARPEP7cNetARP), (8 bytes).
    Removing lib.o(i._ZN11cHwEthernet6updateEv), (98 bytes).
    Removing lib.o(i._ZN11cHwEthernetC2ERK8cNetAddrILh6EE), (32 bytes).
    Removing lib.o(i._ZN11cHwI2CslaveC1ERNS_11DataHandlerEh), (6 bytes).
    Removing lib.o(i._ZN11cHwRTOS_MCUC1Ev), (2 bytes).
    Removing lib.o(i._ZN11cHwSPIslaveC1ERNS_11DataHandlerE), (4 bytes).
    Removing lib.o(i._ZN12cDevAnalogIn9calibrateEffff), (76 bytes).
    Removing lib.o(i._ZN12cDevAnalogInC2Ehff), (64 bytes).
    Removing lib.o(i._ZN12cHwI2Cmaster4readEhPhhS0_h), (170 bytes).
    Removing lib.o(i._ZN12cHwI2Cmaster5writeEhPhhS0_h), (132 bytes).
    Removing lib.o(i._ZN12cHwI2Cmaster6Device4readEPhh), (38 bytes).
    Removing lib.o(i._ZN12cHwI2Cmaster6Device4readEh), (46 bytes).
    Removing lib.o(i._ZN12cHwI2Cmaster6Device4readEhPhh), (38 bytes).
    Removing lib.o(i._ZN12cHwI2Cmaster6Device4readEt), (58 bytes).
    Removing lib.o(i._ZN12cHwI2Cmaster6Device4readEtPhh), (50 bytes).
    Removing lib.o(i._ZN12cHwI2Cmaster6Device4readEv), (42 bytes).
    Removing lib.o(i._ZN12cHwI2Cmaster6Device5writeEPhh), (40 bytes).
    Removing lib.o(i._ZN12cHwI2Cmaster6Device5writeEh), (36 bytes).
    Removing lib.o(i._ZN12cHwI2Cmaster6Device5writeEhPhh), (38 bytes).
    Removing lib.o(i._ZN12cHwI2Cmaster6Device5writeEhh), (38 bytes).
    Removing lib.o(i._ZN12cHwI2Cmaster6Device5writeEtPhh), (50 bytes).
    Removing lib.o(i._ZN12cHwI2Cmaster6Device5writeEth), (52 bytes).
    Removing lib.o(i._ZN12cHwI2Cmaster6Device7isErrorEv), (10 bytes).
    Removing lib.o(i._ZN12cHwI2CmasterC2Eh), (16 bytes).
    Removing lib.o(i._ZN12cHwSPImaster6Device10transceiveEPht), (58 bytes).
    Removing lib.o(i._ZN12cHwSPImaster6Device10transceiveEh), (42 bytes).
    Removing lib.o(i._ZN12cHwUSBinterfC2ER6cHwUSBhh), (204 bytes).
    Removing lib.o(i._ZN12cTaskHandler4TaskC2ERS_), (40 bytes).
    Removing lib.o(i._ZN12cTaskHandler5Timer12getTimeOfTicEv), (14 bytes).
    Removing lib.o(i._ZN12cTaskHandler5Timer7getTicsEv), (14 bytes).
    Removing lib.o(i._ZN12cTaskHandler5TimerC1ERS_tt), (48 bytes).
    Removing lib.o(i._ZN12cTaskHandler7addTaskEPNS_4TaskE), (34 bytes).
    Removing lib.o(i._ZN12cTaskHandlerC1EP8cHwTimer), (80 bytes).
    Removing lib.o(i._ZN12cTaskHandlerC1EPS_), (72 bytes).
    Removing lib.o(i._ZN13cDevAnalogOut3setEf), (92 bytes).
    Removing lib.o(i._ZN13cDevAnalogOutC2Ehff), (92 bytes).
    Removing lib.o(i._ZN13cHwDAC_MAX521C1ER12cHwI2Cmasterh), (56 bytes).
    Removing lib.o(i._ZN13cHwMemory_RAM4lockEv), (2 bytes).
    Removing lib.o(i._ZN13cHwMemory_RAM6unlockEv), (2 bytes).
    Removing lib.o(i._ZN13cHwMemory_RAMC1Ev), (36 bytes).
    Removing lib.o(i._ZN13cNetTransport6Socket11getRemoteIPEv), (6 bytes).
    Removing lib.o(i._ZN13cNetTransport6SocketC2ERS_R15cNetApplication8cNetAddrILh4EEtt), (124 bytes).
    Removing lib.o(i._ZN13cNetTransport6updateEv), (36 bytes).
    Removing lib.o(i._ZN13cNetTransport7processEv), (36 bytes).
    Removing lib.o(i._ZN13cNetTransport7timeoutEv), (36 bytes).
    Removing lib.o(i._ZN13cNetTransportC2Ev), (24 bytes).
    Removing lib.o(i._ZN14cHwDAC_MAX53083setEth), (42 bytes).
    Removing lib.o(i._ZN14cHwDAC_MAX5308C1ERN12cHwSPImaster6DeviceE), (68 bytes).
    Removing lib.o(i._ZN14cHwDAC_MCP44413setEth), (80 bytes).
    Removing lib.o(i._ZN14cHwDAC_MCP4441C1ER12cHwI2Cmasterh), (56 bytes).
    Removing lib.o(i._ZN14cHwDAC_MCP49223setEth), (48 bytes).
    Removing lib.o(i._ZN14cHwDAC_MCP4922C1ERN12cHwSPImaster6DeviceEh), (56 bytes).
    Removing lib.o(i._ZN14cHwDisp_DIP20411gotoTextPosEhh), (46 bytes).
    Removing lib.o(i._ZN14cHwDisp_DIP2044initEv), (110 bytes).
    Removing lib.o(i._ZN14cHwDisp_DIP2045clearEv), (14 bytes).
    Removing lib.o(i._ZN14cHwDisp_DIP2047putCharEc), (34 bytes).
    Removing lib.o(i._ZN14cHwDisp_DIP2048waitBusyEv), (76 bytes).
    Removing lib.o(i._ZN14cHwDisp_DIP2048writeCmdEh), (88 bytes).
    Removing lib.o(i._ZN14cHwDisp_DIP2048writeDatEh), (86 bytes).
    Removing lib.o(i._ZN14cHwDisp_DIP204C1ER7cHwPort), (52 bytes).
    Removing lib.o(i._ZN14cHwDisplayFont7setCharEh), (42 bytes).
    Removing lib.o(i._ZN14cHwDisplayFont8getPixelEhh), (48 bytes).
    Removing lib.o(i._ZN14cHwI2Cmaster_NC1ENS_6I2C_IDEN12cHwI2Cmaster4MODEEh), (156 bytes).
    Removing lib.o(i._ZN14cHwRAM_PCF85838readByteEj), (22 bytes).
    Removing lib.o(i._ZN14cHwRAM_PCF85839writeByteEjh), (26 bytes).
    Removing lib.o(i._ZN14cHwRAM_PCF8583C2ER12cHwI2Cmasterh), (56 bytes).
    Removing lib.o(i._ZN14cHwRTC_PCF85833getERN6cHwRTC10PropertiesE), (170 bytes).
    Removing lib.o(i._ZN14cHwRTC_PCF85833setERKN6cHwRTC10PropertiesE), (140 bytes).
    Removing lib.o(i._ZN14cHwRTC_PCF8583C1ER12cHwI2Cmasterh), (48 bytes).
    Removing lib.o(i._ZN14cHwSPImaster_014transceiveByteEh), (32 bytes).
    Removing lib.o(i._ZN14cHwSPImaster_017transceiveByteExtEhh), (68 bytes).
    Removing lib.o(i._ZN14cHwSPImaster_0C1EN12cHwSPImaster4MODEENS0_11ClockPolPhaE), (172 bytes).
    Removing lib.o(i._ZN14cHwSPImaster_117transceiveByteExtEhh), (96 bytes).
    Removing lib.o(i._ZN14cHwUSBendpoint10clrFeatureEv), (18 bytes).
    Removing lib.o(i._ZN14cHwUSBendpoint12writeDataLenERK12cDataPointert), (68 bytes).
    Removing lib.o(i._ZN14cHwUSBendpoint15readAcknowledgeEv), (20 bytes).
    Removing lib.o(i._ZN14cHwUSBendpoint16setConfigurationEv), (20 bytes).
    Removing lib.o(i._ZN14cHwUSBendpoint16writeAcknowledgeEv), (20 bytes).
    Removing lib.o(i._ZN14cHwUSBendpoint2inEv), (50 bytes).
    Removing lib.o(i._ZN14cHwUSBendpoint3outEv), (60 bytes).
    Removing lib.o(i._ZN14cHwUSBendpoint5stallEv), (16 bytes).
    Removing lib.o(i._ZN14cHwUSBendpoint6inCtrlEv), (40 bytes).
    Removing lib.o(i._ZN14cHwUSBendpoint7outCtrlEv), (46 bytes).
    Removing lib.o(i._ZN14cHwUSBendpoint8clrStallEv), (16 bytes).
    Removing lib.o(i._ZN14cHwUSBendpoint8readDataEv), (60 bytes).
    Removing lib.o(i._ZN14cHwUSBendpoint9writeDataERK12cDataPointer), (24 bytes).
    Removing lib.o(i._ZN14cHwUSBendpoint9writeDataEv), (68 bytes).
    Removing lib.o(i._ZN14cHwUSBendpointC1ER6cHwUSBP12cHwUSBinterfhth), (48 bytes).
    Removing lib.o(i._ZN14cHwUSBendpointC1ER6cHwUSBht), (42 bytes).
    Removing lib.o(i._ZN15cDevAnalogInADC6getRawEv), (16 bytes).
    Removing lib.o(i._ZN15cDevAnalogInADCC1ER6cHwADChff), (56 bytes).
    Removing lib.o(i._ZN15cDevDisplayChar5clearEv), (14 bytes).
    Removing lib.o(i._ZN15cDevDisplayChar6printfEhhPKc), (52 bytes).
    Removing lib.o(i._ZN15cDevDisplayChar6printfEhhhPKcz), (102 bytes).
    Removing lib.o(i._ZN15cDevTextIO_UARTC1ER7cHwUARThhPKcS3_), (52 bytes).
    Removing lib.o(i._ZN15cHwMemory_Flash4lockEv), (2 bytes).
    Removing lib.o(i._ZN15cHwMemory_Flash5clearEj), (2 bytes).
    Removing lib.o(i._ZN15cHwMemory_Flash6unlockEv), (2 bytes).
    Removing lib.o(i._ZN15cHwMemory_Flash8readByteEj), (8 bytes).
    Removing lib.o(i._ZN15cHwMemory_Flash9writeByteEjh), (2 bytes).
    Removing lib.o(i._ZN15cHwMemory_FlashC1EPhj), (36 bytes).
    Removing lib.o(i._ZN15cHwPort_PCF85743clrEj), (38 bytes).
    Removing lib.o(i._ZN15cHwPort_PCF85743getEv), (18 bytes).
    Removing lib.o(i._ZN15cHwPort_PCF85743setEj), (36 bytes).
    Removing lib.o(i._ZN15cHwPort_PCF85743setEjj), (60 bytes).
    Removing lib.o(i._ZN15cHwPort_PCF85746clrDirEj), (42 bytes).
    Removing lib.o(i._ZN15cHwPort_PCF85746setDirEj), (42 bytes).
    Removing lib.o(i._ZN15cHwPort_PCF85746updateEv), (28 bytes).
    Removing lib.o(i._ZN15cHwPort_PCF8574C2ER12cHwI2CmasterhP8cHwTimer), (92 bytes).
    Removing lib.o(i._ZN16cDevAnalogOutDAC6setRawEt), (20 bytes).
    Removing lib.o(i._ZN16cDevAnalogOutDACC1ER6cHwDAChff), (56 bytes).
    Removing lib.o(i._ZN16cDevAnalogOutPWM6setRawEt), (20 bytes).
    Removing lib.o(i._ZN16cDevAnalogOutPWMC1ER8cHwTimerNS0_4ModeEhff), (60 bytes).
    Removing lib.o(i._ZN16cHwDisp_Terminal7sendESCEPKc), (42 bytes).
    Removing lib.o(i._ZN16cHwDisp_TerminalC1ER7cHwUART), (40 bytes).
    Removing lib.o(i._ZN16cHwEEPROM_24C2564lockEv), (2 bytes).
    Removing lib.o(i._ZN16cHwEEPROM_24C2566unlockEv), (2 bytes).
    Removing lib.o(i._ZN16cHwEEPROM_24C2568readByteEj), (30 bytes).
    Removing lib.o(i._ZN16cHwEEPROM_24C2569writeByteEjh), (82 bytes).
    Removing lib.o(i._ZN16cHwEEPROM_24C256C1ER12cHwI2Cmasterh), (60 bytes).
    Removing lib.o(i._ZN16cHwEthernet_EMAC10PacketSendEPht), (40 bytes).
    Removing lib.o(i._ZN16cHwEthernet_EMAC10input_MDIOEv), (60 bytes).
    Removing lib.o(i._ZN16cHwEthernet_EMAC11RequestSendEt), (56 bytes).
    Removing lib.o(i._ZN16cHwEthernet_EMAC11output_MDIOEjj), (76 bytes).
    Removing lib.o(i._ZN16cHwEthernet_EMAC12EndReadFrameEv), (28 bytes).
    Removing lib.o(i._ZN16cHwEthernet_EMAC13PacketReceiveEv), (60 bytes).
    Removing lib.o(i._ZN16cHwEthernet_EMAC13rx_descr_initEv), (132 bytes).
    Removing lib.o(i._ZN16cHwEthernet_EMAC13tx_descr_initEv), (116 bytes).
    Removing lib.o(i._ZN16cHwEthernet_EMAC14ReadFrame_EMACEv), (22 bytes).
    Removing lib.o(i._ZN16cHwEthernet_EMAC14StartReadFrameEv), (56 bytes).
    Removing lib.o(i._ZN16cHwEthernet_EMAC15WriteFrame_EMACEt), (22 bytes).
    Removing lib.o(i._ZN16cHwEthernet_EMAC15turnaround_MDIOEv), (48 bytes).
    Removing lib.o(i._ZN16cHwEthernet_EMAC16CopyToFrame_EMACEPvj), (68 bytes).
    Removing lib.o(i._ZN16cHwEthernet_EMAC18CheckFrameReceivedEv), (32 bytes).
    Removing lib.o(i._ZN16cHwEthernet_EMAC18CopyFromFrame_EMACEPvt), (42 bytes).
    Removing lib.o(i._ZN16cHwEthernet_EMAC19DummyReadFrame_EMACEt), (24 bytes).
    Removing lib.o(i._ZN16cHwEthernet_EMAC5delayEv), (2 bytes).
    Removing lib.o(i._ZN16cHwEthernet_EMAC6Rdy4TxEv), (6 bytes).
    Removing lib.o(i._ZN16cHwEthernet_EMAC6createE8cNetAddrILh6EEt), (46 bytes).
    Removing lib.o(i._ZN16cHwEthernet_EMAC7getTypeEv), (72 bytes).
    Removing lib.o(i._ZN16cHwEthernet_EMAC8read_PHYEj), (88 bytes).
    Removing lib.o(i._ZN16cHwEthernet_EMAC9Init_EMACEv), (548 bytes).
    Removing lib.o(i._ZN16cHwEthernet_EMAC9write_PHYEjt), (96 bytes).
    Removing lib.o(i._ZN16cHwEthernet_EMACC1ERK8cNetAddrILh6EE), (36 bytes).
    Removing lib.o(i._ZN16cHwPort_Terminal10setPinModeEhN7cHwPort4ModeE), (26 bytes).
    Removing lib.o(i._ZN16cHwPort_Terminal3clrEj), (26 bytes).
    Removing lib.o(i._ZN16cHwPort_Terminal3getEv), (22 bytes).
    Removing lib.o(i._ZN16cHwPort_Terminal3setEj), (26 bytes).
    Removing lib.o(i._ZN16cHwPort_Terminal3setEjj), (42 bytes).
    Removing lib.o(i._ZN16cHwPort_Terminal6updateEv), (472 bytes).
    Removing lib.o(i._ZN16cHwPort_Terminal7setModeEjN7cHwPort4ModeE), (22 bytes).
    Removing lib.o(i._ZN16cHwPort_TerminalC1ER7cHwUARTjP8cHwTimer), (84 bytes).
    Removing lib.o(i._ZN16cHwTouch_ADS78466updateEv), (68 bytes).
    Removing lib.o(i._ZN16cHwTouch_ADS78468readDataEh), (56 bytes).
    Removing lib.o(i._ZN16cHwTouch_ADS7846C1ERN12cHwSPImaster6DeviceEtt), (52 bytes).
    Removing lib.o(i._ZN17cHwDisp_DIP204spi11gotoTextPosEhh), (46 bytes).
    Removing lib.o(i._ZN17cHwDisp_DIP204spi4initEv), (46 bytes).
    Removing lib.o(i._ZN17cHwDisp_DIP204spi5clearEv), (14 bytes).
    Removing lib.o(i._ZN17cHwDisp_DIP204spi7putCharEc), (34 bytes).
    Removing lib.o(i._ZN17cHwDisp_DIP204spi8waitBusyEv), (56 bytes).
    Removing lib.o(i._ZN17cHwDisp_DIP204spi8writeCmdEh), (46 bytes).
    Removing lib.o(i._ZN17cHwDisp_DIP204spi8writeDatEh), (46 bytes).
    Removing lib.o(i._ZN17cHwDisp_DIP204spiC1ERN12cHwSPImaster6DeviceE), (40 bytes).
    Removing lib.o(i._ZN17cHwDisplayGraphic11gotoTextPosEhh), (40 bytes).
    Removing lib.o(i._ZN17cHwDisplayGraphic12gotoPixelPosEtt), (6 bytes).
    Removing lib.o(i._ZN17cHwDisplayGraphic12setBackColorEt), (4 bytes).
    Removing lib.o(i._ZN17cHwDisplayGraphic12setTextColorEt), (4 bytes).
    Removing lib.o(i._ZN17cHwDisplayGraphic7putCharEc), (196 bytes).
    Removing lib.o(i._ZN17cHwDisplayGraphic7setFontE14cHwDisplayFonth), (18 bytes).
    Removing lib.o(i._ZN17cHwDisplayGraphic7setZoomEh), (4 bytes).
    Removing lib.o(i._ZN17cHwDisplayGraphic8putPixelEtt), (28 bytes).
    Removing lib.o(i._ZN17cHwDisplayGraphic9putBitmapEttttPKt), (86 bytes).
    Removing lib.o(i._ZN17cHwI2Cmaster_Emul11readByteAckEv), (134 bytes).
    Removing lib.o(i._ZN17cHwI2Cmaster_Emul11waitForAcknEv), (52 bytes).
    Removing lib.o(i._ZN17cHwI2Cmaster_Emul12readByteNackEv), (134 bytes).
    Removing lib.o(i._ZN17cHwI2Cmaster_Emul4stopEv), (86 bytes).
    Removing lib.o(i._ZN17cHwI2Cmaster_Emul4waitEv), (12 bytes).
    Removing lib.o(i._ZN17cHwI2Cmaster_Emul5startEv), (70 bytes).
    Removing lib.o(i._ZN17cHwI2Cmaster_Emul8sendAddrEh), (18 bytes).
    Removing lib.o(i._ZN17cHwI2Cmaster_Emul9writeByteEh), (150 bytes).
    Removing lib.o(i._ZN17cHwI2Cmaster_EmulC1ERN7cHwPort3PinES2_N12cHwI2Cmaster4MODEE), (120 bytes).
    Removing lib.o(i._ZN17cHwSensAcc_LSM303C1ER12cHwI2Cmaster), (92 bytes).
    Removing lib.o(i._ZN17cHwSensMag_LSM303C1ER12cHwI2Cmaster), (60 bytes).
    Removing lib.o(i._ZN18cDevControlEncoder3getEv), (100 bytes).
    Removing lib.o(i._ZN18cDevControlPointer3getEv), (238 bytes).
    Removing lib.o(i._ZN18cDevControlPointerC1ER8cHwTouch), (24 bytes).
    Removing lib.o(i._ZN18cDevDisplayGraphic10drawBitmapEttttPKt), (40 bytes).
    Removing lib.o(i._ZN18cDevDisplayGraphic10drawCircleEtttt), (166 bytes).
    Removing lib.o(i._ZN18cDevDisplayGraphic12setBackColorEt), (18 bytes).
    Removing lib.o(i._ZN18cDevDisplayGraphic12setTextColorEt), (18 bytes).
    Removing lib.o(i._ZN18cDevDisplayGraphic14getDefaultFontEv), (18 bytes).
    Removing lib.o(i._ZN18cDevDisplayGraphic6printfEhhhPKcz), (98 bytes).
    Removing lib.o(i._ZN18cDevDisplayGraphic7setFontE14cHwDisplayFonth), (26 bytes).
    Removing lib.o(i._ZN18cDevDisplayGraphic7setZoomEh), (18 bytes).
    Removing lib.o(i._ZN18cDevDisplayGraphic8drawLineEtttttt), (414 bytes).
    Removing lib.o(i._ZN18cDevDisplayGraphic8drawTextEttPKc), (52 bytes).
    Removing lib.o(i._ZN18cDevDisplayGraphic8drawTextEtthPKcz), (98 bytes).
    Removing lib.o(i._ZN18cDevDisplayGraphic9drawFrameEtttttt), (114 bytes).
    Removing lib.o(i._ZN18cDevDisplayGraphic9drawPixelEttt), (38 bytes).
    Removing lib.o(i._ZN18cHwDisp_ILI9341spi4initEv), (438 bytes).
    Removing lib.o(i._ZN18cHwDisp_ILI9341spi5clearEv), (62 bytes).
    Removing lib.o(i._ZN18cHwDisp_ILI9341spi7setAreaEtttt), (86 bytes).
    Removing lib.o(i._ZN18cHwDisp_ILI9341spi8setPixelEt), (16 bytes).
    Removing lib.o(i._ZN18cHwDisp_ILI9341spi8setPixelEttt), (48 bytes).
    Removing lib.o(i._ZN18cHwDisp_ILI9341spiC1ERN12cHwSPImaster6DeviceERN7cHwPort3PinE14cHwDisplayFonth), (88 bytes).
    Removing lib.o(i._ZN18cHwSensGyro_L3GD20C1ER12cHwI2Cmasterh), (72 bytes).
    Removing lib.o(i._ZN20cDevAnalogOutPWMemul6setRawEt), (32 bytes).
    Removing lib.o(i._ZN20cDevAnalogOutPWMemul6updateEv), (66 bytes).
    Removing lib.o(i._ZN20cDevAnalogOutPWMemulC1ER8cHwTimerR11cDevDigitalhff), (112 bytes).
    Removing lib.o(i._ZN20cDevDigitalIndicator6updateEv), (28 bytes).
    Removing lib.o(i._ZN20cDevDigitalIndicatorC1ER11cDevDigitalR8cHwTimer), (64 bytes).
    Removing lib.o(i._ZN20cHwEthernet_Enc28j6010PacketSendEPht), (110 bytes).
    Removing lib.o(i._ZN20cHwEthernet_Enc28j6010ReadBufferEtPh), (100 bytes).
    Removing lib.o(i._ZN20cHwEthernet_Enc28j6011WriteBufferEtPh), (94 bytes).
    Removing lib.o(i._ZN20cHwEthernet_Enc28j6013PacketReceiveEv), (210 bytes).
    Removing lib.o(i._ZN20cHwEthernet_Enc28j604InitERK8cNetAddrILh6EE), (318 bytes).
    Removing lib.o(i._ZN20cHwEthernet_Enc28j604ReadEh), (26 bytes).
    Removing lib.o(i._ZN20cHwEthernet_Enc28j606ReadOpEhh), (76 bytes).
    Removing lib.o(i._ZN20cHwEthernet_Enc28j606createE8cNetAddrILh6EEt), (46 bytes).
    Removing lib.o(i._ZN20cHwEthernet_Enc28j606getrevEv), (14 bytes).
    Removing lib.o(i._ZN20cHwEthernet_Enc28j607InitPhyEv), (104 bytes).
    Removing lib.o(i._ZN20cHwEthernet_Enc28j607SetBankEh), (58 bytes).
    Removing lib.o(i._ZN20cHwEthernet_Enc28j607WriteOpEhhh), (44 bytes).
    Removing lib.o(i._ZN20cHwEthernet_Enc28j607getTypeEv), (72 bytes).
    Removing lib.o(i._ZN20cHwEthernet_Enc28j608PhyWriteEht), (52 bytes).
    Removing lib.o(i._ZN20cHwEthernet_Enc28j609WriteByteEhh), (30 bytes).
    Removing lib.o(i._ZN20cHwEthernet_Enc28j609WriteWordEht), (54 bytes).
    Removing lib.o(i._ZN20cHwEthernet_Enc28j60C1ERK8cNetAddrILh6EERN12cHwSPImaster6DeviceE), (60 bytes).
    Removing lib.o(i._ZN20cHwTouch_STMPE811i2c6updateEv), (198 bytes).
    Removing lib.o(i._ZN20cHwTouch_STMPE811i2cC1ER12cHwI2Cmasterhtt), (260 bytes).
    Removing lib.o(i._ZN28cDevControlEncoderRotaryKnob12getIncrementEv), (82 bytes).
    Removing lib.o(i._ZN28cDevControlEncoderRotaryKnobC1EP11cDevDigitalS1_S1_P8cHwTimer), (48 bytes).
    Removing lib.o(i._ZN4cCRCC1ENS_4MODEEtt), (78 bytes).
    Removing lib.o(i._ZN4cCRCD1Ev), (26 bytes).
    Removing lib.o(i._ZN4cCRCclEPKhj), (70 bytes).
    Removing lib.o(i._ZN4cCRCclEh), (50 bytes).
    Removing lib.o(i._ZN5cList4Item7getNextEv), (6 bytes).
    Removing lib.o(i._ZN5cList4Item7getPrevERS_), (48 bytes).
    Removing lib.o(i._ZN5cList8getFirstEv), (6 bytes).
    Removing lib.o(i._ZN5cListixEt), (24 bytes).
    Removing lib.o(i._ZN6cHwDACC2Eh), (12 bytes).
    Removing lib.o(i._ZN6cHwRTCC2Ev), (12 bytes).
    Removing lib.o(i._ZN6cHwUSB12eventHandlerEhh), (94 bytes).
    Removing lib.o(i._ZN6cHwUSBC2ER10cHwUSBdesc), (36 bytes).
    Removing lib.o(i._ZN6cNetIP6createE8cNetAddrILh6EES0_ILh4EEtt), (206 bytes).
    Removing lib.o(i._ZN6cNetIP6updateEv), (86 bytes).
    Removing lib.o(i._ZN6cNetIP7processEv), (96 bytes).
    Removing lib.o(i._ZN6cNetIPC1ER11cHwEthernetRK8cNetAddrILh4EER8cHwTimer), (124 bytes).
    Removing lib.o(i._ZN6cTimer3setEtt), (36 bytes).
    Removing lib.o(i._ZN6cTimer4stopEv), (6 bytes).
    Removing lib.o(i._ZN6cTimer5startEtt), (26 bytes).
    Removing lib.o(i._ZN6cTimer5startEv), (20 bytes).
    Removing lib.o(i._ZN6cTimer7timeoutEtt), (30 bytes).
    Removing lib.o(i._ZN6cTimer7timeoutEv), (58 bytes).
    Removing lib.o(i._ZN6cTimerC2Ev), (16 bytes).
    Removing lib.o(i._ZN7cHwPort3PinC1ERS_hNS_4ModeE), (52 bytes).
    Removing lib.o(i._ZN7cHwUART12transmitByteEh), (54 bytes).
    Removing lib.o(i._ZN7cHwUART3getEPh), (34 bytes).
    Removing lib.o(i._ZN7cHwUART3setEPKc), (28 bytes).
    Removing lib.o(i._ZN7cHwUART3setEPKhh), (34 bytes).
    Removing lib.o(i._ZN7cHwUART3setEh), (18 bytes).
    Removing lib.o(i._ZN7cHwUARTC2Ehh), (48 bytes).
    Removing lib.o(i._ZN7cNetARP6setTCPEP7cNetTCP), (4 bytes).
    Removing lib.o(i._ZN7cNetARP6setUDPEP7cNetUDP), (4 bytes).
    Removing lib.o(i._ZN7cNetARP7processEv), (218 bytes).
    Removing lib.o(i._ZN7cNetARP7requestER8cNetAddrILh4EE), (148 bytes).
    Removing lib.o(i._ZN7cNetARPC1ER11cHwEthernetR8cNetAddrILh4EE), (36 bytes).
    Removing lib.o(i._ZN7cNetTCP6Socket10fillBufferEc), (82 bytes).
    Removing lib.o(i._ZN7cNetTCP6Socket10getDataPtrEv), (12 bytes).
    Removing lib.o(i._ZN7cNetTCP6Socket11isConnectedEv), (26 bytes).
    Removing lib.o(i._ZN7cNetTCP6Socket13setDataLengthEt), (12 bytes).
    Removing lib.o(i._ZN7cNetTCP6Socket3getEPc), (42 bytes).
    Removing lib.o(i._ZN7cNetTCP6Socket4openE8cNetAddrILh4EEt), (188 bytes).
    Removing lib.o(i._ZN7cNetTCP6Socket4sendEv), (70 bytes).
    Removing lib.o(i._ZN7cNetTCP6Socket5clearEv), (14 bytes).
    Removing lib.o(i._ZN7cNetTCP6Socket5closeEv), (78 bytes).
    Removing lib.o(i._ZN7cNetTCP6Socket6updateEv), (76 bytes).
    Removing lib.o(i._ZN7cNetTCP6Socket7isReadyEv), (36 bytes).
    Removing lib.o(i._ZN7cNetTCP6Socket7processEv), (646 bytes).
    Removing lib.o(i._ZN7cNetTCP6Socket7timeoutEv), (102 bytes).
    Removing lib.o(i._ZN7cNetTCP6SocketC1ERS_R15cNetApplication8cNetAddrILh4EEtt), (60 bytes).
    Removing lib.o(i._ZN7cNetTCP6createERNS_6SocketEt), (270 bytes).
    Removing lib.o(i._ZN7cNetTCP9handleARPE8cNetAddrILh4EES0_ILh6EE), (64 bytes).
    Removing lib.o(i._ZN7cNetTCPC1ER6cNetIP), (60 bytes).
    Removing lib.o(i._ZN7cNetUDP6Socket10fillBufferEc), (82 bytes).
    Removing lib.o(i._ZN7cNetUDP6Socket10getDataPtrEv), (12 bytes).
    Removing lib.o(i._ZN7cNetUDP6Socket11isConnectedEv), (18 bytes).
    Removing lib.o(i._ZN7cNetUDP6Socket13setDataLengthEt), (12 bytes).
    Removing lib.o(i._ZN7cNetUDP6Socket3getEPc), (42 bytes).
    Removing lib.o(i._ZN7cNetUDP6Socket4openE8cNetAddrILh4EEt), (96 bytes).
    Removing lib.o(i._ZN7cNetUDP6Socket4sendEv), (36 bytes).
    Removing lib.o(i._ZN7cNetUDP6Socket5clearEv), (14 bytes).
    Removing lib.o(i._ZN7cNetUDP6Socket5closeEv), (8 bytes).
    Removing lib.o(i._ZN7cNetUDP6Socket6updateEv), (64 bytes).
    Removing lib.o(i._ZN7cNetUDP6Socket7isReadyEv), (36 bytes).
    Removing lib.o(i._ZN7cNetUDP6Socket7processEv), (176 bytes).
    Removing lib.o(i._ZN7cNetUDP6Socket7timeoutEv), (44 bytes).
    Removing lib.o(i._ZN7cNetUDP6SocketC1ERS_R15cNetApplication8cNetAddrILh4EEtt), (52 bytes).
    Removing lib.o(i._ZN7cNetUDP6createERNS_6SocketEt), (156 bytes).
    Removing lib.o(i._ZN7cNetUDP9handleARPE8cNetAddrILh4EES0_ILh6EE), (64 bytes).
    Removing lib.o(i._ZN7cNetUDPC1ER6cNetIP), (48 bytes).
    Removing lib.o(i._ZN7cSystem12feedWatchdogEv), (12 bytes).
    Removing lib.o(i._ZN7cSystem14enableWatchdogENS_4MODEE), (108 bytes).
    Removing lib.o(i._ZN7cSystem5resetEv), (12 bytes).
    Removing lib.o(i._ZN7cSystem5startEv), (10 bytes).
    Removing lib.o(i._ZN7cSystem8enterISREv), (16 bytes).
    Removing lib.o(i._ZN7cSystem8leaveISREv), (24 bytes).
    Removing lib.o(i._ZN8cHwDAC_0C1Ev), (84 bytes).
    Removing lib.o(i._ZN8cHwRTC_03getERN6cHwRTC10PropertiesE), (72 bytes).
    Removing lib.o(i._ZN8cHwRTC_03setERKN6cHwRTC10PropertiesE), (80 bytes).
    Removing lib.o(i._ZN8cHwRTC_0C1Ev), (60 bytes).
    Removing lib.o(i._ZN8cHwTouchC2Ett), (24 bytes).
    Removing lib.o(i._ZN8cHwUSB_010clrStallEPEh), (36 bytes).
    Removing lib.o(i._ZN8cHwUSB_010setAddressEh), (48 bytes).
    Removing lib.o(i._ZN8cHwUSB_010setStallEPEh), (40 bytes).
    Removing lib.o(i._ZN8cHwUSB_05resetEv), (280 bytes).
    Removing lib.o(i._ZN8cHwUSB_05startEv), (52 bytes).
    Removing lib.o(i._ZN8cHwUSB_06readEPEhPht), (156 bytes).
    Removing lib.o(i._ZN8cHwUSB_07writeEPEhPht), (136 bytes).
    Removing lib.o(i._ZN8cHwUSB_08WrCmdDatEjj), (26 bytes).
    Removing lib.o(i._ZN8cHwUSB_08configEPEhth), (140 bytes).
    Removing lib.o(i._ZN8cHwUSB_09configureEh), (68 bytes).
    Removing lib.o(i._ZN8cHwUSB_0C1ER10cHwUSBdesc), (100 bytes).
    Removing lib.o(i._ZN8cNetDHCP13parse_optionsEPhi), (52 bytes).
    Removing lib.o(i._ZN8cNetDHCP4sendEh), (228 bytes).
    Removing lib.o(i._ZN8cNetDHCP7processEv), (148 bytes).
    Removing lib.o(i._ZN8cNetDHCP7timeoutEv), (84 bytes).
    Removing lib.o(i._ZN8cNetDHCPC1ER7cNetUDPPKc), (124 bytes).
    Removing lib.o(i._ZN8cNetICMP7processEv), (160 bytes).
    Removing lib.o(i._ZN8cNetICMPC1ER6cNetIP), (10 bytes).
    Removing lib.o(i._ZN9cHwMemoryC2Ejh), (20 bytes).
    Removing lib.o(i._ZN9cHwPort_N7setModeEjN7cHwPort4ModeE), (46 bytes).
    Removing lib.o(i._ZN9cHwUART_N7handlerEv), (42 bytes).
    Removing lib.o(i._ZN9cHwUART_NC1ENS_7UART_IDEN7cHwUART4ModeEhh), (308 bytes).
    Removing lib.o(i._ZNK14cHwDisplayFont12getCharWidthEv), (8 bytes).
    Removing lib.o(i._ZNK14cHwDisplayFont13getCharHeightEv), (8 bytes).
    Removing lib.o(i._ZThn16_N20cDevAnalogOutPWMemul6updateEv), (14 bytes).
    Removing lib.o(i._ZThn4_N15cHwPort_PCF85746updateEv), (14 bytes).
    Removing lib.o(i._ZThn4_N16cHwPort_Terminal6updateEv), (14 bytes).
    Removing lib.o(.ARM.exidx), (8 bytes).
    Removing lib.o(.ARM.exidx), (8 bytes).
    Removing lib.o(.ARM.exidx), (8 bytes).
    Removing lib.o(.ARM.exidx), (8 bytes).
    Removing lib.o(.ARM.exidx), (8 bytes).
    Removing lib.o(.ARM.exidx), (8 bytes).
    Removing lib.o(.ARM.exidx), (8 bytes).
    Removing lib.o(.ARM.exidx), (8 bytes).
    Removing lib.o(.ARM.exidx), (8 bytes).
    Removing lib.o(.ARM.exidx), (8 bytes).
    Removing lib.o(.ARM.exidx), (8 bytes).
    Removing lib.o(.ARM.exidx), (8 bytes).
    Removing lib.o(.ARM.exidx), (8 bytes).
    Removing lib.o(.ARM.exidx), (8 bytes).
    Removing lib.o(.ARM.exidx), (8 bytes).
    Removing lib.o(.ARM.exidx), (8 bytes).
    Removing lib.o(.ARM.exidx), (8 bytes).
    Removing lib.o(.ARM.exidx), (8 bytes).
    Removing lib.o(.ARM.exidx), (8 bytes).
    Removing lib.o(.ARM.exidx), (8 bytes).
    Removing lib.o(.ARM.exidx), (8 bytes).
    Removing lib.o(.ARM.exidx), (8 bytes).
    Removing lib.o(.ARM.exidx), (8 bytes).
    Removing lib.o(.ARM.exidx), (8 bytes).
    Removing lib.o(.ARM.exidx), (8 bytes).
    Removing lib.o(.ARM.exidx), (8 bytes).
    Removing lib.o(.ARM.exidx), (8 bytes).
    Removing lib.o(.ARM.exidx), (8 bytes).
    Removing lib.o(.ARM.exidx), (8 bytes).
    Removing lib.o(.ARM.exidx), (8 bytes).
    Removing lib.o(.ARM.exidx), (8 bytes).
    Removing lib.o(.ARM.exidx), (8 bytes).
    Removing lib.o(.ARM.exidx), (8 bytes).
    Removing lib.o(.ARM.exidx), (8 bytes).
    Removing lib.o(.ARM.exidx), (8 bytes).
    Removing lib.o(.ARM.exidx), (8 bytes).
    Removing lib.o(.ARM.exidx), (8 bytes).
    Removing lib.o(.ARM.exidx), (8 bytes).
    Removing lib.o(.ARM.exidx), (8 bytes).
    Removing lib.o(.ARM.exidx), (8 bytes).
    Removing lib.o(.ARM.exidx), (8 bytes).
    Removing lib.o(.ARM.exidx), (8 bytes).
    Removing lib.o(.ARM.exidx), (8 bytes).
    Removing lib.o(.ARM.exidx), (8 bytes).
    Removing lib.o(.ARM.exidx), (8 bytes).
    Removing lib.o(.ARM.exidx), (8 bytes).
    Removing lib.o(.ARM.exidx), (8 bytes).
    Removing lib.o(.ARM.exidx), (8 bytes).
    Removing lib.o(.ARM.exidx), (8 bytes).
    Removing lib.o(.ARM.exidx), (8 bytes).
    Removing lib.o(.ARM.exidx), (8 bytes).
    Removing lib.o(.ARM.exidx), (8 bytes).
    Removing lib.o(.ARM.exidx), (8 bytes).
    Removing lib.o(.ARM.exidx), (8 bytes).
    Removing lib.o(.ARM.exidx), (8 bytes).
    Removing lib.o(.ARM.exidx), (8 bytes).
    Removing lib.o(.ARM.exidx), (8 bytes).
    Removing lib.o(.ARM.exidx), (8 bytes).
    Removing lib.o(.ARM.exidx), (8 bytes).
    Removing lib.o(.ARM.exidx), (8 bytes).
    Removing lib.o(.ARM.exidx), (8 bytes).
    Removing lib.o(.ARM.exidx), (8 bytes).
    Removing lib.o(.ARM.exidx), (8 bytes).
    Removing lib.o(.ARM.exidx), (8 bytes).
    Removing lib.o(.ARM.exidx), (8 bytes).
    Removing lib.o(.ARM.exidx), (8 bytes).
    Removing lib.o(.ARM.exidx), (8 bytes).
    Removing lib.o(.ARM.exidx), (8 bytes).
    Removing lib.o(.ARM.exidx), (8 bytes).
    Removing lib.o(.ARM.exidx), (8 bytes).
    Removing lib.o(.ARM.exidx), (8 bytes).
    Removing lib.o(.ARM.exidx), (8 bytes).
    Removing lib.o(.ARM.exidx), (8 bytes).
    Removing lib.o(.ARM.exidx), (8 bytes).
    Removing lib.o(.ARM.exidx), (8 bytes).
    Removing lib.o(.ARM.exidx), (8 bytes).
    Removing lib.o(.ARM.exidx), (8 bytes).
    Removing lib.o(.ARM.exidx), (8 bytes).
    Removing lib.o(.ARM.exidx), (8 bytes).
    Removing lib.o(.ARM.exidx), (8 bytes).
    Removing lib.o(.ARM.exidx), (8 bytes).
    Removing lib.o(.ARM.exidx), (8 bytes).
    Removing lib.o(.ARM.exidx), (8 bytes).
    Removing lib.o(.ARM.exidx), (8 bytes).
    Removing lib.o(.ARM.exidx), (8 bytes).
    Removing lib.o(.ARM.exidx), (8 bytes).
    Removing lib.o(.ARM.exidx), (8 bytes).
    Removing lib.o(.ARM.exidx), (8 bytes).
    Removing lib.o(.ARM.exidx), (8 bytes).
    Removing lib.o(.ARM.exidx), (8 bytes).
    Removing lib.o(.ARM.exidx), (8 bytes).
    Removing lib.o(.ARM.exidx), (8 bytes).
    Removing lib.o(.ARM.exidx), (8 bytes).
    Removing lib.o(.ARM.exidx), (8 bytes).
    Removing lib.o(.ARM.exidx), (8 bytes).
    Removing lib.o(.ARM.exidx), (8 bytes).
    Removing lib.o(.ARM.exidx), (8 bytes).
    Removing lib.o(.ARM.exidx), (8 bytes).
    Removing lib.o(.ARM.exidx), (8 bytes).
    Removing lib.o(.ARM.exidx), (8 bytes).
    Removing lib.o(.ARM.exidx), (8 bytes).
    Removing lib.o(.ARM.exidx), (8 bytes).
    Removing lib.o(.ARM.exidx), (8 bytes).
    Removing lib.o(.ARM.exidx), (8 bytes).
    Removing lib.o(.ARM.exidx), (8 bytes).
    Removing lib.o(.ARM.exidx), (8 bytes).
    Removing lib.o(.ARM.exidx), (8 bytes).
    Removing lib.o(.ARM.exidx), (8 bytes).
    Removing lib.o(.ARM.exidx), (8 bytes).
    Removing lib.o(.ARM.exidx), (8 bytes).
    Removing lib.o(.ARM.exidx), (8 bytes).
    Removing lib.o(.ARM.exidx), (8 bytes).
    Removing lib.o(.ARM.exidx), (8 bytes).
    Removing lib.o(.ARM.exidx), (8 bytes).
    Removing lib.o(.ARM.exidx), (8 bytes).
    Removing lib.o(.ARM.exidx), (8 bytes).
    Removing lib.o(.ARM.exidx), (8 bytes).
    Removing lib.o(.ARM.exidx), (8 bytes).
    Removing lib.o(.ARM.exidx), (8 bytes).
    Removing lib.o(.ARM.exidx), (8 bytes).
    Removing lib.o(.ARM.exidx), (8 bytes).
    Removing lib.o(.ARM.exidx), (8 bytes).
    Removing lib.o(.ARM.exidx), (8 bytes).
    Removing lib.o(.ARM.exidx), (8 bytes).
    Removing lib.o(.ARM.exidx), (8 bytes).
    Removing lib.o(.ARM.exidx), (8 bytes).
    Removing lib.o(.ARM.exidx), (8 bytes).
    Removing lib.o(.ARM.exidx), (8 bytes).
    Removing lib.o(.ARM.exidx), (8 bytes).
    Removing lib.o(.ARM.exidx), (8 bytes).
    Removing lib.o(.ARM.exidx), (8 bytes).
    Removing lib.o(.ARM.exidx), (8 bytes).
    Removing lib.o(.ARM.exidx), (8 bytes).
    Removing lib.o(.ARM.exidx), (8 bytes).
    Removing lib.o(.ARM.exidx), (8 bytes).
    Removing lib.o(.ARM.exidx), (8 bytes).
    Removing lib.o(.ARM.exidx), (8 bytes).
    Removing lib.o(.ARM.exidx), (8 bytes).
    Removing lib.o(.ARM.exidx), (8 bytes).
    Removing lib.o(.ARM.exidx), (8 bytes).
    Removing lib.o(.ARM.exidx), (8 bytes).
    Removing lib.o(.ARM.exidx), (8 bytes).
    Removing lib.o(.ARM.exidx), (8 bytes).
    Removing lib.o(.ARM.exidx), (8 bytes).
    Removing lib.o(.ARM.exidx), (8 bytes).
    Removing lib.o(.ARM.exidx), (8 bytes).
    Removing lib.o(.ARM.exidx), (8 bytes).
    Removing lib.o(.ARM.exidx), (8 bytes).
    Removing lib.o(.ARM.exidx), (8 bytes).
    Removing lib.o(.ARM.exidx), (8 bytes).
    Removing lib.o(.ARM.exidx), (8 bytes).
    Removing lib.o(.ARM.exidx), (8 bytes).
    Removing lib.o(.ARM.exidx), (8 bytes).
    Removing lib.o(.ARM.exidx), (8 bytes).
    Removing lib.o(.ARM.exidx), (8 bytes).
    Removing lib.o(.ARM.exidx), (8 bytes).
    Removing lib.o(.ARM.exidx), (8 bytes).
    Removing lib.o(.ARM.exidx), (8 bytes).
    Removing lib.o(.ARM.exidx), (8 bytes).
    Removing lib.o(.ARM.exidx), (8 bytes).
    Removing lib.o(.ARM.exidx), (8 bytes).
    Removing lib.o(.ARM.exidx), (8 bytes).
    Removing lib.o(.ARM.exidx), (8 bytes).
    Removing lib.o(.ARM.exidx), (8 bytes).
    Removing lib.o(.ARM.exidx), (8 bytes).
    Removing lib.o(.ARM.exidx), (8 bytes).
    Removing lib.o(.ARM.exidx), (8 bytes).
    Removing lib.o(.ARM.exidx), (8 bytes).
    Removing lib.o(.ARM.exidx), (8 bytes).
    Removing lib.o(.ARM.exidx), (8 bytes).
    Removing lib.o(.ARM.exidx), (8 bytes).
    Removing lib.o(.ARM.exidx), (8 bytes).
    Removing lib.o(.ARM.exidx), (8 bytes).
    Removing lib.o(.ARM.exidx), (8 bytes).
    Removing lib.o(.ARM.exidx), (8 bytes).
    Removing lib.o(.ARM.exidx), (8 bytes).
    Removing lib.o(.ARM.exidx), (8 bytes).
    Removing lib.o(.ARM.exidx), (8 bytes).
    Removing lib.o(.ARM.exidx), (8 bytes).
    Removing lib.o(.ARM.exidx), (8 bytes).
    Removing lib.o(.ARM.exidx), (8 bytes).
    Removing lib.o(.ARM.exidx), (8 bytes).
    Removing lib.o(.ARM.exidx), (8 bytes).
    Removing lib.o(.ARM.exidx), (8 bytes).
    Removing lib.o(.ARM.exidx), (8 bytes).
    Removing lib.o(.ARM.exidx), (8 bytes).
    Removing lib.o(.ARM.exidx), (8 bytes).
    Removing lib.o(.ARM.exidx), (8 bytes).
    Removing lib.o(.ARM.exidx), (8 bytes).
    Removing lib.o(.ARM.exidx), (8 bytes).
    Removing lib.o(.ARM.exidx), (8 bytes).
    Removing lib.o(.ARM.exidx), (8 bytes).
    Removing lib.o(.ARM.exidx), (8 bytes).
    Removing lib.o(.ARM.exidx), (8 bytes).
    Removing lib.o(.ARM.exidx), (8 bytes).
    Removing lib.o(.ARM.exidx), (8 bytes).
    Removing lib.o(.ARM.exidx), (8 bytes).
    Removing lib.o(.ARM.exidx), (8 bytes).
    Removing lib.o(.ARM.exidx), (8 bytes).
    Removing lib.o(.ARM.exidx), (8 bytes).
    Removing lib.o(.ARM.exidx), (8 bytes).
    Removing lib.o(.ARM.exidx), (8 bytes).
    Removing lib.o(.ARM.exidx), (8 bytes).
    Removing lib.o(.ARM.exidx), (8 bytes).
    Removing lib.o(.ARM.exidx), (8 bytes).
    Removing lib.o(.ARM.exidx), (8 bytes).
    Removing lib.o(.ARM.exidx), (8 bytes).
    Removing lib.o(.ARM.exidx), (8 bytes).
    Removing lib.o(.ARM.exidx), (8 bytes).
    Removing lib.o(.ARM.exidx), (8 bytes).
    Removing lib.o(.ARM.exidx), (8 bytes).
    Removing lib.o(.ARM.exidx), (8 bytes).
    Removing lib.o(.ARM.exidx), (8 bytes).
    Removing lib.o(.ARM.exidx), (8 bytes).
    Removing lib.o(.ARM.exidx), (8 bytes).
    Removing lib.o(.ARM.exidx), (8 bytes).
    Removing lib.o(.ARM.exidx), (8 bytes).
    Removing lib.o(.ARM.exidx), (8 bytes).
    Removing lib.o(.ARM.exidx), (8 bytes).
    Removing lib.o(.ARM.exidx), (8 bytes).
    Removing lib.o(.ARM.exidx), (8 bytes).
    Removing lib.o(.ARM.exidx), (8 bytes).
    Removing lib.o(.ARM.exidx), (8 bytes).
    Removing lib.o(.ARM.exidx), (8 bytes).
    Removing lib.o(.ARM.exidx), (8 bytes).
    Removing lib.o(.ARM.exidx), (8 bytes).
    Removing lib.o(.ARM.exidx), (8 bytes).
    Removing lib.o(.ARM.exidx), (8 bytes).
    Removing lib.o(.ARM.exidx), (8 bytes).
    Removing lib.o(.ARM.exidx), (8 bytes).
    Removing lib.o(.ARM.exidx), (8 bytes).
    Removing lib.o(.ARM.exidx), (8 bytes).
    Removing lib.o(.ARM.exidx), (8 bytes).
    Removing lib.o(.ARM.exidx), (8 bytes).
    Removing lib.o(.ARM.exidx), (8 bytes).
    Removing lib.o(.ARM.exidx), (8 bytes).
    Removing lib.o(.ARM.exidx), (8 bytes).
    Removing lib.o(.ARM.exidx), (8 bytes).
    Removing lib.o(.ARM.exidx), (8 bytes).
    Removing lib.o(.ARM.exidx), (8 bytes).
    Removing lib.o(.ARM.exidx), (8 bytes).
    Removing lib.o(.ARM.exidx), (8 bytes).
    Removing lib.o(.ARM.exidx), (8 bytes).
    Removing lib.o(.ARM.exidx), (8 bytes).
    Removing lib.o(.ARM.exidx), (8 bytes).
    Removing lib.o(.ARM.exidx), (8 bytes).
    Removing lib.o(.ARM.exidx), (8 bytes).
    Removing lib.o(.ARM.exidx), (8 bytes).
    Removing lib.o(.ARM.exidx), (8 bytes).
    Removing lib.o(.ARM.exidx), (8 bytes).
    Removing lib.o(.ARM.exidx), (8 bytes).
    Removing lib.o(.ARM.exidx), (8 bytes).
    Removing lib.o(.ARM.exidx), (8 bytes).
    Removing lib.o(.ARM.exidx), (8 bytes).
    Removing lib.o(.ARM.exidx), (8 bytes).
    Removing lib.o(.ARM.exidx), (8 bytes).
    Removing lib.o(.ARM.exidx), (8 bytes).
    Removing lib.o(.ARM.exidx), (8 bytes).
    Removing lib.o(.ARM.exidx), (8 bytes).
    Removing lib.o(.ARM.exidx), (8 bytes).
    Removing lib.o(.ARM.exidx), (8 bytes).
    Removing lib.o(.ARM.exidx), (8 bytes).
    Removing lib.o(.ARM.exidx), (8 bytes).
    Removing lib.o(.ARM.exidx), (8 bytes).
    Removing lib.o(.ARM.exidx), (8 bytes).
    Removing lib.o(.ARM.exidx), (8 bytes).
    Removing lib.o(.ARM.exidx), (8 bytes).
    Removing lib.o(.ARM.exidx), (8 bytes).
    Removing lib.o(.ARM.exidx), (8 bytes).
    Removing lib.o(.ARM.exidx), (8 bytes).
    Removing lib.o(.ARM.exidx), (8 bytes).
    Removing lib.o(.ARM.exidx), (8 bytes).
    Removing lib.o(.ARM.exidx), (8 bytes).
    Removing lib.o(.ARM.exidx), (8 bytes).
    Removing lib.o(.ARM.exidx), (8 bytes).
    Removing lib.o(.ARM.exidx), (8 bytes).
    Removing lib.o(.ARM.exidx), (8 bytes).
    Removing lib.o(.ARM.exidx), (8 bytes).
    Removing lib.o(.ARM.exidx), (8 bytes).
    Removing lib.o(.ARM.exidx), (8 bytes).
    Removing lib.o(.ARM.exidx), (8 bytes).
    Removing lib.o(.ARM.exidx), (8 bytes).
    Removing lib.o(.ARM.exidx), (8 bytes).
    Removing lib.o(.ARM.exidx), (8 bytes).
    Removing lib.o(.ARM.exidx), (8 bytes).
    Removing lib.o(.ARM.exidx), (8 bytes).
    Removing lib.o(.ARM.exidx), (8 bytes).
    Removing lib.o(.ARM.exidx), (8 bytes).
    Removing lib.o(.ARM.exidx), (8 bytes).
    Removing lib.o(.ARM.exidx), (8 bytes).
    Removing lib.o(.ARM.exidx), (8 bytes).
    Removing lib.o(.ARM.exidx), (8 bytes).
    Removing lib.o(.ARM.exidx), (8 bytes).
    Removing lib.o(.ARM.exidx), (8 bytes).
    Removing lib.o(.ARM.exidx), (8 bytes).
    Removing lib.o(.ARM.exidx), (8 bytes).
    Removing lib.o(.ARM.exidx), (8 bytes).
    Removing lib.o(.ARM.exidx), (8 bytes).
    Removing lib.o(.ARM.exidx), (8 bytes).
    Removing lib.o(.ARM.exidx), (8 bytes).
    Removing lib.o(.ARM.exidx), (8 bytes).
    Removing lib.o(.ARM.exidx), (8 bytes).
    Removing lib.o(.ARM.exidx), (8 bytes).
    Removing lib.o(.ARM.exidx), (8 bytes).
    Removing lib.o(.ARM.exidx), (8 bytes).
    Removing lib.o(.ARM.exidx), (8 bytes).
    Removing lib.o(.ARM.exidx), (8 bytes).
    Removing lib.o(.ARM.exidx), (8 bytes).
    Removing lib.o(.ARM.exidx), (8 bytes).
    Removing lib.o(.ARM.exidx), (8 bytes).
    Removing lib.o(.ARM.exidx), (8 bytes).
    Removing lib.o(.ARM.exidx), (8 bytes).
    Removing lib.o(.ARM.exidx), (8 bytes).
    Removing lib.o(.ARM.exidx), (8 bytes).
    Removing lib.o(.ARM.exidx), (8 bytes).
    Removing lib.o(.ARM.exidx), (8 bytes).
    Removing lib.o(.ARM.exidx), (8 bytes).
    Removing lib.o(.ARM.exidx), (8 bytes).
    Removing lib.o(.ARM.exidx), (8 bytes).
    Removing lib.o(.ARM.exidx), (8 bytes).
    Removing lib.o(.ARM.exidx), (8 bytes).
    Removing lib.o(.ARM.exidx), (8 bytes).
    Removing lib.o(.ARM.exidx), (8 bytes).
    Removing lib.o(.ARM.exidx), (8 bytes).
    Removing lib.o(.ARM.exidx), (8 bytes).
    Removing lib.o(.ARM.exidx), (8 bytes).
    Removing lib.o(.ARM.exidx), (8 bytes).
    Removing lib.o(.ARM.exidx), (8 bytes).
    Removing lib.o(.ARM.exidx), (8 bytes).
    Removing lib.o(.ARM.exidx), (8 bytes).
    Removing lib.o(.ARM.exidx), (8 bytes).
    Removing lib.o(.ARM.exidx), (8 bytes).
    Removing lib.o(.ARM.exidx), (8 bytes).
    Removing lib.o(.ARM.exidx), (8 bytes).
    Removing lib.o(.ARM.exidx), (8 bytes).
    Removing lib.o(.ARM.exidx), (8 bytes).
    Removing lib.o(.ARM.exidx), (8 bytes).
    Removing lib.o(.ARM.exidx), (8 bytes).
    Removing lib.o(.ARM.exidx), (8 bytes).
    Removing lib.o(.ARM.exidx), (8 bytes).
    Removing lib.o(.ARM.exidx), (8 bytes).
    Removing lib.o(.ARM.exidx), (8 bytes).
    Removing lib.o(.ARM.exidx), (8 bytes).
    Removing lib.o(.ARM.exidx), (8 bytes).
    Removing lib.o(.ARM.exidx), (8 bytes).
    Removing lib.o(.ARM.exidx), (8 bytes).
    Removing lib.o(.ARM.exidx), (8 bytes).
    Removing lib.o(.ARM.exidx), (8 bytes).
    Removing lib.o(.ARM.exidx), (8 bytes).
    Removing lib.o(.ARM.exidx), (8 bytes).
    Removing lib.o(.ARM.exidx), (8 bytes).
    Removing lib.o(.ARM.exidx), (8 bytes).
    Removing lib.o(.ARM.exidx), (8 bytes).
    Removing lib.o(.ARM.exidx), (8 bytes).
    Removing lib.o(.ARM.exidx), (8 bytes).
    Removing lib.o(.ARM.exidx), (8 bytes).
    Removing lib.o(.ARM.exidx), (8 bytes).
    Removing lib.o(.ARM.exidx), (8 bytes).
    Removing lib.o(.ARM.exidx), (8 bytes).
    Removing lib.o(.ARM.exidx), (8 bytes).
    Removing lib.o(.ARM.exidx), (8 bytes).
    Removing lib.o(.ARM.exidx), (8 bytes).
    Removing lib.o(.ARM.exidx), (8 bytes).
    Removing lib.o(.ARM.exidx), (8 bytes).
    Removing lib.o(.ARM.exidx), (8 bytes).
    Removing lib.o(.ARM.exidx), (8 bytes).
    Removing lib.o(.ARM.exidx), (8 bytes).
    Removing lib.o(.ARM.exidx), (8 bytes).
    Removing lib.o(.ARM.exidx), (8 bytes).
    Removing lib.o(.ARM.exidx), (8 bytes).
    Removing lib.o(.ARM.exidx), (8 bytes).
    Removing lib.o(.ARM.exidx), (8 bytes).
    Removing lib.o(.ARM.exidx), (8 bytes).
    Removing lib.o(.ARM.exidx), (8 bytes).
    Removing lib.o(.ARM.exidx), (8 bytes).
    Removing lib.o(.ARM.exidx), (8 bytes).
    Removing lib.o(.ARM.exidx), (8 bytes).
    Removing lib.o(.ARM.exidx), (8 bytes).
    Removing lib.o(.ARM.exidx), (8 bytes).
    Removing lib.o(.ARM.exidx), (8 bytes).
    Removing lib.o(.ARM.exidx), (8 bytes).
    Removing lib.o(.ARM.exidx), (8 bytes).
    Removing lib.o(.ARM.exidx), (8 bytes).
    Removing lib.o(.ARM.exidx), (8 bytes).
    Removing lib.o(.ARM.exidx), (8 bytes).
    Removing lib.o(.ARM.exidx), (8 bytes).
    Removing lib.o(.ARM.exidx), (8 bytes).
    Removing lib.o(.ARM.exidx), (8 bytes).
    Removing lib.o(.ARM.exidx), (8 bytes).
    Removing lib.o(.ARM.exidx), (8 bytes).
    Removing lib.o(.ARM.exidx), (8 bytes).
    Removing lib.o(.ARM.exidx), (8 bytes).
    Removing lib.o(.ARM.exidx), (8 bytes).
    Removing lib.o(.ARM.exidx), (8 bytes).
    Removing lib.o(.ARM.exidx), (8 bytes).
    Removing lib.o(.ARM.exidx), (8 bytes).
    Removing lib.o(.ARM.exidx), (8 bytes).
    Removing lib.o(.ARM.exidx), (8 bytes).
    Removing lib.o(.ARM.exidx), (8 bytes).
    Removing lib.o(.ARM.exidx), (8 bytes).
    Removing lib.o(.ARM.exidx), (8 bytes).
    Removing lib.o(.ARM.exidx), (8 bytes).
    Removing lib.o(.ARM.exidx), (8 bytes).
    Removing lib.o(.ARM.exidx), (8 bytes).
    Removing lib.o(.ARM.exidx), (8 bytes).
    Removing lib.o(.ARM.exidx), (8 bytes).
    Removing lib.o(.ARM.exidx), (8 bytes).
    Removing lib.o(.ARM.exidx), (8 bytes).
    Removing lib.o(.ARM.exidx), (8 bytes).
    Removing lib.o(.ARM.exidx), (8 bytes).
    Removing lib.o(.ARM.exidx), (8 bytes).
    Removing lib.o(.ARM.exidx), (8 bytes).
    Removing lib.o(.ARM.exidx), (8 bytes).
    Removing lib.o(.ARM.exidx), (8 bytes).
    Removing lib.o(.ARM.exidx), (8 bytes).
    Removing lib.o(.ARM.exidx), (8 bytes).
    Removing lib.o(.ARM.exidx), (8 bytes).
    Removing lib.o(.ARM.exidx), (8 bytes).
    Removing lib.o(.ARM.exidx), (8 bytes).
    Removing lib.o(.ARM.exidx), (8 bytes).
    Removing lib.o(.ARM.exidx), (8 bytes).
    Removing lib.o(.ARM.exidx), (8 bytes).
    Removing lib.o(.ARM.exidx), (8 bytes).
    Removing lib.o(.ARM.exidx), (8 bytes).
    Removing lib.o(.ARM.exidx), (8 bytes).
    Removing lib.o(.ARM.exidx), (8 bytes).
    Removing lib.o(.ARM.exidx), (8 bytes).
    Removing lib.o(.ARM.exidx), (8 bytes).
    Removing lib.o(.ARM.exidx), (8 bytes).
    Removing lib.o(.ARM.exidx), (8 bytes).
    Removing lib.o(.ARM.exidx), (8 bytes).
    Removing lib.o(.ARM.exidx), (8 bytes).
    Removing lib.o(.ARM.exidx), (8 bytes).
    Removing lib.o(.ARM.exidx), (8 bytes).
    Removing lib.o(.ARM.exidx), (8 bytes).
    Removing lib.o(.ARM.exidx), (8 bytes).
    Removing lib.o(.constdata), (24 bytes).
    Removing rtos.o(.rev16_text), (4 bytes).
    Removing rtos.o(.revsh_text), (4 bytes).
    Removing rtos.o(i._ZN5cRTOS4StopERNS_4TaskE), (48 bytes).
    Removing rtos.o(i._ZN5cRTOS4Task4StopEv), (30 bytes).
    Removing rtos.o(i._ZN5cRTOS4Task5PauseEt), (32 bytes).
    Removing rtos.o(i._ZN5cRTOS4Task5StartEv), (30 bytes).
    Removing rtos.o(i._ZN5cRTOS4Task6FinishEv), (30 bytes).
    Removing rtos.o(i._ZN5cRTOS4Task7starterEPv), (24 bytes).
    Removing rtos.o(i._ZN5cRTOS4TaskC2ERS_j), (44 bytes).
    Removing rtos.o(i._ZN5cRTOS4TaskD0Ev), (18 bytes).
    Removing rtos.o(i._ZN5cRTOS4TaskD2Ev), (32 bytes).
    Removing rtos.o(i._ZN5cRTOS5PauseERNS_4TaskE), (24 bytes).
    Removing rtos.o(i._ZN5cRTOS5StartERNS_4TaskE), (56 bytes).
    Removing rtos.o(i._ZN5cRTOS5Timer12getTimeOfTicEv), (8 bytes).
    Removing rtos.o(i._ZN5cRTOS5Timer7getTicsEv), (10 bytes).
    Removing rtos.o(i._ZN5cRTOS5TimerC1Et), (36 bytes).
    Removing rtos.o(i._ZN5cRTOSC2Ev), (20 bytes).
    Removing rtos.o(.ARM.exidx), (8 bytes).
    Removing rtos.o(.ARM.exidx), (8 bytes).
    Removing rtos.o(.ARM.exidx), (8 bytes).
    Removing rtos.o(.ARM.exidx), (8 bytes).
    Removing rtos.o(.ARM.exidx), (8 bytes).
    Removing rtos.o(.ARM.exidx), (8 bytes).
    Removing rtos.o(.ARM.exidx), (8 bytes).
    Removing rtos.o(.ARM.exidx), (8 bytes).
    Removing rtos.o(.ARM.exidx), (8 bytes).
    Removing rtos.o(.ARM.exidx), (8 bytes).
    Removing rtos.o(.ARM.exidx), (8 bytes).
    Removing rtos.o(.ARM.exidx), (8 bytes).
    Removing rtos.o(.ARM.exidx), (8 bytes).
    Removing rtos.o(.ARM.exidx), (8 bytes).
    Removing rtos.o(.ARM.exidx), (8 bytes).
    Removing rtos.o(.data), (4 bytes).
    Removing main.o(.rev16_text), (4 bytes).
    Removing main.o(.revsh_text), (4 bytes).
    Removing main.o(.ARM.exidx), (8 bytes).
    Removing main.o(.ARM.exidx), (8 bytes).
    Removing main.o(.ARM.exidx), (8 bytes).
    Removing main.o(.ARM.exidx), (8 bytes).
    Removing gui.o(.rev16_text), (4 bytes).
    Removing gui.o(.revsh_text), (4 bytes).
    Removing gui.o(.ARM.exidx), (8 bytes).
    Removing lib.o(.constdata__ZTVN12cHwI2Cmaster6DeviceE), (60 bytes).
    Removing lib.o(.constdata__ZTV10cHwUSBdesc), (64 bytes).
    Removing lib.o(.constdata__ZTV6cHwUSB), (48 bytes).
    Removing lib.o(.constdata__ZTV8cHwUSB_0), (48 bytes).
    Removing lib.o(.constdata__ZTV14cHwDAC_MAX5308), (20 bytes).
    Removing lib.o(.constdata__ZTV14cHwDAC_MCP4441), (20 bytes).
    Removing lib.o(.constdata__ZTV14cHwDAC_MCP4922), (20 bytes).
    Removing lib.o(.constdata__ZTVN13cNetTransport6SocketE), (84 bytes).
    Removing lib.o(.constdata__ZTV13cNetTransport), (28 bytes).
    Removing lib.o(.constdata__ZTV7cNetUDP), (32 bytes).
    Removing lib.o(.constdata__ZTV8cNetDHCP), (20 bytes).
    Removing lib.o(.constdata__ZTV7cNetTCP), (32 bytes).
    Removing lib.o(.constdata__ZTV20cDevDigitalIndicator), (24 bytes).
    Removing lib.o(.constdata__ZTV11cHwEthernet), (28 bytes).
    Removing lib.o(.constdata__ZTV12cHwI2Cmaster), (40 bytes).
    Removing lib.o(.constdata__ZTV17cHwI2Cmaster_Emul), (48 bytes).
    Removing lib.o(.constdata__ZTVN7cNetUDP6SocketE), (84 bytes).
    Removing lib.o(.constdata__ZTVN7cNetTCP6SocketE), (84 bytes).
    Removing lib.o(.constdata__ZTV7cHwUART), (48 bytes).
    Removing lib.o(.constdata__ZTV10cHwUSBctrl), (24 bytes).
    Removing lib.o(.constdata__ZTV16cHwEthernet_EMAC), (28 bytes).
    Removing lib.o(.constdata__ZTV15cHwMemory_Flash), (44 bytes).
    Removing lib.o(.constdata__ZTV13cHwMemory_RAM), (44 bytes).
    Removing lib.o(.constdata__ZTV8cHwRTC_0), (16 bytes).
    Removing lib.o(.constdata__ZTV14cHwSPImaster_0), (16 bytes).
    Removing lib.o(.constdata__ZTV9cHwUART_N), (52 bytes).
    Removing lib.o(.constdata__ZTV14cHwDisp_DIP204), (28 bytes).
    Removing lib.o(.constdata__ZTV17cHwDisp_DIP204spi), (28 bytes).
    Removing lib.o(.constdata__ZTV18cHwDisp_ILI9341spi), (80 bytes).
    Removing lib.o(.constdata__ZTV16cHwEEPROM_24C256), (44 bytes).
    Removing lib.o(.constdata__ZTV20cHwEthernet_Enc28j60), (28 bytes).
    Removing lib.o(.constdata__ZTV15cHwPort_PCF8574), (56 bytes).
    Removing lib.o(.constdata__ZTV16cHwPort_Terminal), (48 bytes).
    Removing lib.o(.constdata__ZTV14cHwRAM_PCF8583), (44 bytes).
    Removing lib.o(.constdata__ZTV14cHwRTC_PCF8583), (16 bytes).
    Removing lib.o(.constdata__ZTV16cHwTouch_ADS7846), (24 bytes).
    Removing lib.o(.constdata__ZTV20cHwTouch_STMPE811i2c), (24 bytes).
    Removing lib.o(.constdata__ZTV15cDevAnalogInADC), (20 bytes).
    Removing lib.o(.constdata__ZTV13cDevAnalogOut), (20 bytes).
    Removing lib.o(.constdata__ZTV16cDevAnalogOutDAC), (20 bytes).
    Removing lib.o(.constdata__ZTV16cDevAnalogOutPWM), (20 bytes).
    Removing lib.o(.constdata__ZTV20cDevAnalogOutPWMemul), (36 bytes).
    Removing lib.o(.constdata__ZTV10cDevTextIO), (20 bytes).
    Removing lib.o(.constdata__ZTV28cDevControlEncoderRotaryKnob), (20 bytes).
    Removing lib.o(.constdata__ZTV18cDevControlPointer), (12 bytes).
    Removing lib.o(.constdata__ZTV12cTaskHandler), (28 bytes).
    Removing lib.o(.constdata__ZTVN12cTaskHandler5TimerE), (16 bytes).
    Removing lib.o(.ARM.exidx), (8 bytes).
    Removing lib.o(t._Z5RANGEIiET_S0_S0_S0_), (22 bytes).
    Removing lib.o(.ARM.exidx), (8 bytes).
    Removing lib.o(.ARM.exidx), (8 bytes).
    Removing lib.o(.ARM.exidx), (8 bytes).
    Removing lib.o(.ARM.exidx), (8 bytes).
    Removing lib.o(i._ZN12cHwI2Cmaster6DeviceC1ERS_h), (20 bytes).
    Removing lib.o(.ARM.exidx), (8 bytes).
    Removing lib.o(i._ZN12cHwSPImaster6Device5writeEt), (48 bytes).
    Removing lib.o(.ARM.exidx), (8 bytes).
    Removing lib.o(.ARM.exidx), (8 bytes).
    Removing lib.o(i._ZN12cHwSPImaster6Device8writeExtEhh), (42 bytes).
    Removing lib.o(.ARM.exidx), (8 bytes).
    Removing lib.o(i._ZN12cHwSPImaster6Device8writeExtEht), (54 bytes).
    Removing lib.o(.ARM.exidx), (8 bytes).
    Removing lib.o(.ARM.exidx), (8 bytes).
    Removing lib.o(t._ZN5cFifoIhEC1Eh), (34 bytes).
    Removing lib.o(.ARM.exidx), (8 bytes).
    Removing lib.o(t._ZN5cFifoIhE6isFullEv), (32 bytes).
    Removing lib.o(.ARM.exidx), (8 bytes).
    Removing lib.o(t._ZN5cFifoIhErsERh), (60 bytes).
    Removing lib.o(.ARM.exidx), (8 bytes).
    Removing lib.o(t._ZN5cFifoIhElsERKh), (64 bytes).
    Removing lib.o(.ARM.exidx), (8 bytes).
    Removing lib.o(i._ZN12cDataPointeraSERKS_), (26 bytes).
    Removing lib.o(.ARM.exidx), (8 bytes).
    Removing lib.o(i._ZN12cDataPointer5shiftEt), (28 bytes).
    Removing lib.o(.ARM.exidx), (8 bytes).
    Removing lib.o(i._ZN10cHwUSBctrl11ReqEndpointEv), (186 bytes).
    Removing lib.o(.ARM.exidx), (8 bytes).
    Removing lib.o(i._ZN10cHwUSBctrl17ReqInterfaceClassEv), (234 bytes).
    Removing lib.o(.ARM.exidx), (8 bytes).
    Removing lib.o(i._ZN10cHwUSBctrl12ReqInterfaceEv), (150 bytes).
    Removing lib.o(.ARM.exidx), (8 bytes).
    Removing lib.o(i._ZN10cHwUSBctrl29ReqDeviceStd_SetConfigurationEv), (280 bytes).
    Removing lib.o(.ARM.exidx), (8 bytes).
    Removing lib.o(i._ZN10cHwUSBctrl26ReqDeviceStd_GetDescriptorEv), (242 bytes).
    Removing lib.o(.ARM.exidx), (8 bytes).
    Removing lib.o(i._ZN10cHwUSBctrl9ReqDeviceEv), (216 bytes).
    Removing lib.o(.ARM.exidx), (8 bytes).
    Removing lib.o(.ARM.exidx), (8 bytes).
    Removing lib.o(.ARM.exidx), (8 bytes).
    Removing lib.o(.ARM.exidx), (8 bytes).
    Removing lib.o(i._ZN13cNetTransport6Socket4fillEc), (18 bytes).
    Removing lib.o(.ARM.exidx), (8 bytes).
    Removing lib.o(i._ZN13cNetTransport6Socket4fillEPKc), (28 bytes).
    Removing lib.o(.ARM.exidx), (8 bytes).
    Removing lib.o(i._ZN13cNetTransport6Socket10setTimeoutEtt), (18 bytes).
    Removing lib.o(.ARM.exidx), (8 bytes).
    Removing lib.o(i._ZN17cHwSensMag_LSM3038readWordEh), (32 bytes).
    Removing lib.o(.ARM.exidx), (8 bytes).
    Removing lib.o(i._ZN18cHwSensGyro_L3GD208readWordEh), (34 bytes).
    Removing lib.o(.ARM.exidx), (8 bytes).
    Removing lib.o(i._ZN17cHwSensAcc_LSM3038readWordEh), (34 bytes).
    Removing lib.o(.ARM.exidx), (8 bytes).
    Removing lib.o(i._ZN4cCRC9tabMethodEh), (42 bytes).
    Removing lib.o(.ARM.exidx), (8 bytes).
    Removing lib.o(i._ZN20cDevDigitalIndicator3clrEv), (14 bytes).
    Removing lib.o(.ARM.exidx), (8 bytes).
    Removing lib.o(.ARM.exidx), (8 bytes).
    Removing lib.o(.ARM.exidx), (8 bytes).
    Removing lib.o(.ARM.exidx), (8 bytes).
    Removing lib.o(t._Z3MINItET_S0_S0_), (14 bytes).
    Removing lib.o(.ARM.exidx), (8 bytes).
    Removing lib.o(.ARM.exidx), (8 bytes).
    Removing lib.o(.ARM.exidx), (8 bytes).
    Removing lib.o(i._ZN6cHwADC19getNumberOfChannelsEv), (6 bytes).
    Removing lib.o(.ARM.exidx), (8 bytes).
    Removing lib.o(.ARM.exidx), (8 bytes).
    Removing lib.o(.ARM.exidx), (8 bytes).
    Removing lib.o(.ARM.exidx), (8 bytes).
    Removing lib.o(.ARM.exidx), (8 bytes).
    Removing lib.o(i._ZN6cHwDAC19getNumberOfChannelsEv), (6 bytes).
    Removing lib.o(.ARM.exidx), (8 bytes).
    Removing lib.o(t._ZNK8cNetAddrILh4EEeqERKS0_), (26 bytes).
    Removing lib.o(.ARM.exidx), (8 bytes).
    Removing lib.o(t._ZNK8cNetAddrILh6EEeqERKS0_), (26 bytes).
    Removing lib.o(.ARM.exidx), (8 bytes).
    Removing lib.o(t._ZN8cNetTYPEItEaSEt), (16 bytes).
    Removing lib.o(.ARM.exidx), (8 bytes).
    Removing lib.o(t._ZN8cNetTYPEItEcvtEv), (12 bytes).
    Removing lib.o(.ARM.exidx), (8 bytes).
    Removing lib.o(.ARM.exidx), (8 bytes).
    Removing lib.o(i._ZN9cHwMemory5writeEjh), (28 bytes).
    Removing lib.o(.ARM.exidx), (8 bytes).
    Removing lib.o(i._ZN9cHwMemory4readEj), (28 bytes).
    Removing lib.o(.ARM.exidx), (8 bytes).
    Removing lib.o(i._ZN9cHwMemory5clearEj), (34 bytes).
    Removing lib.o(.ARM.exidx), (8 bytes).
    Removing lib.o(i._ZN9cHwMemory7getSizeEv), (6 bytes).
    Removing lib.o(.ARM.exidx), (8 bytes).
    Removing lib.o(i._ZN9cHwMemory7isFlashEv), (6 bytes).
    Removing lib.o(.ARM.exidx), (8 bytes).
    Removing lib.o(i._ZN13cHwMemory_RAM9writeByteEjh), (38 bytes).
    Removing lib.o(.ARM.exidx), (8 bytes).
    Removing lib.o(i._ZN13cHwMemory_RAM8readByteEj), (24 bytes).
    Removing lib.o(.ARM.exidx), (8 bytes).
    Removing lib.o(.ARM.exidx), (8 bytes).
    Removing lib.o(i._ZN9cHwPort_N3setEjj), (20 bytes).
    Removing lib.o(.ARM.exidx), (8 bytes).
    Removing lib.o(.ARM.exidx), (8 bytes).
    Removing lib.o(.ARM.exidx), (8 bytes).
    Removing lib.o(.ARM.exidx), (8 bytes).
    Removing lib.o(.ARM.exidx), (8 bytes).
    Removing lib.o(i._ZN12cHwSPImaster6Device4readEv), (16 bytes).
    Removing lib.o(.ARM.exidx), (8 bytes).
    Removing lib.o(i._ZN12cHwSPImaster6Device4readEPht), (58 bytes).
    Removing lib.o(.ARM.exidx), (8 bytes).
    Removing lib.o(i._ZN12cHwSPImaster6Device5writeEh), (18 bytes).
    Removing lib.o(.ARM.exidx), (8 bytes).
    Removing lib.o(i._ZN7cHwUART14isTxBufferFullEv), (22 bytes).
    Removing lib.o(.ARM.exidx), (8 bytes).
    Removing lib.o(i._ZN7cHwUART5isrRxEv), (24 bytes).
    Removing lib.o(.ARM.exidx), (8 bytes).
    Removing lib.o(i._ZN7cHwUART5isrTxEv), (68 bytes).
    Removing lib.o(.ARM.exidx), (8 bytes).
    Removing lib.o(i._ZN9cHwUART_N7getByteEv), (8 bytes).
    Removing lib.o(.ARM.exidx), (8 bytes).
    Removing lib.o(i._ZN9cHwUART_N7setByteEh), (6 bytes).
    Removing lib.o(.ARM.exidx), (8 bytes).
    Removing lib.o(i._ZN12cDataPointerC1Ev), (8 bytes).
    Removing lib.o(.ARM.exidx), (8 bytes).
    Removing lib.o(i._ZN12cDataPointerC1EPht), (6 bytes).
    Removing lib.o(.ARM.exidx), (8 bytes).
    Removing lib.o(i._ZNK12cDataPointer6getPtrEv), (6 bytes).
    Removing lib.o(.ARM.exidx), (8 bytes).
    Removing lib.o(i._ZN12cDataPointer7isEmptyEv), (14 bytes).
    Removing lib.o(.ARM.exidx), (8 bytes).
    Removing lib.o(i._ZN12cDataPointer7getSizeEv), (6 bytes).
    Removing lib.o(.ARM.exidx), (8 bytes).
    Removing lib.o(t._ZN12cDataPointercvPT_IvEEv), (12 bytes).
    Removing lib.o(.ARM.exidx), (8 bytes).
    Removing lib.o(t._ZN12cDataPointercvPT_IN10cHwUSBdesc9cEndpointEEEv), (12 bytes).
    Removing lib.o(.ARM.exidx), (8 bytes).
    Removing lib.o(i._ZN10cHwUSBdesc5getIdEhhhh), (32 bytes).
    Removing lib.o(.ARM.exidx), (8 bytes).
    Removing lib.o(i._ZN10cHwUSBctrl5Setup8valueLowEv), (6 bytes).
    Removing lib.o(.ARM.exidx), (8 bytes).
    Removing lib.o(i._ZN10cHwUSBctrl5Setup8indexLowEv), (6 bytes).
    Removing lib.o(.ARM.exidx), (8 bytes).
    Removing lib.o(i._ZN10cHwUSBctrl5Setup5valueEv), (6 bytes).
    Removing lib.o(.ARM.exidx), (8 bytes).
    Removing lib.o(i._ZN10cHwUSBctrl25ReqEndpointStd_ClrFeatureEv), (88 bytes).
    Removing lib.o(.ARM.exidx), (8 bytes).
    Removing lib.o(i._ZN10cHwUSBctrl5Setup7requestEv), (6 bytes).
    Removing lib.o(.ARM.exidx), (8 bytes).
    Removing lib.o(i._ZN10cHwUSBctrl5Setup7reqTypeEv), (10 bytes).
    Removing lib.o(.ARM.exidx), (8 bytes).
    Removing lib.o(i._ZN10cHwUSBctrl5Setup6lengthEv), (6 bytes).
    Removing lib.o(.ARM.exidx), (8 bytes).
    Removing lib.o(i._ZN10cHwUSBctrl29ReqInterfaceStd_GetDescriptorEv), (136 bytes).
    Removing lib.o(.ARM.exidx), (8 bytes).
    Removing lib.o(i._ZN10cHwUSBctrl5StallEv), (14 bytes).
    Removing lib.o(.ARM.exidx), (8 bytes).
    Removing lib.o(i._ZN8cHwUSB_012epAddr2IndexEh), (16 bytes).
    Removing lib.o(.ARM.exidx), (8 bytes).
    Removing lib.o(i._ZN14cHwDAC_MAX53086enableEh), (2 bytes).
    Removing lib.o(.ARM.exidx), (8 bytes).
    Removing lib.o(i._ZN14cHwDAC_MCP44416enableEh), (2 bytes).
    Removing lib.o(.ARM.exidx), (8 bytes).
    Removing lib.o(i._ZN14cHwDAC_MCP49226enableEh), (2 bytes).
    Removing lib.o(.ARM.exidx), (8 bytes).
    Removing lib.o(i._ZN10cHwDisplay16getNumberOfLinesEv), (6 bytes).
    Removing lib.o(.ARM.exidx), (8 bytes).
    Removing lib.o(i._ZN10cHwDisplay18getNumberOfColumnsEv), (6 bytes).
    Removing lib.o(.ARM.exidx), (8 bytes).
    Removing lib.o(i._ZN17cHwDisplayGraphic14getDefaultFontEv), (14 bytes).
    Removing lib.o(.ARM.exidx), (8 bytes).
    Removing lib.o(.ARM.exidx), (8 bytes).
    Removing lib.o(.ARM.exidx), (8 bytes).
    Removing lib.o(i._ZN20cHwDisp_SPFD5408Bspi8setPixelEttt), (52 bytes).
    Removing lib.o(.ARM.exidx), (8 bytes).
    Removing lib.o(.ARM.exidx), (8 bytes).
    Removing lib.o(i._ZN18cHwDisp_ILI9341spi8writeCmdEh), (20 bytes).
    Removing lib.o(.ARM.exidx), (8 bytes).
    Removing lib.o(i._ZN18cHwDisp_ILI9341spi8writeDatEh), (20 bytes).
    Removing lib.o(.ARM.exidx), (8 bytes).
    Removing lib.o(i._ZN18cHwDisp_ILI9341spi12writeDatWordEt), (20 bytes).
    Removing lib.o(.ARM.exidx), (8 bytes).
    Removing lib.o(i._ZN16cHwDisp_Terminal5clearEv), (20 bytes).
    Removing lib.o(.ARM.exidx), (8 bytes).
    Removing lib.o(i._ZN14cHwRTC_PCF858310Dual_2_BCDEh), (26 bytes).
    Removing lib.o(.ARM.exidx), (8 bytes).
    Removing lib.o(i._ZN14cHwRTC_PCF858310BCD_2_DualEh), (20 bytes).
    Removing lib.o(.ARM.exidx), (8 bytes).
    Removing lib.o(i._ZN8cHwTouch7getPosXEv), (6 bytes).
    Removing lib.o(.ARM.exidx), (8 bytes).
    Removing lib.o(i._ZN8cHwTouch7getPosYEv), (6 bytes).
    Removing lib.o(.ARM.exidx), (8 bytes).
    Removing lib.o(i._ZN8cHwTouch9isTouchedEv), (6 bytes).
    Removing lib.o(.ARM.exidx), (8 bytes).
    Removing lib.o(i._ZN13cNetTransport6Socket11openDefaultEv), (28 bytes).
    Removing lib.o(.ARM.exidx), (8 bytes).
    Removing lib.o(i._ZN13cNetTransport6Socket6updateEv), (2 bytes).
    Removing lib.o(.ARM.exidx), (8 bytes).
    Removing lib.o(i._ZN13cNetTransport6Socket4fillEPKct), (36 bytes).
    Removing lib.o(.ARM.exidx), (8 bytes).
    Removing lib.o(i._ZN7cNetUDP7getAddrEv), (8 bytes).
    Removing lib.o(.ARM.exidx), (8 bytes).
    Removing lib.o(i._ZN7cNetUDP10getAddrPhyEv), (12 bytes).
    Removing lib.o(.ARM.exidx), (8 bytes).
    Removing lib.o(t._ZN8cNetTYPEIjEaSEj), (16 bytes).
    Removing lib.o(.ARM.exidx), (8 bytes).
    Removing lib.o(t._ZN8cNetTYPEIjEcvjEv), (12 bytes).
    Removing lib.o(.ARM.exidx), (8 bytes).
    Removing lib.o(i._ZN8cNetDHCP6updateEv), (2 bytes).
    Removing lib.o(.ARM.exidx), (8 bytes).
    Removing lib.o(i._ZN14cNetTCP_Header13getDataOffsetEv), (18 bytes).
    Removing lib.o(.ARM.exidx), (8 bytes).
    Removing lib.o(i._ZN14cNetTCP_Header13setDataOffsetEh), (26 bytes).
    Removing lib.o(.ARM.exidx), (8 bytes).
    Removing lib.o(i._ZN7cNetTCP7getAddrEv), (8 bytes).
    Removing lib.o(.ARM.exidx), (8 bytes).
    Removing lib.o(i._ZN7cNetTCP10getAddrPhyEv), (12 bytes).
    Removing lib.o(.ARM.exidx), (8 bytes).
    Removing lib.o(i._ZN12cDevAnalogIn3getEv), (40 bytes).
    Removing lib.o(.ARM.exidx), (8 bytes).
    Removing lib.o(i._ZN12cDevAnalogIncvfEv), (14 bytes).
    Removing lib.o(.ARM.exidx), (8 bytes).
    Removing lib.o(i._ZN13cDevAnalogOutaSEf), (20 bytes).
    Removing lib.o(.ARM.exidx), (8 bytes).
    Removing lib.o(i._ZN11cDevDigital3setEv), (16 bytes).
    Removing lib.o(.ARM.exidx), (8 bytes).
    Removing lib.o(i._ZN11cDevDigital3clrEv), (16 bytes).
    Removing lib.o(.ARM.exidx), (8 bytes).
    Removing lib.o(i._ZN11cDevDigital6toggleEv), (26 bytes).
    Removing lib.o(.ARM.exidx), (8 bytes).
    Removing lib.o(.ARM.exidx), (8 bytes).
    Removing lib.o(.ARM.exidx), (8 bytes).
    Removing lib.o(i._ZN11cDevDigital5isClrEv), (14 bytes).
    Removing lib.o(.ARM.exidx), (8 bytes).
    Removing lib.o(.ARM.exidx), (8 bytes).
    Removing lib.o(.ARM.exidx), (8 bytes).
    Removing lib.o(i._ZN11cDevDigital9isChangedEv), (18 bytes).
    Removing lib.o(.ARM.exidx), (8 bytes).
    Removing lib.o(i._ZN11cDevDigitalaSEb), (20 bytes).
    Removing lib.o(.ARM.exidx), (8 bytes).
    Removing lib.o(i._ZN11cDevDigitalaSERS_), (30 bytes).
    Removing lib.o(.ARM.exidx), (8 bytes).
    Removing lib.o(i._ZN11cDevDigitalcvbEv), (14 bytes).
    Removing lib.o(.ARM.exidx), (8 bytes).
    Removing lib.o(i._ZN20cDevDigitalIndicator3setEv), (14 bytes).
    Removing lib.o(.ARM.exidx), (8 bytes).
    Removing lib.o(i._ZN20cDevDigitalIndicator7triggerEt), (30 bytes).
    Removing lib.o(.ARM.exidx), (8 bytes).
    Removing lib.o(i._ZN12cTaskHandler12getCycleTimeEv), (6 bytes).
    Removing lib.o(.ARM.exidx), (8 bytes).
    Removing lib.o(i._ZN12cTaskHandler7getTicsEv), (6 bytes).
    Removing lib.o(.ARM.exidx), (8 bytes).
    Removing lib.o(i._ZN12cTaskHandler3runEv), (36 bytes).
    Removing lib.o(.ARM.exidx), (8 bytes).
    Removing lib.o(i._ZN12cTaskHandler6updateEv), (8 bytes).
    Removing lib.o(.ARM.exidx), (8 bytes).
    Removing lib.o(.ARM.exidx), (8 bytes).
    Removing lib.o(.ARM.exidx), (8 bytes).
    Removing lib.o(.constdata__ZTV6cHwDAC), (20 bytes).
    Removing lib.o(.constdata__ZTV8cHwDAC_0), (20 bytes).
    Removing lib.o(.constdata__ZTV12cHwUSBinterf), (40 bytes).
    Removing lib.o(.constdata__ZTV13cHwDAC_MAX521), (20 bytes).
    Removing lib.o(.constdata__ZTV15cNetApplication), (20 bytes).
    Removing lib.o(.constdata__ZTIN13cNetTransport6SocketE), (12 bytes).
    Removing lib.o(.constdata__ZTVN6cNetIP13cTimeOutTimerE), (12 bytes).
    Removing lib.o(.constdata__ZTI8cHwTimer), (8 bytes).
    Removing lib.o(.constdata__ZTI11cDevDigital), (8 bytes).
    Removing lib.o(.constdata__ZTV9cHwMemory), (44 bytes).
    Removing lib.o(.constdata__ZTI6cHwADC), (12 bytes).
    Removing lib.o(.constdata__ZTI17cHwDisplayGraphic), (12 bytes).
    Removing lib.o(.constdata__ZTI11cHwEthernet), (8 bytes).
    Removing lib.o(.constdata__ZTI12cHwI2Cmaster), (8 bytes).
    Removing lib.o(.constdata__ZTI17cHwI2Cmaster_Emul), (12 bytes).
    Removing lib.o(.constdata__ZTI7cNetTCP), (12 bytes).
    Removing lib.o(.constdata__ZTI7cNetUDP), (12 bytes).
    Removing lib.o(.constdata__ZTI13cNetTransport), (8 bytes).
    Removing lib.o(.constdata__ZTIN7cNetTCP6SocketE), (12 bytes).
    Removing lib.o(.constdata__ZTIN7cNetUDP6SocketE), (12 bytes).
    Removing lib.o(.constdata__ZTV6cHwRTC), (16 bytes).
    Removing lib.o(.constdata__ZTIN12cHwSPImaster6DeviceE), (8 bytes).
    Removing lib.o(.constdata__ZTV8cHwTouch), (24 bytes).
    Removing lib.o(.constdata__ZTI7cHwUART), (8 bytes).
    Removing lib.o(.constdata__ZTI10cHwUSBdesc), (8 bytes).
    Removing lib.o(.constdata__ZTI6cHwUSB), (8 bytes).
    Removing lib.o(.constdata__ZTI10cHwUSBctrl), (8 bytes).
    Removing lib.o(.constdata__ZTV14cHwI2Cmaster_N), (44 bytes).
    Removing lib.o(.constdata__ZTI9cHwPort_N), (12 bytes).
    Removing lib.o(.constdata__ZTI9cHwUART_N), (12 bytes).
    Removing lib.o(.constdata__ZTI8cHwUSB_0), (12 bytes).
    Removing lib.o(.constdata__ZTI18cHwDisp_ILI9341spi), (12 bytes).
    Removing lib.o(.constdata__ZTI20cHwDisp_SPFD5408Bspi), (12 bytes).
    Removing lib.o(.constdata__ZTV16cHwDisp_Terminal), (28 bytes).
    Removing lib.o(.constdata__ZTI16cHwPort_Terminal), (32 bytes).
    Removing lib.o(.constdata__ZTV17cHwSensMag_LSM303), (20 bytes).
    Removing lib.o(.constdata__ZTV17cHwSensAcc_LSM303), (20 bytes).
    Removing lib.o(.constdata__ZTV18cHwSensGyro_L3GD20), (20 bytes).
    Removing lib.o(.constdata__ZTV12cDevAnalogIn), (20 bytes).
    Removing lib.o(.constdata__ZTI13cDevAnalogOut), (24 bytes).
    Removing lib.o(.constdata__ZTI20cDevDigitalIndicator), (12 bytes).
    Removing lib.o(.constdata__ZTI18cDevDisplayGraphic), (12 bytes).
    Removing lib.o(.constdata__ZTI10cDevTextIO), (8 bytes).
    Removing lib.o(.constdata__ZTV15cDevTextIO_UART), (20 bytes).
    Removing lib.o(.constdata__ZTI18cDevControlEncoder), (12 bytes).
    Removing lib.o(.constdata__ZTV6cTimer), (16 bytes).
    Removing lib.o(.constdata__ZTI12cTaskHandler), (12 bytes).
    Removing lib.o(.constdata__ZTVN12cTaskHandler4TaskE), (12 bytes).
    Removing lib.o(.constdata__ZTI8cHwADC_0), (12 bytes).
    Removing lib.o(.constdata__ZTI16cHwEthernet_EMAC), (12 bytes).
    Removing lib.o(.constdata__ZTIN12cHwI2Cmaster6DeviceE), (8 bytes).
    Removing lib.o(.constdata__ZTI15cHwMemory_Flash), (12 bytes).
    Removing lib.o(.constdata__ZTI13cHwMemory_RAM), (12 bytes).
    Removing lib.o(.constdata__ZTI8cHwRTC_0), (12 bytes).
    Removing lib.o(.constdata__ZTI14cHwSPImaster_0), (12 bytes).
    Removing lib.o(.constdata__ZTI14cHwSPImaster_1), (12 bytes).
    Removing lib.o(.constdata__ZTI10cHwTimer_N), (12 bytes).
    Removing lib.o(.constdata__ZTI14cHwDAC_MAX5308), (12 bytes).
    Removing lib.o(.constdata__ZTI14cHwDAC_MCP4441), (12 bytes).
    Removing lib.o(.constdata__ZTI14cHwDAC_MCP4922), (12 bytes).
    Removing lib.o(.constdata__ZTI14cHwDisp_DIP204), (12 bytes).
    Removing lib.o(.constdata__ZTI17cHwDisp_DIP204spi), (12 bytes).
    Removing lib.o(.constdata__ZTI16cHwEEPROM_24C256), (12 bytes).
    Removing lib.o(.constdata__ZTI20cHwEthernet_Enc28j60), (12 bytes).
    Removing lib.o(.constdata__ZTI15cHwPort_PCF8574), (32 bytes).
    Removing lib.o(.constdata__ZTI14cHwRAM_PCF8583), (12 bytes).
    Removing lib.o(.constdata__ZTI14cHwRTC_PCF8583), (12 bytes).
    Removing lib.o(.constdata__ZTI16cHwTouch_ADS7846), (12 bytes).
    Removing lib.o(.constdata__ZTI20cHwTouch_STMPE811i2c), (12 bytes).
    Removing lib.o(.constdata__ZTI8cNetDHCP), (12 bytes).
    Removing lib.o(.constdata__ZTI15cDevAnalogInADC), (12 bytes).
    Removing lib.o(.constdata__ZTI16cDevAnalogOutDAC), (12 bytes).
    Removing lib.o(.constdata__ZTI16cDevAnalogOutPWM), (12 bytes).
    Removing lib.o(.constdata__ZTI20cDevAnalogOutPWMemul), (32 bytes).
    Removing lib.o(.constdata__ZTI15cDevDisplayChar), (12 bytes).
    Removing lib.o(.constdata__ZTI26cDevControlEncoderJoystick), (12 bytes).
    Removing lib.o(.constdata__ZTI28cDevControlEncoderRotaryKnob), (12 bytes).
    Removing lib.o(.constdata__ZTI18cDevControlPointer), (8 bytes).
    Removing lib.o(.constdata__ZTIN12cTaskHandler5TimerE), (12 bytes).
    Removing lib.o(.constdata__ZTI7cHwPort), (8 bytes).
    Removing lib.o(.constdata__ZTIN7cHwPort3PinE), (8 bytes).
    Removing lib.o(.constdata__ZTI9cHwMemory), (8 bytes).
    Removing lib.o(.constdata__ZTI15cNetApplication), (12 bytes).
    Removing lib.o(.constdata__ZTI12cHwSPImaster), (8 bytes).
    Removing lib.o(.constdata__ZTI12cHwUSBinterf), (8 bytes).
    Removing lib.o(.constdata__ZTI14cHwI2Cmaster_N), (12 bytes).
    Removing lib.o(.constdata__ZTI12cDevAnalogIn), (24 bytes).
    Removing lib.o(.constdata__ZTI6cHwDAC), (8 bytes).
    Removing lib.o(.constdata__ZTI10cHwDisplay), (8 bytes).
    Removing lib.o(.constdata__ZTI8cHwTouch), (8 bytes).
    Removing lib.o(.constdata__ZTIN5cList4ItemE), (8 bytes).
    Removing lib.o(.constdata__ZTI6cTimer), (8 bytes).
    Removing lib.o(.constdata__ZTI8cHwDAC_0), (12 bytes).
    Removing lib.o(.constdata__ZTI6cHwRTC), (8 bytes).
    Removing lib.o(.constdata__ZTI13cHwDAC_MAX521), (12 bytes).
    Removing lib.o(.constdata__ZTI16cHwDisp_Terminal), (12 bytes).
    Removing lib.o(.constdata__ZTIN6cNetIP13cTimeOutTimerE), (12 bytes).
    Removing lib.o(.constdata__ZTI17cHwSensMag_LSM303), (8 bytes).
    Removing lib.o(.constdata__ZTI18cHwSensGyro_L3GD20), (8 bytes).
    Removing lib.o(.constdata__ZTI17cHwSensAcc_LSM303), (8 bytes).
    Removing lib.o(.constdata__ZTI11cDevDisplay), (8 bytes).
    Removing lib.o(.constdata__ZTI15cDevTextIO_UART), (12 bytes).
    Removing lib.o(.constdata__ZTIN12cTaskHandler4TaskE), (12 bytes).
    Removing lib.o(.constdata__ZTS8cHwTimer), (10 bytes).
    Removing lib.o(.constdata__ZTS6cHwADC), (8 bytes).
    Removing lib.o(.constdata__ZTS8cHwADC_0), (10 bytes).
    Removing lib.o(.constdata__ZTS11cHwEthernet), (14 bytes).
    Removing lib.o(.constdata__ZTS16cHwEthernet_EMAC), (19 bytes).
    Removing lib.o(.constdata__ZTS12cHwI2Cmaster), (15 bytes).
    Removing lib.o(.constdata__ZTSN12cHwI2Cmaster6DeviceE), (24 bytes).
    Removing lib.o(.constdata__ZTS17cHwI2Cmaster_Emul), (20 bytes).
    Removing lib.o(.constdata__ZTS15cHwMemory_Flash), (18 bytes).
    Removing lib.o(.constdata__ZTS13cHwMemory_RAM), (16 bytes).
    Removing lib.o(.constdata__ZTS9cHwPort_N), (11 bytes).
    Removing lib.o(.constdata__ZTS8cHwRTC_0), (10 bytes).
    Removing lib.o(.constdata__ZTSN12cHwSPImaster6DeviceE), (24 bytes).
    Removing lib.o(.constdata__ZTS14cHwSPImaster_0), (17 bytes).
    Removing lib.o(.constdata__ZTS14cHwSPImaster_1), (17 bytes).
    Removing lib.o(.constdata__ZTS10cHwTimer_N), (13 bytes).
    Removing lib.o(.constdata__ZTS7cHwUART), (9 bytes).
    Removing lib.o(.constdata__ZTS9cHwUART_N), (11 bytes).
    Removing lib.o(.constdata__ZTS10cHwUSBdesc), (13 bytes).
    Removing lib.o(.constdata__ZTS10cHwUSBctrl), (13 bytes).
    Removing lib.o(.constdata__ZTS6cHwUSB), (8 bytes).
    Removing lib.o(.constdata__ZTS8cHwUSB_0), (10 bytes).
    Removing lib.o(.constdata__ZTS14cHwDAC_MAX5308), (17 bytes).
    Removing lib.o(.constdata__ZTS14cHwDAC_MCP4441), (17 bytes).
    Removing lib.o(.constdata__ZTS14cHwDAC_MCP4922), (17 bytes).
    Removing lib.o(.constdata__ZTS17cHwDisplayGraphic), (20 bytes).
    Removing lib.o(.constdata__ZTS20cHwDisp_SPFD5408Bspi), (23 bytes).
    Removing lib.o(.constdata__ZTS14cHwDisp_DIP204), (17 bytes).
    Removing lib.o(.constdata__ZTS17cHwDisp_DIP204spi), (20 bytes).
    Removing lib.o(.constdata__ZTS18cHwDisp_ILI9341spi), (21 bytes).
    Removing lib.o(.constdata__ZTS16cHwEEPROM_24C256), (19 bytes).
    Removing lib.o(.constdata__ZTS20cHwEthernet_Enc28j60), (23 bytes).
    Removing lib.o(.constdata__ZTS15cHwPort_PCF8574), (18 bytes).
    Removing lib.o(.constdata__ZTS16cHwPort_Terminal), (19 bytes).
    Removing lib.o(.constdata__ZTS14cHwRAM_PCF8583), (17 bytes).
    Removing lib.o(.constdata__ZTS14cHwRTC_PCF8583), (17 bytes).
    Removing lib.o(.constdata__ZTS16cHwTouch_ADS7846), (19 bytes).
    Removing lib.o(.constdata__ZTS20cHwTouch_STMPE811i2c), (23 bytes).
    Removing lib.o(.constdata__ZTS13cNetTransport), (16 bytes).
    Removing lib.o(.constdata__ZTSN13cNetTransport6SocketE), (25 bytes).
    Removing lib.o(.constdata__ZTS7cNetUDP), (9 bytes).
    Removing lib.o(.constdata__ZTSN7cNetUDP6SocketE), (18 bytes).
    Removing lib.o(.constdata__ZTS8cNetDHCP), (10 bytes).
    Removing lib.o(.constdata__ZTS7cNetTCP), (9 bytes).
    Removing lib.o(.constdata__ZTSN7cNetTCP6SocketE), (18 bytes).
    Removing lib.o(.constdata__ZTI10cDevAnalog), (8 bytes).
    Removing lib.o(.constdata__ZTS15cDevAnalogInADC), (18 bytes).
    Removing lib.o(.constdata__ZTS13cDevAnalogOut), (16 bytes).
    Removing lib.o(.constdata__ZTS16cDevAnalogOutDAC), (19 bytes).
    Removing lib.o(.constdata__ZTS11cDevDigital), (14 bytes).
    Removing lib.o(.constdata__ZTS16cDevAnalogOutPWM), (19 bytes).
    Removing lib.o(.constdata__ZTS20cDevAnalogOutPWMemul), (23 bytes).
    Removing lib.o(.constdata__ZTS20cDevDigitalIndicator), (23 bytes).
    Removing lib.o(.constdata__ZTS15cDevDisplayChar), (18 bytes).
    Removing lib.o(.constdata__ZTS18cDevDisplayGraphic), (21 bytes).
    Removing lib.o(.constdata__ZTS10cDevTextIO), (13 bytes).
    Removing lib.o(.constdata__ZTS18cDevControlEncoder), (21 bytes).
    Removing lib.o(.constdata__ZTS26cDevControlEncoderJoystick), (29 bytes).
    Removing lib.o(.constdata__ZTS28cDevControlEncoderRotaryKnob), (31 bytes).
    Removing lib.o(.constdata__ZTS18cDevControlPointer), (21 bytes).
    Removing lib.o(.constdata__ZTS12cTaskHandler), (15 bytes).
    Removing lib.o(.constdata__ZTSN12cTaskHandler5TimerE), (23 bytes).
    Removing lib.o(.constdata__ZTSN5cList4ItemE), (14 bytes).
    Removing lib.o(.constdata__ZTS6cHwDAC), (8 bytes).
    Removing lib.o(.constdata__ZTS8cHwDAC_0), (10 bytes).
    Removing lib.o(.constdata__ZTS7cHwPort), (9 bytes).
    Removing lib.o(.constdata__ZTSN7cHwPort3PinE), (15 bytes).
    Removing lib.o(.constdata__ZTS14cHwI2Cmaster_N), (17 bytes).
    Removing lib.o(.constdata__ZTS9cHwMemory), (11 bytes).
    Removing lib.o(.constdata__ZTS6cHwRTC), (8 bytes).
    Removing lib.o(.constdata__ZTS12cHwSPImaster), (15 bytes).
    Removing lib.o(.constdata__ZTS12cHwUSBinterf), (15 bytes).
    Removing lib.o(.constdata__ZTS13cHwDAC_MAX521), (16 bytes).
    Removing lib.o(.constdata__ZTS10cHwDisplay), (13 bytes).
    Removing lib.o(.constdata__ZTS16cHwDisp_Terminal), (19 bytes).
    Removing lib.o(.constdata__ZTS8cHwTouch), (10 bytes).
    Removing lib.o(.constdata__ZTS15cNetApplication), (18 bytes).
    Removing lib.o(.constdata__ZTSN6cNetIP13cTimeOutTimerE), (25 bytes).
    Removing lib.o(.constdata__ZTS17cHwSensMag_LSM303), (20 bytes).
    Removing lib.o(.constdata__ZTS18cHwSensGyro_L3GD20), (21 bytes).
    Removing lib.o(.constdata__ZTS17cHwSensAcc_LSM303), (20 bytes).
    Removing lib.o(.constdata__ZTS6cTimer), (8 bytes).
    Removing lib.o(.constdata__ZTS10cDevAnalog), (13 bytes).
    Removing lib.o(.constdata__ZTS12cDevAnalogIn), (15 bytes).
    Removing lib.o(.constdata__ZTS11cDevDisplay), (14 bytes).
    Removing lib.o(.constdata__ZTS15cDevTextIO_UART), (18 bytes).
    Removing lib.o(.constdata__ZTSN12cTaskHandler4TaskE), (22 bytes).
    Removing lib.o(.ARM.exidx), (8 bytes).
    Removing lib.o(i._ZN8cHwDAC_03setEth), (20 bytes).
    Removing lib.o(.ARM.exidx), (8 bytes).
    Removing lib.o(i._ZN8cHwDAC_06enableEh), (2 bytes).
    Removing lib.o(.ARM.exidx), (8 bytes).
    Removing lib.o(i._ZN14cHwI2Cmaster_N11waitForAcknEh), (52 bytes).
    Removing lib.o(.ARM.exidx), (8 bytes).
    Removing lib.o(i._ZN14cHwI2Cmaster_N5startEv), (48 bytes).
    Removing lib.o(.ARM.exidx), (8 bytes).
    Removing lib.o(i._ZN14cHwI2Cmaster_N4stopEv), (14 bytes).
    Removing lib.o(.ARM.exidx), (8 bytes).
    Removing lib.o(i._ZN14cHwI2Cmaster_N8sendAddrEh), (46 bytes).
    Removing lib.o(.ARM.exidx), (8 bytes).
    Removing lib.o(i._ZN14cHwI2Cmaster_N9writeByteEh), (28 bytes).
    Removing lib.o(.ARM.exidx), (8 bytes).
    Removing lib.o(i._ZN14cHwI2Cmaster_N11readByteAckEv), (34 bytes).
    Removing lib.o(.ARM.exidx), (8 bytes).
    Removing lib.o(i._ZN14cHwI2Cmaster_N12readByteNackEv), (28 bytes).
    Removing lib.o(.ARM.exidx), (8 bytes).
    Removing lib.o(i._ZN12cHwUSBinterf13GetDescriptorEt), (16 bytes).
    Removing lib.o(.ARM.exidx), (8 bytes).
    Removing lib.o(i._ZN12cHwUSBinterf10clrFeatureEv), (2 bytes).
    Removing lib.o(.ARM.exidx), (8 bytes).
    Removing lib.o(i._ZN12cHwUSBinterf10setFeatureEv), (2 bytes).
    Removing lib.o(.ARM.exidx), (8 bytes).
    Removing lib.o(i._ZN13cHwDAC_MAX5213setEth), (22 bytes).
    Removing lib.o(.ARM.exidx), (8 bytes).
    Removing lib.o(i._ZN13cHwDAC_MAX5216enableEh), (2 bytes).
    Removing lib.o(.ARM.exidx), (8 bytes).
    Removing lib.o(i._ZN16cHwDisp_Terminal11gotoTextPosEhh), (84 bytes).
    Removing lib.o(.ARM.exidx), (8 bytes).
    Removing lib.o(i._ZN16cHwDisp_Terminal7putCharEc), (36 bytes).
    Removing lib.o(.ARM.exidx), (8 bytes).
    Removing lib.o(i._ZN6cNetIP13cTimeOutTimer6updateEv), (18 bytes).
    Removing lib.o(.ARM.exidx), (8 bytes).
    Removing lib.o(i._ZN17cHwSensMag_LSM3034getXEv), (14 bytes).
    Removing lib.o(.ARM.exidx), (8 bytes).
    Removing lib.o(i._ZN17cHwSensMag_LSM3034getYEv), (14 bytes).
    Removing lib.o(.ARM.exidx), (8 bytes).
    Removing lib.o(i._ZN17cHwSensMag_LSM3034getZEv), (14 bytes).
    Removing lib.o(.ARM.exidx), (8 bytes).
    Removing lib.o(i._ZN18cHwSensGyro_L3GD204getXEv), (14 bytes).
    Removing lib.o(.ARM.exidx), (8 bytes).
    Removing lib.o(i._ZN18cHwSensGyro_L3GD204getYEv), (14 bytes).
    Removing lib.o(.ARM.exidx), (8 bytes).
    Removing lib.o(i._ZN18cHwSensGyro_L3GD204getZEv), (14 bytes).
    Removing lib.o(.ARM.exidx), (8 bytes).
    Removing lib.o(i._ZN17cHwSensAcc_LSM3034getXEv), (14 bytes).
    Removing lib.o(.ARM.exidx), (8 bytes).
    Removing lib.o(i._ZN17cHwSensAcc_LSM3034getYEv), (14 bytes).
    Removing lib.o(.ARM.exidx), (8 bytes).
    Removing lib.o(i._ZN17cHwSensAcc_LSM3034getZEv), (14 bytes).
    Removing lib.o(.ARM.exidx), (8 bytes).
    Removing lib.o(i._ZN15cDevTextIO_UART3setEPhh), (22 bytes).
    Removing lib.o(.ARM.exidx), (8 bytes).
    Removing lib.o(i._ZN15cDevTextIO_UART3getEPh), (18 bytes).
    Removing lib.o(.ARM.exidx), (8 bytes).
    Removing rtos.o(.constdata__ZTVN5cRTOS4TaskE), (48 bytes).
    Removing rtos.o(.constdata__ZTVN5cRTOS5TimerE), (16 bytes).
    Removing rtos.o(i._ZN11cHwRTOS_MCU10getSysTimeEv), (40 bytes).
    Removing rtos.o(.ARM.exidx), (8 bytes).
    Removing rtos.o(i._ZdlPv), (14 bytes).
    Removing rtos.o(.ARM.exidx), (8 bytes).
    Removing rtos.o(i._ZN11cHwRTOS_MCU5startEPcjPvPFjS1_E), (108 bytes).
    Removing rtos.o(.ARM.exidx), (8 bytes).
    Removing rtos.o(i._ZN5cRTOS4Task8isActiveEv), (14 bytes).
    Removing rtos.o(.ARM.exidx), (8 bytes).
    Removing rtos.o(i._ZN5cRTOS4Task7OnStartEv), (2 bytes).
    Removing rtos.o(.ARM.exidx), (8 bytes).
    Removing rtos.o(i._ZN5cRTOS4Task6OnStopEv), (2 bytes).
    Removing rtos.o(.ARM.exidx), (8 bytes).
    Removing rtos.o(i._ZN11cHwRTOS_MCU11del_processEv), (4 bytes).
    Removing rtos.o(.ARM.exidx), (8 bytes).
    Removing rtos.o(.constdata__ZTV5cRTOS), (24 bytes).
    Removing rtos.o(.constdata__ZTIN5cRTOS4TaskE), (8 bytes).
    Removing rtos.o(.constdata__ZTIN5cRTOS5TimerE), (12 bytes).
    Removing rtos.o(.constdata__ZTI5cRTOS), (8 bytes).
    Removing rtos.o(.constdata__ZTSN5cRTOS4TaskE), (14 bytes).
    Removing rtos.o(.constdata__ZTSN5cRTOS5TimerE), (15 bytes).
    Removing rtos.o(.constdata__ZTS5cRTOS), (7 bytes).
    Removing main.o(.ARM.exidx), (8 bytes).
    Removing main.o(.ARM.exidx), (8 bytes).
    Removing main.o(.ARM.exidx), (8 bytes).
    Removing main.o(.ARM.exidx), (8 bytes).
    Removing main.o(.ARM.exidx), (8 bytes).
    Removing main.o(.constdata__ZTI12TimerHandler), (12 bytes).
    Removing main.o(.constdata__ZTS12TimerHandler), (15 bytes).
    Removing main.o(.ARM.exidx), (8 bytes).

1435 unused section(s) (total 39171 bytes) removed from the image.

==============================================================================

Image Symbol Table

    Local Symbols

    Symbol Name                              Value     Ov Type        Size  Object(Section)

    RESET                                    0x00000000   Section      204  startup_lpc17xx.o(RESET)
    ../../../edgfe/lib_src/guard.c           0x00000000   Number         0  cxa_guard_acquire.o ABSOLUTE
    ../../../edgfe/lib_src/guard.c           0x00000000   Number         0  cxa_guard_release.o ABSOLUTE
    ../../../edgfe/lib_src/typeinfo.c        0x00000000   Number         0  lib_rtti_impl.o ABSOLUTE
    ../../../edgfe/lib_src/typeinfo.c        0x00000000   Number         0  type_info_dtor.o ABSOLUTE
    ../clib/angel/boardlib.s                 0x00000000   Number         0  boardshut.o ABSOLUTE
    ../clib/angel/boardlib.s                 0x00000000   Number         0  boardinit1.o ABSOLUTE
    ../clib/angel/boardlib.s                 0x00000000   Number         0  boardinit2.o ABSOLUTE
    ../clib/angel/boardlib.s                 0x00000000   Number         0  boardinit3.o ABSOLUTE
    ../clib/angel/handlers.s                 0x00000000   Number         0  __scatter_copy.o ABSOLUTE
    ../clib/angel/handlers.s                 0x00000000   Number         0  __scatter_zi.o ABSOLUTE
    ../clib/angel/kernel.s                   0x00000000   Number         0  rtentry.o ABSOLUTE
    ../clib/angel/kernel.s                   0x00000000   Number         0  rtentry4.o ABSOLUTE
    ../clib/angel/kernel.s                   0x00000000   Number         0  rtexit.o ABSOLUTE
    ../clib/angel/kernel.s                   0x00000000   Number         0  rtentry2.o ABSOLUTE
    ../clib/angel/kernel.s                   0x00000000   Number         0  rtexit2.o ABSOLUTE
    ../clib/angel/rt.s                       0x00000000   Number         0  rt_locale.o ABSOLUTE
    ../clib/angel/rt.s                       0x00000000   Number         0  rt_ctype_table.o ABSOLUTE
    ../clib/angel/rt.s                       0x00000000   Number         0  rt_heap_descriptor.o ABSOLUTE
    ../clib/angel/rt.s                       0x00000000   Number         0  rt_errno_addr.o ABSOLUTE
    ../clib/angel/rt.s                       0x00000000   Number         0  aeabi_ldiv0_sigfpe.o ABSOLUTE
    ../clib/angel/rt.s                       0x00000000   Number         0  aeabi_ldiv0.o ABSOLUTE
    ../clib/angel/rt.s                       0x00000000   Number         0  rt_errno_addr_intlibspace.o ABSOLUTE
    ../clib/angel/rt.s                       0x00000000   Number         0  rt_raise.o ABSOLUTE
    ../clib/angel/rt.s                       0x00000000   Number         0  rt_div0.o ABSOLUTE
    ../clib/angel/rt.s                       0x00000000   Number         0  rt_locale_intlibspace.o ABSOLUTE
    ../clib/angel/rt.s                       0x00000000   Number         0  rt_heap_descriptor_intlibspace.o ABSOLUTE
    ../clib/angel/scatter.s                  0x00000000   Number         0  __scatter.o ABSOLUTE
    ../clib/angel/startup.s                  0x00000000   Number         0  __main.o ABSOLUTE
    ../clib/angel/sys.s                      0x00000000   Number         0  use_no_semi.o ABSOLUTE
    ../clib/angel/sys.s                      0x00000000   Number         0  sys_stackheap_outer.o ABSOLUTE
    ../clib/angel/sys.s                      0x00000000   Number         0  mutex_dummy.o ABSOLUTE
    ../clib/angel/sys.s                      0x00000000   Number         0  indicate_semi.o ABSOLUTE
    ../clib/angel/sys.s                      0x00000000   Number         0  libspace.o ABSOLUTE
    ../clib/angel/sysapp.c                   0x00000000   Number         0  sys_wrch.o ABSOLUTE
    ../clib/angel/sysapp.c                   0x00000000   Number         0  sys_exit.o ABSOLUTE
    ../clib/angel/sysapp.c                   0x00000000   Number         0  sys_command.o ABSOLUTE
    ../clib/arm_runtime.c                    0x00000000   Number         0  init_aeabi.o ABSOLUTE
    ../clib/arm_runtime.c                    0x00000000   Number         0  init_aeabi.o ABSOLUTE
    ../clib/armsys.c                         0x00000000   Number         0  _get_argv_nomalloc.o ABSOLUTE
    ../clib/armsys.c                         0x00000000   Number         0  no_argv.o ABSOLUTE
    ../clib/armsys.c                         0x00000000   Number         0  _get_argv.o ABSOLUTE
    ../clib/armsys.c                         0x00000000   Number         0  argv_veneer.o ABSOLUTE
    ../clib/armsys.c                         0x00000000   Number         0  argv_veneer.o ABSOLUTE
    ../clib/bigflt.c                         0x00000000   Number         0  bigflt0.o ABSOLUTE
    ../clib/btod.s                           0x00000000   Number         0  btod.o ABSOLUTE
    ../clib/fenv.c                           0x00000000   Number         0  _rserrno.o ABSOLUTE
    ../clib/heap1.c                          0x00000000   Number         0  h1_extend_mt.o ABSOLUTE
    ../clib/heap1.c                          0x00000000   Number         0  h1_alloc.o ABSOLUTE
    ../clib/heap1.c                          0x00000000   Number         0  h1_extend.o ABSOLUTE
    ../clib/heap1.c                          0x00000000   Number         0  h1_free.o ABSOLUTE
    ../clib/heap1.c                          0x00000000   Number         0  h1_alloc_mt.o ABSOLUTE
    ../clib/heap1.c                          0x00000000   Number         0  h1_init.o ABSOLUTE
    ../clib/heap1.c                          0x00000000   Number         0  h1_final_mt.o ABSOLUTE
    ../clib/heap1.c                          0x00000000   Number         0  h1_final.o ABSOLUTE
    ../clib/heap1.c                          0x00000000   Number         0  h1_init_mt.o ABSOLUTE
    ../clib/heap1.c                          0x00000000   Number         0  h1_free_mt.o ABSOLUTE
    ../clib/heap2.c                          0x00000000   Number         0  fdtree.o ABSOLUTE
    ../clib/heap2.c                          0x00000000   Number         0  heap2.o ABSOLUTE
    ../clib/heap2.c                          0x00000000   Number         0  heap2mt.o ABSOLUTE
    ../clib/heapalloc.c                      0x00000000   Number         0  free.o ABSOLUTE
    ../clib/heapalloc.c                      0x00000000   Number         0  maybetermalloc1.o ABSOLUTE
    ../clib/heapalloc.c                      0x00000000   Number         0  maybetermalloc1.o ABSOLUTE
    ../clib/heapalloc.c                      0x00000000   Number         0  maybetermalloc2.o ABSOLUTE
    ../clib/heapalloc.c                      0x00000000   Number         0  malloc.o ABSOLUTE
    ../clib/heapalloc.c                      0x00000000   Number         0  hguard.o ABSOLUTE
    ../clib/heapalloc.c                      0x00000000   Number         0  heapstubs.o ABSOLUTE
    ../clib/heapalloc.c                      0x00000000   Number         0  init_alloc.o ABSOLUTE
    ../clib/heapalloc.c                      0x00000000   Number         0  maybetermalloc2.o ABSOLUTE
    ../clib/heapalloc.c                      0x00000000   Number         0  hrguard.o ABSOLUTE
    ../clib/heapalloc.c                      0x00000000   Number         0  term_alloc.o ABSOLUTE
    ../clib/heapaux.c                        0x00000000   Number         0  heapauxa.o ABSOLUTE
    ../clib/heapaux.c                        0x00000000   Number         0  heapauxi.o ABSOLUTE
    ../clib/libinit.s                        0x00000000   Number         0  libshutdown.o ABSOLUTE
    ../clib/libinit.s                        0x00000000   Number         0  libinit2.o ABSOLUTE
    ../clib/libinit.s                        0x00000000   Number         0  libinit.o ABSOLUTE
    ../clib/libinit.s                        0x00000000   Number         0  libshutdown2.o ABSOLUTE
    ../clib/locale.c                         0x00000000   Number         0  _wcrtomb.o ABSOLUTE
    ../clib/locale.s                         0x00000000   Number         0  lc_ctype_c.o ABSOLUTE
    ../clib/locale.s                         0x00000000   Number         0  lc_numeric_c.o ABSOLUTE
    ../clib/longlong.s                       0x00000000   Number         0  lludivv7m.o ABSOLUTE
    ../clib/longlong.s                       0x00000000   Number         0  lludiv10.o ABSOLUTE
    ../clib/memcpset.s                       0x00000000   Number         0  rt_memclr.o ABSOLUTE
    ../clib/memcpset.s                       0x00000000   Number         0  rt_memcpy_v6.o ABSOLUTE
    ../clib/memcpset.s                       0x00000000   Number         0  rt_memcpy_w.o ABSOLUTE
    ../clib/memcpset.s                       0x00000000   Number         0  strcmpv7m.o ABSOLUTE
    ../clib/memcpset.s                       0x00000000   Number         0  rt_memclr_w.o ABSOLUTE
    ../clib/misc.s                           0x00000000   Number         0  printf_stubs.o ABSOLUTE
    ../clib/printf.c                         0x00000000   Number         0  _printf_longlong_dec.o ABSOLUTE
    ../clib/printf.c                         0x00000000   Number         0  _printf_wctomb.o ABSOLUTE
    ../clib/printf.c                         0x00000000   Number         0  _snputc.o ABSOLUTE
    ../clib/printf.c                         0x00000000   Number         0  _sputc.o ABSOLUTE
    ../clib/printf.c                         0x00000000   Number         0  _printf_char_common.o ABSOLUTE
    ../clib/printf.c                         0x00000000   Number         0  _printf_charcount.o ABSOLUTE
    ../clib/printf.c                         0x00000000   Number         0  _printf_intcommon.o ABSOLUTE
    ../clib/printf.c                         0x00000000   Number         0  _printf_str.o ABSOLUTE
    ../clib/printf.c                         0x00000000   Number         0  _printf_truncate.o ABSOLUTE
    ../clib/printf.c                         0x00000000   Number         0  _printf_fp_dec.o ABSOLUTE
    ../clib/printf.c                         0x00000000   Number         0  _printf_fp_infnan.o ABSOLUTE
    ../clib/printf.c                         0x00000000   Number         0  _printf_wchar.o ABSOLUTE
    ../clib/printf.c                         0x00000000   Number         0  _printf_char.o ABSOLUTE
    ../clib/printf.c                         0x00000000   Number         0  __printf_nopercent.o ABSOLUTE
    ../clib/printf.c                         0x00000000   Number         0  _printf_hex_ll.o ABSOLUTE
    ../clib/printf.c                         0x00000000   Number         0  _printf_pad.o ABSOLUTE
    ../clib/printf.c                         0x00000000   Number         0  _printf_hex_int_ll_ptr.o ABSOLUTE
    ../clib/printf.c                         0x00000000   Number         0  _printf_hex_ll_ptr.o ABSOLUTE
    ../clib/printf.c                         0x00000000   Number         0  _printf_hex_int_ptr.o ABSOLUTE
    ../clib/printf.c                         0x00000000   Number         0  c89vsprintf.o ABSOLUTE
    ../clib/printf.c                         0x00000000   Number         0  c89vsnprintf.o ABSOLUTE
    ../clib/printf.c                         0x00000000   Number         0  __2sprintf.o ABSOLUTE
    ../clib/printf.c                         0x00000000   Number         0  noretval__2sprintf.o ABSOLUTE
    ../clib/printf.c                         0x00000000   Number         0  __printf.o ABSOLUTE
    ../clib/printf.c                         0x00000000   Number         0  _printf_dec.o ABSOLUTE
    ../clib/printf.c                         0x00000000   Number         0  __printf_flags.o ABSOLUTE
    ../clib/printf.c                         0x00000000   Number         0  __printf_ss.o ABSOLUTE
    ../clib/printf.c                         0x00000000   Number         0  __printf_flags_ss.o ABSOLUTE
    ../clib/printf.c                         0x00000000   Number         0  __printf_wp.o ABSOLUTE
    ../clib/printf.c                         0x00000000   Number         0  __printf_flags_wp.o ABSOLUTE
    ../clib/printf.c                         0x00000000   Number         0  __printf_ss_wp.o ABSOLUTE
    ../clib/printf.c                         0x00000000   Number         0  __printf_flags_ss_wp.o ABSOLUTE
    ../clib/printf.c                         0x00000000   Number         0  _printf_hex_ptr.o ABSOLUTE
    ../clib/printf.c                         0x00000000   Number         0  _printf_hex_int_ll.o ABSOLUTE
    ../clib/printf.c                         0x00000000   Number         0  _printf_hex_int.o ABSOLUTE
    ../clib/printf.c                         0x00000000   Number         0  _printf_oct_int_ll.o ABSOLUTE
    ../clib/printf.c                         0x00000000   Number         0  _printf_oct_int.o ABSOLUTE
    ../clib/printf.c                         0x00000000   Number         0  _printf_oct_ll.o ABSOLUTE
    ../clib/printf_percent.s                 0x00000000   Number         0  _printf_l.o ABSOLUTE
    ../clib/printf_percent.s                 0x00000000   Number         0  _printf_d.o ABSOLUTE
    ../clib/printf_percent.s                 0x00000000   Number         0  _printf_a.o ABSOLUTE
    ../clib/printf_percent.s                 0x00000000   Number         0  _printf_u.o ABSOLUTE
    ../clib/printf_percent.s                 0x00000000   Number         0  _printf_g.o ABSOLUTE
    ../clib/printf_percent.s                 0x00000000   Number         0  _printf_f.o ABSOLUTE
    ../clib/printf_percent.s                 0x00000000   Number         0  _printf_e.o ABSOLUTE
    ../clib/printf_percent.s                 0x00000000   Number         0  _printf_i.o ABSOLUTE
    ../clib/printf_percent.s                 0x00000000   Number         0  _printf_o.o ABSOLUTE
    ../clib/printf_percent.s                 0x00000000   Number         0  _printf_p.o ABSOLUTE
    ../clib/printf_percent.s                 0x00000000   Number         0  _printf_x.o ABSOLUTE
    ../clib/printf_percent.s                 0x00000000   Number         0  _printf_n.o ABSOLUTE
    ../clib/printf_percent.s                 0x00000000   Number         0  _printf_s.o ABSOLUTE
    ../clib/printf_percent.s                 0x00000000   Number         0  _printf_c.o ABSOLUTE
    ../clib/printf_percent.s                 0x00000000   Number         0  _printf_llx.o ABSOLUTE
    ../clib/printf_percent.s                 0x00000000   Number         0  _printf_llo.o ABSOLUTE
    ../clib/printf_percent.s                 0x00000000   Number         0  _printf_ls.o ABSOLUTE
    ../clib/printf_percent.s                 0x00000000   Number         0  _printf_lc.o ABSOLUTE
    ../clib/printf_percent.s                 0x00000000   Number         0  _printf_percent.o ABSOLUTE
    ../clib/printf_percent.s                 0x00000000   Number         0  _printf_ll.o ABSOLUTE
    ../clib/printf_percent.s                 0x00000000   Number         0  _printf_llu.o ABSOLUTE
    ../clib/printf_percent.s                 0x00000000   Number         0  _printf_lld.o ABSOLUTE
    ../clib/printf_percent.s                 0x00000000   Number         0  _printf_lli.o ABSOLUTE
    ../clib/printf_percent.s                 0x00000000   Number         0  _printf_percent_end.o ABSOLUTE
    ../clib/signal.c                         0x00000000   Number         0  defsig_rtred_inner.o ABSOLUTE
    ../clib/signal.c                         0x00000000   Number         0  defsig_fpe_inner.o ABSOLUTE
    ../clib/signal.c                         0x00000000   Number         0  defsig_rtmem_inner.o ABSOLUTE
    ../clib/signal.c                         0x00000000   Number         0  defsig_cppl_inner.o ABSOLUTE
    ../clib/signal.c                         0x00000000   Number         0  defsig_segv_inner.o ABSOLUTE
    ../clib/signal.c                         0x00000000   Number         0  defsig_other.o ABSOLUTE
    ../clib/signal.c                         0x00000000   Number         0  defsig_fpe_formal.o ABSOLUTE
    ../clib/signal.c                         0x00000000   Number         0  defsig_fpe_outer.o ABSOLUTE
    ../clib/signal.c                         0x00000000   Number         0  defsig_abrt_formal.o ABSOLUTE
    ../clib/signal.c                         0x00000000   Number         0  defsig_abrt_outer.o ABSOLUTE
    ../clib/signal.c                         0x00000000   Number         0  defsig_general.o ABSOLUTE
    ../clib/signal.c                         0x00000000   Number         0  __raise.o ABSOLUTE
    ../clib/signal.c                         0x00000000   Number         0  defsig_abrt_inner.o ABSOLUTE
    ../clib/signal.c                         0x00000000   Number         0  defsig_rtmem_formal.o ABSOLUTE
    ../clib/signal.c                         0x00000000   Number         0  defsig_rtmem_outer.o ABSOLUTE
    ../clib/signal.c                         0x00000000   Number         0  defsig_exit.o ABSOLUTE
    ../clib/signal.c                         0x00000000   Number         0  defsig_stak_inner.o ABSOLUTE
    ../clib/signal.c                         0x00000000   Number         0  defsig_pvfn_inner.o ABSOLUTE
    ../clib/signal.s                         0x00000000   Number         0  defsig.o ABSOLUTE
    ../clib/stdlib.c                         0x00000000   Number         0  exit.o ABSOLUTE
    ../clib/stdlib.c                         0x00000000   Number         0  abort.o ABSOLUTE
    ../clib/string.c                         0x00000000   Number         0  strlen.o ABSOLUTE
    ../clib/string.c                         0x00000000   Number         0  memcmp.o ABSOLUTE
    ../clib/string.c                         0x00000000   Number         0  strchr.o ABSOLUTE
    ../fplib/d2f.s                           0x00000000   Number         0  d2f.o ABSOLUTE
    ../fplib/daddsub.s                       0x00000000   Number         0  daddsub_clz.o ABSOLUTE
    ../fplib/dcmpi.s                         0x00000000   Number         0  dcmpi.o ABSOLUTE
    ../fplib/ddiv.s                          0x00000000   Number         0  ddiv.o ABSOLUTE
    ../fplib/dfixu.s                         0x00000000   Number         0  dfixu.o ABSOLUTE
    ../fplib/dflt.s                          0x00000000   Number         0  dflt_clz.o ABSOLUTE
    ../fplib/dleqf.s                         0x00000000   Number         0  dleqf.o ABSOLUTE
    ../fplib/dmul.s                          0x00000000   Number         0  dmul.o ABSOLUTE
    ../fplib/dnaninf.s                       0x00000000   Number         0  dnaninf.o ABSOLUTE
    ../fplib/dretinf.s                       0x00000000   Number         0  dretinf.o ABSOLUTE
    ../fplib/dsqrt.s                         0x00000000   Number         0  dsqrt_noumaal.o ABSOLUTE
    ../fplib/f2d.s                           0x00000000   Number         0  f2d.o ABSOLUTE
    ../fplib/faddsub.s                       0x00000000   Number         0  faddsub_clz.o ABSOLUTE
    ../fplib/fcheck1.s                       0x00000000   Number         0  fcheck1.o ABSOLUTE
    ../fplib/fcmpi.s                         0x00000000   Number         0  fcmpi.o ABSOLUTE
    ../fplib/fdiv.s                          0x00000000   Number         0  fdiv.o ABSOLUTE
    ../fplib/feqf.s                          0x00000000   Number         0  feqf.o ABSOLUTE
    ../fplib/ffix.s                          0x00000000   Number         0  ffix.o ABSOLUTE
    ../fplib/ffixu.s                         0x00000000   Number         0  ffixu.o ABSOLUTE
    ../fplib/fflt.s                          0x00000000   Number         0  fflt_clz.o ABSOLUTE
    ../fplib/fleqf.s                         0x00000000   Number         0  fleqf.o ABSOLUTE
    ../fplib/fmul.s                          0x00000000   Number         0  fmul.o ABSOLUTE
    ../fplib/fnaninf.s                       0x00000000   Number         0  fnaninf.o ABSOLUTE
    ../fplib/fpinit.s                        0x00000000   Number         0  fpinit.o ABSOLUTE
    ../fplib/fretinf.s                       0x00000000   Number         0  fretinf.o ABSOLUTE
    ../fplib/frleqf.s                        0x00000000   Number         0  frleqf.o ABSOLUTE
    ../fplib/frnd.s                          0x00000000   Number         0  frnd.o ABSOLUTE
    ../fplib/fsqrt.s                         0x00000000   Number         0  fsqrt.o ABSOLUTE
    ../fplib/istatus.s                       0x00000000   Number         0  istatus.o ABSOLUTE
    ../fplib/printf1.s                       0x00000000   Number         0  printf1.o ABSOLUTE
    ../fplib/retnan.s                        0x00000000   Number         0  retnan.o ABSOLUTE
    ../fplib/scalbnf.s                       0x00000000   Number         0  scalbnf.o ABSOLUTE
    ../fplib/trapv.s                         0x00000000   Number         0  trapv.o ABSOLUTE
    ../fplib/usenofp.s                       0x00000000   Number         0  usenofp.o ABSOLUTE
    ../mathlib/expf.c                        0x00000000   Number         0  expf.o ABSOLUTE
    ../mathlib/expf.c                        0x00000000   Number         0  expf_x.o ABSOLUTE
    ../mathlib/fpclassify.c                  0x00000000   Number         0  fpclassify.o ABSOLUTE
    ../mathlib/fpclassifyf.c                 0x00000000   Number         0  fpclassifyf.o ABSOLUTE
    ../mathlib/funder.c                      0x00000000   Number         0  funder.o ABSOLUTE
    ../mathlib/sqrt.c                        0x00000000   Number         0  sqrt_x.o ABSOLUTE
    ../mathlib/sqrt.c                        0x00000000   Number         0  sqrt.o ABSOLUTE
    ../mathlib/sqrtf.c                       0x00000000   Number         0  sqrtf.o ABSOLUTE
    ../mathlib/sqrtf.c                       0x00000000   Number         0  sqrtf_x.o ABSOLUTE
    ..\EmbSysLib\Lib\Src\Hardware\MCU\LPC17xx\Sys\Keil\RTOS_Asm.s 0x00000000   Number         0  rtos_asm.o ABSOLUTE
    ..\EmbSysLib\Lib\Src\Hardware\MCU\LPC17xx\Sys\Keil\startup_LPC17xx.s 0x00000000   Number         0  startup_lpc17xx.o ABSOLUTE
    ..\EmbSysLib\Lib\Src\Module\RTOS.cpp     0x00000000   Number         0  rtos.o ABSOLUTE
    ..\EmbSysLib\Lib\Src\lib.cpp             0x00000000   Number         0  lib.o ABSOLUTE
    ..\\EmbSysLib\\Lib\\Src\\Module\\RTOS.cpp 0x00000000   Number         0  rtos.o ABSOLUTE
    ..\\EmbSysLib\\Lib\\Src\\lib.cpp         0x00000000   Number         0  lib.o ABSOLUTE
    Src\GUI.cpp                              0x00000000   Number         0  gui.o ABSOLUTE
    Src\\GUI.cpp                             0x00000000   Number         0  gui.o ABSOLUTE
    Src\\main.cpp                            0x00000000   Number         0  main.o ABSOLUTE
    Src\main.cpp                             0x00000000   Number         0  main.o ABSOLUTE
    dc.s                                     0x00000000   Number         0  dc.o ABSOLUTE
    !!!main                                  0x000000cc   Section        8  __main.o(!!!main)
    !!!scatter                               0x000000d4   Section       52  __scatter.o(!!!scatter)
    !!handler_copy                           0x00000108   Section       26  __scatter_copy.o(!!handler_copy)
    !!handler_zi                             0x00000124   Section       28  __scatter_zi.o(!!handler_zi)
    .ARM.Collect$$libinit$$00000000          0x00000140   Section        2  libinit.o(.ARM.Collect$$libinit$$00000000)
    .ARM.Collect$$libinit$$00000002          0x00000142   Section        0  libinit2.o(.ARM.Collect$$libinit$$00000002)
    .ARM.Collect$$libinit$$00000003          0x00000142   Section        8  libinit2.o(.ARM.Collect$$libinit$$00000003)
    .ARM.Collect$$libinit$$00000008          0x0000014a   Section        0  libinit2.o(.ARM.Collect$$libinit$$00000008)
    .ARM.Collect$$libinit$$0000000A          0x0000014a   Section        0  libinit2.o(.ARM.Collect$$libinit$$0000000A)
    .ARM.Collect$$libinit$$0000000C          0x0000014a   Section        0  libinit2.o(.ARM.Collect$$libinit$$0000000C)
    .ARM.Collect$$libinit$$0000000F          0x0000014a   Section        0  libinit2.o(.ARM.Collect$$libinit$$0000000F)
    .ARM.Collect$$libinit$$00000011          0x0000014a   Section        0  libinit2.o(.ARM.Collect$$libinit$$00000011)
    .ARM.Collect$$libinit$$00000013          0x0000014a   Section        0  libinit2.o(.ARM.Collect$$libinit$$00000013)
    .ARM.Collect$$libinit$$00000015          0x0000014a   Section        0  libinit2.o(.ARM.Collect$$libinit$$00000015)
    .ARM.Collect$$libinit$$00000017          0x0000014a   Section        0  libinit2.o(.ARM.Collect$$libinit$$00000017)
    .ARM.Collect$$libinit$$00000019          0x0000014a   Section        0  libinit2.o(.ARM.Collect$$libinit$$00000019)
    .ARM.Collect$$libinit$$0000001B          0x0000014a   Section        0  libinit2.o(.ARM.Collect$$libinit$$0000001B)
    .ARM.Collect$$libinit$$0000001D          0x0000014a   Section        0  libinit2.o(.ARM.Collect$$libinit$$0000001D)
    .ARM.Collect$$libinit$$0000001F          0x0000014a   Section        0  libinit2.o(.ARM.Collect$$libinit$$0000001F)
    .ARM.Collect$$libinit$$00000021          0x0000014a   Section        0  libinit2.o(.ARM.Collect$$libinit$$00000021)
    .ARM.Collect$$libinit$$00000023          0x0000014a   Section        0  libinit2.o(.ARM.Collect$$libinit$$00000023)
    .ARM.Collect$$libinit$$0000002A          0x0000014a   Section        0  libinit2.o(.ARM.Collect$$libinit$$0000002A)
    .ARM.Collect$$libinit$$0000002C          0x0000014a   Section        0  libinit2.o(.ARM.Collect$$libinit$$0000002C)
    .ARM.Collect$$libinit$$0000002E          0x0000014a   Section        0  libinit2.o(.ARM.Collect$$libinit$$0000002E)
    .ARM.Collect$$libinit$$0000002F          0x0000014a   Section        4  libinit2.o(.ARM.Collect$$libinit$$0000002F)
    .ARM.Collect$$libinit$$00000030          0x0000014e   Section        0  libinit2.o(.ARM.Collect$$libinit$$00000030)
    .ARM.Collect$$libinit$$00000031          0x0000014e   Section        2  libinit2.o(.ARM.Collect$$libinit$$00000031)
    .ARM.Collect$$libshutdown$$00000000      0x00000150   Section        2  libshutdown.o(.ARM.Collect$$libshutdown$$00000000)
    .ARM.Collect$$libshutdown$$00000003      0x00000152   Section        0  libshutdown2.o(.ARM.Collect$$libshutdown$$00000003)
    .ARM.Collect$$libshutdown$$00000006      0x00000152   Section        0  libshutdown2.o(.ARM.Collect$$libshutdown$$00000006)
    .ARM.Collect$$libshutdown$$00000009      0x00000152   Section        0  libshutdown2.o(.ARM.Collect$$libshutdown$$00000009)
    .ARM.Collect$$libshutdown$$0000000B      0x00000152   Section        0  libshutdown2.o(.ARM.Collect$$libshutdown$$0000000B)
    .ARM.Collect$$libshutdown$$0000000E      0x00000152   Section        0  libshutdown2.o(.ARM.Collect$$libshutdown$$0000000E)
    .ARM.Collect$$libshutdown$$0000000F      0x00000152   Section        2  libshutdown2.o(.ARM.Collect$$libshutdown$$0000000F)
    .ARM.Collect$$rtentry$$00000000          0x00000154   Section        0  rtentry.o(.ARM.Collect$$rtentry$$00000000)
    .ARM.Collect$$rtentry$$00000002          0x00000154   Section        0  rtentry2.o(.ARM.Collect$$rtentry$$00000002)
    .ARM.Collect$$rtentry$$00000004          0x00000154   Section        6  rtentry4.o(.ARM.Collect$$rtentry$$00000004)
    .ARM.Collect$$rtentry$$00000009          0x0000015a   Section        0  rtentry2.o(.ARM.Collect$$rtentry$$00000009)
    .ARM.Collect$$rtentry$$0000000A          0x0000015a   Section        4  rtentry2.o(.ARM.Collect$$rtentry$$0000000A)
    .ARM.Collect$$rtentry$$0000000C          0x0000015e   Section        0  rtentry2.o(.ARM.Collect$$rtentry$$0000000C)
    .ARM.Collect$$rtentry$$0000000D          0x0000015e   Section        8  rtentry2.o(.ARM.Collect$$rtentry$$0000000D)
    .ARM.Collect$$rtexit$$00000000           0x00000166   Section        2  rtexit.o(.ARM.Collect$$rtexit$$00000000)
    .ARM.Collect$$rtexit$$00000002           0x00000168   Section        0  rtexit2.o(.ARM.Collect$$rtexit$$00000002)
    .ARM.Collect$$rtexit$$00000003           0x00000168   Section        4  rtexit2.o(.ARM.Collect$$rtexit$$00000003)
    .ARM.Collect$$rtexit$$00000004           0x0000016c   Section        6  rtexit2.o(.ARM.Collect$$rtexit$$00000004)
    .emb_text                                0x00000174   Section        0  maybetermalloc1.o(.emb_text)
    .text                                    0x00000174   Section       56  startup_lpc17xx.o(.text)
    .text                                    0x000001ac   Section       32  rtos_asm.o(.text)
    .text                                    0x000001cc   Section        0  h1_alloc.o(.text)
    .text                                    0x0000022a   Section        0  h1_free.o(.text)
    .text                                    0x00000278   Section        0  abort.o(.text)
    .text                                    0x00000288   Section        0  heapauxi.o(.text)
    .text                                    0x00000290   Section        0  init_aeabi.o(.text)
    .text                                    0x000002b4   Section        0  sys_exit.o(.text)
    .text                                    0x000002c0   Section        8  rt_heap_descriptor_intlibspace.o(.text)
    .text                                    0x000002c8   Section        0  hguard.o(.text)
    .text                                    0x000002cc   Section        0  h1_init.o(.text)
    .text                                    0x000002da   Section        0  _rserrno.o(.text)
    .text                                    0x000002f0   Section        8  libspace.o(.text)
    .text                                    0x000002f8   Section        2  use_no_semi.o(.text)
    .text                                    0x000002fa   Section        0  indicate_semi.o(.text)
    i._ZN5cList4Item6updateEv                0x000002fa   Section        0  lib.o(i._ZN5cList4Item6updateEv)
    .ARM.__at_0x02FC                         0x000002fc   Section        4  startup_lpc17xx.o(.ARM.__at_0x02FC)
    .text                                    0x00000300   Section        0  init_alloc.o(.text)
    .text                                    0x0000038a   Section        0  defsig_abrt_outer.o(.text)
    .text                                    0x00000398   Section        8  rt_errno_addr_intlibspace.o(.text)
    .text                                    0x000003a0   Section        0  h1_extend.o(.text)
    .text                                    0x000003d4   Section        0  defsig_exit.o(.text)
    .text                                    0x000003e0   Section        0  defsig_abrt_inner.o(.text)
    .text                                    0x00000410   Section        0  defsig_rtmem_outer.o(.text)
    .text                                    0x0000041e   Section       74  sys_stackheap_outer.o(.text)
    .text                                    0x00000468   Section        0  exit.o(.text)
    .text                                    0x00000474   Section        0  defsig_general.o(.text)
    .text                                    0x000004a8   Section        0  defsig_rtmem_inner.o(.text)
    .text                                    0x000004f8   Section        0  sys_wrch.o(.text)
    i.ADC_IRQHandler                         0x00000508   Section        0  lib.o(i.ADC_IRQHandler)
    i.PWM1_IRQHandler                        0x0000052c   Section        0  lib.o(i.PWM1_IRQHandler)
    i.PendSV_Handler                         0x0000053c   Section        0  lib.o(i.PendSV_Handler)
    i.SysTick_Handler                        0x00000568   Section        0  lib.o(i.SysTick_Handler)
    i.SystemInit                             0x000005a4   Section        0  lib.o(i.SystemInit)
    i.TIMER0_IRQHandler                      0x0000080c   Section        0  lib.o(i.TIMER0_IRQHandler)
    i.TIMER1_IRQHandler                      0x0000081c   Section        0  lib.o(i.TIMER1_IRQHandler)
    i.TIMER2_IRQHandler                      0x0000082c   Section        0  lib.o(i.TIMER2_IRQHandler)
    i.TIMER3_IRQHandler                      0x0000083c   Section        0  lib.o(i.TIMER3_IRQHandler)
    i.UART0_IRQHandler                       0x0000084c   Section        0  lib.o(i.UART0_IRQHandler)
    i.UART1_IRQHandler                       0x00000864   Section        0  lib.o(i.UART1_IRQHandler)
    i.UART3_IRQHandler                       0x0000087c   Section        0  lib.o(i.UART3_IRQHandler)
    i.USB_IRQHandler                         0x00000894   Section        0  lib.o(i.USB_IRQHandler)
    i._Z12displayValuefiii                   0x000008a4   Section        0  main.o(i._Z12displayValuefiii)
    i._Z14NVIC_EnableIRQ4IRQn                0x000009bc   Section        0  lib.o(i._Z14NVIC_EnableIRQ4IRQn)
    NVIC_EnableIRQ(IRQn)                     0x000009bd   Thumb Code    24  lib.o(i._Z14NVIC_EnableIRQ4IRQn)
    i._Z3FFTslPdS_                           0x000009d4   Section        0  main.o(i._Z3FFTslPdS_)
    i._ZN10cHwDisplayC2Ehh                   0x00000cc0   Section        0  lib.o(i._ZN10cHwDisplayC2Ehh)
    i._ZN10cHwTimer_N3isrEv                  0x00000cd0   Section        0  lib.o(i._ZN10cHwTimer_N3isrEv)
    i._ZN10cHwTimer_NC1ENS_7TimerIdEj        0x00000cf8   Section        0  lib.o(i._ZN10cHwTimer_NC1ENS_7TimerIdEj)
    i._ZN11cDevDigital10isReleasedEv         0x00000e74   Section        0  lib.o(i._ZN11cDevDigital10isReleasedEv)
    i._ZN11cDevDigital11isActivatedEv        0x00000e86   Section        0  lib.o(i._ZN11cDevDigital11isActivatedEv)
    i._ZN11cDevDigital3getEv                 0x00000e98   Section        0  lib.o(i._ZN11cDevDigital3getEv)
    i._ZN11cDevDigital5isSetEv               0x00000eb2   Section        0  lib.o(i._ZN11cDevDigital5isSetEv)
    i._ZN11cDevDigital6updateEv              0x00000eb8   Section        0  lib.o(i._ZN11cDevDigital6updateEv)
    i._ZN11cDevDigitalC1ER7cHwPorthNS_4ModeEb 0x00000ecc   Section        0  lib.o(i._ZN11cDevDigitalC1ER7cHwPorthNS_4ModeEb)
    i._ZN11cDevDisplayC2Ev                   0x00000f18   Section        0  lib.o(i._ZN11cDevDisplayC2Ev)
    i._ZN12TimerHandler6updateEv             0x00000f24   Section        0  main.o(i._ZN12TimerHandler6updateEv)
    i._ZN12TimerHandlerC1Ev                  0x00000fdc   Section        0  main.o(i._ZN12TimerHandlerC1Ev)
    i._ZN12cHwPinConfig3setENS_8FunctionEj   0x00001058   Section        0  lib.o(i._ZN12cHwPinConfig3setENS_8FunctionEj)
    i._ZN12cHwSPImaster6Device4stopEv        0x0000115c   Section        0  lib.o(i._ZN12cHwSPImaster6Device4stopEv)
    i._ZN12cHwSPImaster6Device5startEv       0x0000116a   Section        0  lib.o(i._ZN12cHwSPImaster6Device5startEv)
    i._ZN12cHwSPImaster6Device5writeEPht     0x00001178   Section        0  lib.o(i._ZN12cHwSPImaster6Device5writeEPht)
    i._ZN12cHwSPImaster6DeviceC1ERKS0_       0x000011b0   Section        0  lib.o(i._ZN12cHwSPImaster6DeviceC1ERKS0_)
    i._ZN12cHwSPImaster6DeviceC1ERS_R7cHwPorth 0x000011d8   Section        0  main.o(i._ZN12cHwSPImaster6DeviceC1ERS_R7cHwPorth)
    i._ZN12cHwSPImasterC2Ev                  0x00001224   Section        0  lib.o(i._ZN12cHwSPImasterC2Ev)
    i._ZN14cHwDisplayFontC1EPK24cHwDisplayFontPropertiesPKh 0x00001230   Section        0  lib.o(i._ZN14cHwDisplayFontC1EPK24cHwDisplayFontPropertiesPKh)
    i._ZN14cHwSPImaster_114transceiveByteEh  0x0000123c   Section        0  lib.o(i._ZN14cHwSPImaster_114transceiveByteEh)
    i._ZN14cHwSPImaster_1C1EN12cHwSPImaster4MODEENS0_11ClockPolPhaE 0x00001274   Section        0  lib.o(i._ZN14cHwSPImaster_1C1EN12cHwSPImaster4MODEENS0_11ClockPolPhaE)
    i._ZN15cDevDisplayCharC1ER10cHwDisplay   0x00001310   Section        0  lib.o(i._ZN15cDevDisplayCharC1ER10cHwDisplay)
    i._ZN17cHwDisplayGraphic12putRectangleEtttt 0x00001334   Section        0  lib.o(i._ZN17cHwDisplayGraphic12putRectangleEtttt)
    i._ZN17cHwDisplayGraphic13setPaintColorEt 0x0000137e   Section        0  lib.o(i._ZN17cHwDisplayGraphic13setPaintColorEt)
    i._ZN17cHwDisplayGraphicC2E14cHwDisplayFonth 0x00001384   Section        0  lib.o(i._ZN17cHwDisplayGraphicC2E14cHwDisplayFonth)
    i._ZN18cDevControlEncoder6updateEv       0x000013c8   Section        0  lib.o(i._ZN18cDevControlEncoder6updateEv)
    i._ZN18cDevControlEncoder7getCtrlEv      0x0000144e   Section        0  lib.o(i._ZN18cDevControlEncoder7getCtrlEv)
    i._ZN18cDevControlEncoderC2EP11cDevDigitalP8cHwTimer 0x00001480   Section        0  lib.o(i._ZN18cDevControlEncoderC2EP11cDevDigitalP8cHwTimer)
    i._ZN18cDevDisplayGraphic13drawRectangleEttttt 0x000014d8   Section        0  lib.o(i._ZN18cDevDisplayGraphic13drawRectangleEttttt)
    i._ZN18cDevDisplayGraphic5clearEv        0x0000150a   Section        0  lib.o(i._ZN18cDevDisplayGraphic5clearEv)
    i._ZN18cDevDisplayGraphicC1ER17cHwDisplayGraphic 0x00001518   Section        0  lib.o(i._ZN18cDevDisplayGraphicC1ER17cHwDisplayGraphic)
    i._ZN20cHwDisp_SPFD5408Bspi4initEv       0x0000153c   Section        0  lib.o(i._ZN20cHwDisp_SPFD5408Bspi4initEv)
    i._ZN20cHwDisp_SPFD5408Bspi5clearEv      0x000016f2   Section        0  lib.o(i._ZN20cHwDisp_SPFD5408Bspi5clearEv)
    i._ZN20cHwDisp_SPFD5408Bspi7setAreaEtttt 0x00001730   Section        0  lib.o(i._ZN20cHwDisp_SPFD5408Bspi7setAreaEtttt)
    i._ZN20cHwDisp_SPFD5408Bspi8setPixelEt   0x00001798   Section        0  lib.o(i._ZN20cHwDisp_SPFD5408Bspi8setPixelEt)
    i._ZN20cHwDisp_SPFD5408Bspi8writeCmdEt   0x000017a8   Section        0  lib.o(i._ZN20cHwDisp_SPFD5408Bspi8writeCmdEt)
    i._ZN20cHwDisp_SPFD5408Bspi8writeDatEt   0x000017d4   Section        0  lib.o(i._ZN20cHwDisp_SPFD5408Bspi8writeDatEt)
    i._ZN20cHwDisp_SPFD5408Bspi8writeRegEht  0x00001800   Section        0  lib.o(i._ZN20cHwDisp_SPFD5408Bspi8writeRegEht)
    i._ZN20cHwDisp_SPFD5408Bspi9maxWindowEv  0x0000181a   Section        0  lib.o(i._ZN20cHwDisp_SPFD5408Bspi9maxWindowEv)
    i._ZN20cHwDisp_SPFD5408BspiC1ERN12cHwSPImaster6DeviceERN7cHwPort3PinE14cHwDisplayFonth 0x00001858   Section        0  lib.o(i._ZN20cHwDisp_SPFD5408BspiC1ERN12cHwSPImaster6DeviceERN7cHwPort3PinE14cHwDisplayFonth)
    i._ZN26cDevControlEncoderJoystick12getIncrementEv 0x000018b0   Section        0  lib.o(i._ZN26cDevControlEncoderJoystick12getIncrementEv)
    i._ZN26cDevControlEncoderJoystickC1EP11cDevDigitalS1_S1_P8cHwTimert 0x00001924   Section        0  lib.o(i._ZN26cDevControlEncoderJoystickC1EP11cDevDigitalS1_S1_P8cHwTimert)
    i._ZN3GUI11getInstanceEv                 0x00001980   Section        0  main.o(i._ZN3GUI11getInstanceEv)
    i._ZN3GUI8drawRectE4Rectt                0x000019ac   Section        0  main.o(i._ZN3GUI8drawRectE4Rectt)
    i._ZN4RectC1Eiiii                        0x000019d8   Section        0  main.o(i._ZN4RectC1Eiiii)
    i._ZN5cList3addEPNS_4ItemE               0x000019e6   Section        0  lib.o(i._ZN5cList3addEPNS_4ItemE)
    i._ZN5cList4ItemC1EPS_                   0x00001a14   Section        0  lib.o(i._ZN5cList4ItemC1EPS_)
    i._ZN5cList9updateAllEv                  0x00001a34   Section        0  lib.o(i._ZN5cList9updateAllEv)
    i._ZN5cListC1Ev                          0x00001a4c   Section        0  lib.o(i._ZN5cListC1Ev)
    i._ZN6cHwADC3getEh                       0x00001a52   Section        0  lib.o(i._ZN6cHwADC3getEh)
    i._ZN6cHwADC3isrEv                       0x00001a7a   Section        0  lib.o(i._ZN6cHwADC3isrEv)
    i._ZN6cHwADC6enableEh                    0x00001ad2   Section        0  lib.o(i._ZN6cHwADC6enableEh)
    i._ZN6cHwADC6updateEv                    0x00001b10   Section        0  lib.o(i._ZN6cHwADC6updateEv)
    i._ZN6cHwADCC2EhP8cHwTimer               0x00001b44   Section        0  lib.o(i._ZN6cHwADCC2EhP8cHwTimer)
    i._ZN7cHwPort3Pin3clrEv                  0x00001b98   Section        0  lib.o(i._ZN7cHwPort3Pin3clrEv)
    i._ZN7cHwPort3Pin3getEv                  0x00001ba8   Section        0  lib.o(i._ZN7cHwPort3Pin3getEv)
    i._ZN7cHwPort3Pin3setEb                  0x00001bc2   Section        0  lib.o(i._ZN7cHwPort3Pin3setEb)
    i._ZN7cHwPort3Pin3setEv                  0x00001be2   Section        0  lib.o(i._ZN7cHwPort3Pin3setEv)
    i._ZN7cHwPort3Pin7setModeENS_4ModeE      0x00001bf2   Section        0  lib.o(i._ZN7cHwPort3Pin7setModeENS_4ModeE)
    i._ZN7cHwPort3PinC1ERS_h                 0x00001c08   Section        0  lib.o(i._ZN7cHwPort3PinC1ERS_h)
    i._ZN7cHwPortC2Ev                        0x00001c20   Section        0  lib.o(i._ZN7cHwPortC2Ev)
    i._ZN7cSystem13delayMicroSecEt           0x00001c2c   Section        0  lib.o(i._ZN7cSystem13delayMicroSecEt)
    i._ZN7cSystem13delayMilliSecEt           0x00001c5c   Section        0  lib.o(i._ZN7cSystem13delayMilliSecEt)
    i._ZN7cSystem15disableWatchdogEv         0x00001c74   Section        0  lib.o(i._ZN7cSystem15disableWatchdogEv)
    i._ZN7cSystem15enableInterruptEv         0x00001c78   Section        0  lib.o(i._ZN7cSystem15enableInterruptEv)
    i._ZN7cSystem16disableInterruptEv        0x00001c98   Section        0  lib.o(i._ZN7cSystem16disableInterruptEv)
    i._ZN7cSystemC1Eh                        0x00001cac   Section        0  lib.o(i._ZN7cSystemC1Eh)
    i._ZN8cHwADC_07startChEh                 0x00001cc4   Section        0  lib.o(i._ZN8cHwADC_07startChEh)
    i._ZN8cHwADC_08configChEh                0x00001cdc   Section        0  lib.o(i._ZN8cHwADC_08configChEh)
    i._ZN8cHwADC_09getResultEv               0x00001d48   Section        0  lib.o(i._ZN8cHwADC_09getResultEv)
    i._ZN8cHwADC_0C1EP8cHwTimer              0x00001d58   Section        0  lib.o(i._ZN8cHwADC_0C1EP8cHwTimer)
    i._ZN8cHwTimer10isrHandlerEv             0x00001dc0   Section        0  lib.o(i._ZN8cHwTimer10isrHandlerEv)
    i._ZN8cHwTimer12getCycleTimeEv           0x00001dce   Section        0  lib.o(i._ZN8cHwTimer12getCycleTimeEv)
    i._ZN8cHwTimer3addEPN5cList4ItemE        0x00001dd4   Section        0  lib.o(i._ZN8cHwTimer3addEPN5cList4ItemE)
    i._ZN8cHwUSB_03isrEv                     0x00001de8   Section        0  lib.o(i._ZN8cHwUSB_03isrEv)
    i._ZN8cHwUSB_05WrCmdEj                   0x00001ed0   Section        0  lib.o(i._ZN8cHwUSB_05WrCmdEj)
    i._ZN8cHwUSB_08RdCmdDatEj                0x00001ef8   Section        0  lib.o(i._ZN8cHwUSB_08RdCmdDatEj)
    i._ZN9cHwPort_N10setPinModeEhN7cHwPort4ModeE 0x00001f28   Section        0  lib.o(i._ZN9cHwPort_N10setPinModeEhN7cHwPort4ModeE)
    i._ZN9cHwPort_N3clrEj                    0x00001f50   Section        0  lib.o(i._ZN9cHwPort_N3clrEj)
    i._ZN9cHwPort_N3getEv                    0x00001f56   Section        0  lib.o(i._ZN9cHwPort_N3getEv)
    i._ZN9cHwPort_N3setEj                    0x00001f5e   Section        0  lib.o(i._ZN9cHwPort_N3setEj)
    i._ZN9cHwPort_NC1ENS_6PortIdE            0x00001f64   Section        0  lib.o(i._ZN9cHwPort_NC1ENS_6PortIdE)
    i._Znaj                                  0x00001fbc   Section        0  lib.o(i._Znaj)
    i.__ARM_fpclassifyf                      0x00001fc8   Section        0  fpclassifyf.o(i.__ARM_fpclassifyf)
    i.__cxa_guard_acquire                    0x00001fee   Section        0  cxa_guard_acquire.o(i.__cxa_guard_acquire)
    i.__cxa_pure_virtual                     0x00001ffe   Section        0  lib.o(i.__cxa_pure_virtual)
    i.__mathlib_flt_underflow                0x00002002   Section        0  funder.o(i.__mathlib_flt_underflow)
    i.__sti___7_GUI_cpp                      0x0000200c   Section        0  gui.o(i.__sti___7_GUI_cpp)
    __sti___7_GUI_cpp                        0x0000200d   Thumb Code     6  gui.o(i.__sti___7_GUI_cpp)
    i.__sti___8_main_cpp                     0x00002018   Section        0  main.o(i.__sti___8_main_cpp)
    __sti___8_main_cpp                       0x00002019   Thumb Code   240  main.o(i.__sti___8_main_cpp)
    i.expf                                   0x00002154   Section        0  expf.o(i.expf)
    i.main                                   0x000022c4   Section        0  main.o(i.main)
    i.sqrt                                   0x000024bc   Section        0  sqrt.o(i.sqrt)
    t._ZN5cFifoIN18cDevControlEncoder6tEventEE6isFullEv 0x00002508   Section        0  lib.o(t._ZN5cFifoIN18cDevControlEncoder6tEventEE6isFullEv)
    t._ZN5cFifoIN18cDevControlEncoder6tEventEElsERKS1_ 0x00002528   Section        0  lib.o(t._ZN5cFifoIN18cDevControlEncoder6tEventEElsERKS1_)
    x$fpl$d2f                                0x00002568   Section       98  d2f.o(x$fpl$d2f)
    x$fpl$dadd                               0x000025cc   Section      336  daddsub_clz.o(x$fpl$dadd)
    _dadd1                                   0x000025dd   Thumb Code     0  daddsub_clz.o(x$fpl$dadd)
    x$fpl$ddiv                               0x0000271c   Section      688  ddiv.o(x$fpl$ddiv)
    ddiv_entry                               0x00002723   Thumb Code     0  ddiv.o(x$fpl$ddiv)
    x$fpl$dfixu                              0x000029cc   Section       90  dfixu.o(x$fpl$dfixu)
    x$fpl$dflt                               0x00002a26   Section       46  dflt_clz.o(x$fpl$dflt)
    x$fpl$dfltu                              0x00002a54   Section       38  dflt_clz.o(x$fpl$dfltu)
    x$fpl$dmul                               0x00002a7c   Section      340  dmul.o(x$fpl$dmul)
    x$fpl$dnaninf                            0x00002bd0   Section      156  dnaninf.o(x$fpl$dnaninf)
    x$fpl$dretinf                            0x00002c6c   Section       12  dretinf.o(x$fpl$dretinf)
    x$fpl$dsqrt                              0x00002c78   Section      460  dsqrt_noumaal.o(x$fpl$dsqrt)
    x$fpl$dsub                               0x00002e44   Section      468  daddsub_clz.o(x$fpl$dsub)
    _dsub1                                   0x00002e55   Thumb Code     0  daddsub_clz.o(x$fpl$dsub)
    x$fpl$f2d                                0x00003018   Section       86  f2d.o(x$fpl$f2d)
    x$fpl$fadd                               0x00003070   Section      196  faddsub_clz.o(x$fpl$fadd)
    _fadd1                                   0x0000307f   Thumb Code     0  faddsub_clz.o(x$fpl$fadd)
    x$fpl$fcheck1                            0x00003134   Section       12  fcheck1.o(x$fpl$fcheck1)
    x$fpl$fcmpinf                            0x00003140   Section       24  fcmpi.o(x$fpl$fcmpinf)
    x$fpl$fdiv                               0x00003158   Section      388  fdiv.o(x$fpl$fdiv)
    _fdiv1                                   0x00003159   Thumb Code     0  fdiv.o(x$fpl$fdiv)
    x$fpl$ffix                               0x000032dc   Section       54  ffix.o(x$fpl$ffix)
    x$fpl$ffixu                              0x00003314   Section       62  ffixu.o(x$fpl$ffixu)
    x$fpl$fflt                               0x00003354   Section       48  fflt_clz.o(x$fpl$fflt)
    x$fpl$ffltu                              0x00003384   Section       38  fflt_clz.o(x$fpl$ffltu)
    x$fpl$fleqf                              0x000033ac   Section      104  fleqf.o(x$fpl$fleqf)
    x$fpl$fmul                               0x00003414   Section      258  fmul.o(x$fpl$fmul)
    x$fpl$fnaninf                            0x00003516   Section      140  fnaninf.o(x$fpl$fnaninf)
    x$fpl$fretinf                            0x000035a2   Section       10  fretinf.o(x$fpl$fretinf)
    x$fpl$frleqf                             0x000035ac   Section       98  frleqf.o(x$fpl$frleqf)
    x$fpl$frnd                               0x00003610   Section       96  frnd.o(x$fpl$frnd)
    x$fpl$frsb                               0x00003670   Section       20  faddsub_clz.o(x$fpl$frsb)
    x$fpl$fsub                               0x00003684   Section      234  faddsub_clz.o(x$fpl$fsub)
    _fsub1                                   0x00003693   Thumb Code     0  faddsub_clz.o(x$fpl$fsub)
    x$fpl$retnan                             0x0000376e   Section      100  retnan.o(x$fpl$retnan)
    x$fpl$scalbnf                            0x000037d2   Section       76  scalbnf.o(x$fpl$scalbnf)
    x$fpl$trapveneer                         0x0000381e   Section       48  trapv.o(x$fpl$trapveneer)
    .constdata                               0x0000384e   Section     1157  main.o(.constdata)
    x$fpl$usenofp                            0x0000384e   Section        0  usenofp.o(x$fpl$usenofp)
    fontFont_8x12                            0x0000384e   Data        1157  main.o(.constdata)
    .constdata                               0x00003cd4   Section       48  expf.o(.constdata)
    twotokover4top                           0x00003cd4   Data          16  expf.o(.constdata)
    twotokover4bot                           0x00003ce4   Data          16  expf.o(.constdata)
    twotokover4all                           0x00003cf4   Data          16  expf.o(.constdata)
    .constdata__ZTV10cHwDisplay              0x00003d04   Section       28  lib.o(.constdata__ZTV10cHwDisplay)
    .constdata__ZTV10cHwTimer_N              0x00003d20   Section       28  lib.o(.constdata__ZTV10cHwTimer_N)
    .constdata__ZTV11cDevDigital             0x00003d3c   Section       68  lib.o(.constdata__ZTV11cDevDigital)
    .constdata__ZTV11cDevDisplay             0x00003d80   Section       16  lib.o(.constdata__ZTV11cDevDisplay)
    .constdata__ZTV12TimerHandler            0x00003d90   Section       12  main.o(.constdata__ZTV12TimerHandler)
